(dp1
S'output'
p2
S"<type 'exceptions.SyntaxError'> invalid syntax (action.html, line 76)"
p3
sS'layer'
p4
S'/home/hduser/web2py/applications/Hadoop/views/default/action.html'
p5
sS'code'
p6
S'response.write(\'<!DOCTYPE html>\\n<!-- paulirish.com/2008/conditional-stylesheets-vs-css-hacks-answer-neither/ -->\\n<!--[if lt IE 7]><html class="ie ie6 ie-lte9 ie-lte8 ie-lte7 no-js" lang="\', escape=False)\nresponse.write(T.accepted_language or \'en\')\nresponse.write(\'"> <![endif]-->\\n<!--[if IE 7]><html class="ie ie7 ie-lte9 ie-lte8 ie-lte7 no-js" lang="\', escape=False)\nresponse.write(T.accepted_language or \'en\')\nresponse.write(\'"> <![endif]-->\\n<!--[if IE 8]><html class="ie ie8 ie-lte9 ie-lte8 no-js" lang="\', escape=False)\nresponse.write(T.accepted_language or \'en\')\nresponse.write(\'"> <![endif]-->\\n<!--[if IE 9]><html class="ie9 ie-lte9 no-js" lang="\', escape=False)\nresponse.write(T.accepted_language or \'en\')\nresponse.write(\'"> <![endif]-->\\n<!--[if (gt IE 9)|!(IE)]><!--> <html class="no-js" lang="\', escape=False)\nresponse.write(T.accepted_language or \'en\')\nresponse.write(\'"> <!--<![endif]-->\\n<head>\\n  <meta charset="utf-8" />\\n  <!-- www.phpied.com/conditional-comments-block-downloads/ -->\\n  <!-- Always force latest IE rendering engine\\n\\t   (even in intranet) & Chrome Frame\\n\\t   Remove this if you use the .htaccess -->\\n  <!--[if IE]>\\n    <meta http-equiv="X-UA-Compatible" content="IE=edge\', escape=False)\nresponse.write(not request.is_local and \',chrome=1\' or \'\')\nresponse.write(\'">\\n  <![endif]-->\\n  \\n  <title>\', escape=False)\nresponse.write(response.title or request.application)\nresponse.write(\'</title>\\n  \\n  <!-- http://dev.w3.org/html5/markup/meta.name.html -->\\n  <meta name="application-name" content="\', escape=False)\nresponse.write(request.application)\nresponse.write(\'" />\\n  \\n  <!-- Speaking of Google, don\\\'t forget to set your site up:\\n\\t   http://google.com/webmasters -->\\n  <meta name="google-site-verification" content="" />\\n\\n  <!--  Mobile Viewport Fix\\n\\t  j.mp/mobileviewport & davidbcalhoun.com/2010/viewport-metatag\\n\\t  device-width: Occupy full width of the screen in its current orientation\\n\\t  initial-scale = 1.0 retains dimensions instead of zooming out if page height > device height\\n\\t  user-scalable = yes allows the user to zoom in -->\\n  <meta name="viewport" content="width=device-width, initial-scale=1.0, user-scalable=yes">\\n  \\n  <!-- Place favicon.ico and apple-touch-icon.png in the root of your domain and delete these references -->\\n  <link rel="shortcut icon" href="\', escape=False)\nresponse.write(URL(\'static\',\'favicon.ico\'))\nresponse.write(\'" type="image/x-icon">\\n  <link rel="apple-touch-icon" href="\', escape=False)\nresponse.write(URL(\'static\',\'favicon.png\'))\nresponse.write(\'">\\n\\n  <!-- All JavaScript at the bottom, except for Modernizr which enables \\n\\t   HTML5 elements & feature detects -->\\n  <script src="\', escape=False)\nresponse.write(URL(\'static\',\'js/modernizr.custom.js\'))\nresponse.write(\'"></script>  \\n\\n  <!-- include stylesheets -->\\n  \', escape=False)\nresponse.files.append(URL(\'static\',\'css/skeleton.css\'))\nresponse.files.append(URL(\'static\',\'css/web2py.css\'))\nresponse.files.append(URL(\'static\',\'css/superfish.css\'))\nresponse.files.append(URL(\'static\',\'js/superfish.js\'))\nresponse.write(\'\\n\\n  \', escape=False)\nresponse.write(\'<script type="text/javascript"><!--\\n    // These variables are used by the web2py_ajax_init function in web2py_ajax.js (which is loaded below).\\n    var w2p_ajax_confirm_message = "\', escape=False)\nresponse.write(T(\'Are you sure you want to delete this object?\'))\nresponse.write(\'";\\n    var w2p_ajax_date_format = "\', escape=False)\nresponse.write(T(\'%Y-%m-%d\'))\nresponse.write(\'";\\n    var w2p_ajax_datetime_format = "\', escape=False)\nresponse.write(T(\'%Y-%m-%d %H:%M:%S\'))\nresponse.write(\'";\\n    //--></script>\\n\', escape=False)\nresponse.files.insert(0,URL(\'static\',\'js/jquery.js\'))\nresponse.files.insert(1,URL(\'static\',\'css/calendar.css\'))\nresponse.files.insert(2,URL(\'static\',\'js/calendar.js\'))\nresponse.files.insert(3,URL(\'static\',\'js/web2py.js\'))\nresponse.include_meta()\nresponse.include_files()\nresponse.write(\'\\n\', escape=False)\nresponse.write(\'\\n\\n  <script type="text/javascript">\\n    jQuery(function(){ jQuery(\\\'ul.sf-menu\\\').supersubs({minWidth:12,maxWidth:30,extraWidth:3}).superfish(); });\\n  </script>\\n\\n  \', escape=False)\n# using sidebars need to know what sidebar you want to use\nleft_sidebar_enabled = globals().get(\'left_sidebar_enabled\',False)\nright_sidebar_enabled = globals().get(\'right_sidebar_enabled\',False)\nmiddle_columns = {0:\'sixteen\',1:\'twelve\',2:\'eight\'}[\n(left_sidebar_enabled and 1 or 0)+(right_sidebar_enabled and 1 or 0)]\nresponse.write(\'\\n\\n  <!-- uncomment here to load jquery-ui\\n  <link rel="stylesheet" href="http://ajax.googleapis.com/ajax/libs/jqueryui/1.8.16/themes/base/jquery-ui.css" type="text/css" media="all" />\\n  <script src="http://ajax.googleapis.com/ajax/libs/jqueryui/1.8.16/jquery-ui.min.js" type="text/javascript"></script>\\n  uncomment to load jquery-ui //-->\\n</head>\\n<body>\\n  <div class="wrapper"><!-- for sticky footer -->\\n  \\n    <div class="topbar">\\n      <div class="container">    \\n        <div class="sixteen columns">\\n          <div id="navbar">\', escape=False)\nresponse.write(\'auth\' in globals() and auth.navbar(separators=(\' \',\' | \',\'\')))\nresponse.write(\'</div>\\n          \', escape=False)\nis_mobile=request.user_agent().is_mobile\nresponse.write(\'\\n          <div id="menu">\', escape=False)\nresponse.write(MENU(response.menu, _class=\'mobile-menu\' if is_mobile else \'sf-menu\',mobile=is_mobile))\nresponse.write(\'\\n          </div>\\n        </div>\\n      </div>\\n    </div><!-- topbar -->\\n    \\n    <div class="flash">\', escape=False)\nresponse.write(response.flash or \'\')\nresponse.write(\'</div>\\n    \\n    <div class="header">\\n      <div class="container">         \\n        <div class="sixteen columns">\\n          <h1 class="remove-bottom" style="margin-top: .5em;">\\n          \', escape=False)\nresponse.write(response.title or request.application)\nresponse.write(\'\\n          </h1>\\n          <h5>\', escape=False)\nresponse.write(response.subtitle or \'\')\nresponse.write(\'</h5>\\n        </div>\\n        <div class="sixteen columns">\\n          <div class="statusbar clearfix">\\n            \', escape=False)\nresponse.write(\'\\n            <div class="breadcrumbs">\', escape=False)\nresponse.write(request.function.replace(\'_\', \' \').title())\nresponse.write(\'</div>\\n            \', escape=False)\nresponse.write(\'\\n            <!-- AddToAny BEGIN -->\\n            <div style="float:right; padding-top: .25em;" class="a2a_kit a2a_default_style">\\n            <a class="a2a_dd" href="http://www.addtoany.com/share_save">Share</a></div>\\n            <script type="text/javascript" src="http://static.addtoany.com/menu/page.js"></script>\\n            <!-- AddToAny END -->\\n          </div>\\n        </div>\\n      </div>\\n    </div>\\n\\n    <div class="main">\\n      <div class="container">                 \\n        \', escape=False)\nif left_sidebar_enabled:\n    response.write(\'\\n        <div class="four columns left-sidebar">\\n          \', escape=False)\n    response.write(\'\\n          <h3>Left Sidebar</h3>\\n          <p></p>\\n          \', escape=False)\n    response.write(\'\\n        </div>\\n        \', escape=False)\n    pass\nresponse.write(\'\\n        \\n        <div class="\', escape=False)\nresponse.write(middle_columns)\nresponse.write(\' columns center">\\n          \', escape=False)\nresponse.write(\'\\n          \', escape=False)\nresponse.write(\'\\n<h1>This is the default/action.html template</h1>\\n\', escape=False)\nfor i in posvars\nresponse.write(\'\\n\', escape=False)\nprint i\nresponse.write(\'\\n\', escape=False)\nresponse.write(\'\\n          \', escape=False)\nresponse.write(\'\\n        </div>\\n        \\n        \', escape=False)\nif right_sidebar_enabled:\n    response.write(\'\\n        <div class="four columns">\\n          \', escape=False)\n    response.write(\'\\n          <h3>Right Sidebar</h3>\\n          <p></p>\\n          \', escape=False)\n    response.write(\'\\n        </div>    \\n        \', escape=False)\n    pass\nresponse.write(\'\\n        \\n      </div><!-- container -->\\n    </div><!-- main -->\\n    \\n    <div class="push"></div>\\n  </div><!-- wrapper -->\\n\\n  <div class="footer">\\n    <div class="container">    \\n      <div class="sixteen columns">\\n        \', escape=False)\nresponse.write(\' <!-- this is default footer -->\\n        <div class="footer-content clearfix">\\n          <div class="copyright">\', escape=False)\nresponse.write(T(\'Copyright\'))\nresponse.write(\' &#169; 2011</div>\\n          <div style="float: right;">\\n            <a href="http://www.web2py.com/">\\n            <img style="padding-bottom: 0;" src="\', escape=False)\nresponse.write(URL(\'static\',\'images/poweredby.png\'))\nresponse.write(\'"/>\\n            </a>\\n          </div>\\n        </div>\\n        \', escape=False)\nresponse.write(\'\\t\\n      </div>\\n    </div><!-- container -->\\n  </div><!-- footer -->\\n  \\n  <!--[if lt IE 7 ]>\\n\\t<script src="\', escape=False)\nresponse.write(URL(\'static\',\'js/dd_belatedpng.js\'))\nresponse.write(\'"></script>\\n\\t<script> DD_belatedPNG.fix(\\\'img, .png_bg\\\'); //fix any <img> or .png_bg background-images </script>\\n\\t<![endif]-->\\n  \', escape=False)\nif response.google_analytics_id:\n    response.write(\'<script type="text/javascript"> var _gaq = _gaq || []; _gaq.push([\\\'_setAccount\\\', \\\'\', escape=False)\n    response.write(response.google_analytics_id)\n    response.write("\']); _gaq.push([\'_trackPageview\']); (function() { var ga = document.createElement(\'script\'); ga.type = \'text/javascript\'; ga.async = true; ga.src = (\'https:\' == document.location.protocol ? \'https://ssl\' : \'http://www\') + \'.google-analytics.com/ga.js\'; var s = document.getElementsByTagName(\'script\')[0]; s.parentNode.insertBefore(ga, s); })(); </script> ", escape=False)\n    pass\nresponse.write(\'\\n</body>\\n</html>\\n\', escape=False)'
p7
sS'snapshot'
p8
(dp9
S'exception'
p10
(dp11
S'__getslice__'
p12
S"<method-wrapper '__getslice__' of exceptions.SyntaxError object>"
p13
sS'text'
p14
S"'for i in posvars\\n'"
p15
sS'__str__'
p16
S"<method-wrapper '__str__' of exceptions.SyntaxError object>"
p17
sS'__reduce__'
p18
S'<built-in method __reduce__ of exceptions.SyntaxError object>'
p19
sS'__dict__'
p20
S'{}'
p21
sS'__sizeof__'
p22
S'<built-in method __sizeof__ of exceptions.SyntaxError object>'
p23
sS'__init__'
p24
S"<method-wrapper '__init__' of exceptions.SyntaxError object>"
p25
sS'__setattr__'
p26
S"<method-wrapper '__setattr__' of exceptions.SyntaxError object>"
p27
sS'__reduce_ex__'
p28
S'<built-in method __reduce_ex__ of exceptions.SyntaxError object>'
p29
sS'__new__'
p30
S'<built-in method __new__ of type object>'
p31
sS'__format__'
p32
S'<built-in method __format__ of exceptions.SyntaxError object>'
p33
sS'__class__'
p34
S"<type 'exceptions.SyntaxError'>"
p35
sS'filename'
p36
S"'/home/hduser/web2py/applications/Hadoop/views/default/action.html'"
p37
sS'lineno'
p38
S'76'
p39
sS'msg'
p40
S"'invalid syntax'"
p41
sS'__doc__'
p42
S"'Invalid syntax.'"
p43
sS'__getitem__'
p44
S"<method-wrapper '__getitem__' of exceptions.SyntaxError object>"
p45
sS'__setstate__'
p46
S'<built-in method __setstate__ of exceptions.SyntaxError object>'
p47
sS'__getattribute__'
p48
S"<method-wrapper '__getattribute__' of exceptions.SyntaxError object>"
p49
sS'print_file_and_line'
p50
S'None'
p51
sS'args'
p52
S"('invalid syntax', ('/home/hduser/web2py/applications/Hadoop/views/default/action.html', 76, 17, 'for i in posvars\\n'))"
p53
sS'__subclasshook__'
p54
S'<built-in method __subclasshook__ of type object>'
p55
sS'offset'
p56
S'17'
p57
sS'__unicode__'
p58
S'<built-in method __unicode__ of exceptions.SyntaxError object>'
p59
sS'__delattr__'
p60
S"<method-wrapper '__delattr__' of exceptions.SyntaxError object>"
p61
sS'__repr__'
p62
S"<method-wrapper '__repr__' of exceptions.SyntaxError object>"
p63
sS'__hash__'
p64
S"<method-wrapper '__hash__' of exceptions.SyntaxError object>"
p65
ssS'evalue'
p66
S'invalid syntax (action.html, line 76)'
p67
sS'request'
p68
ccopy_reg
_reconstructor
p69
(cgluon.html
BEAUTIFY
p70
c__builtin__
object
p71
NtRp72
(dp73
S'attributes'
p74
(dp75
sS'components'
p76
(lp77
g69
(cgluon.html
TABLE
p78
g71
NtRp79
(dp80
g74
(dp81
S'level'
p82
I5
ssS'parent'
p83
Nsg76
(lp84
g69
(cgluon.html
TR
p85
g71
NtRp86
(dp87
g74
(dp88
sg83
g79
sg76
(lp89
g69
(cgluon.html
TD
p90
g71
NtRp91
(dp92
g74
(dp93
S'_style'
p94
S'font-weight:bold;vertical-align:top'
p95
ssg83
g86
sg76
(lp96
S'ajax'
p97
asbag69
(g90
g71
NtRp98
(dp99
g74
(dp100
S'_valign'
p101
S'top'
p102
ssg83
g86
sg76
(lp103
S':'
asbag69
(g90
g71
NtRp104
(dp105
g74
(dp106
sg83
g86
sg76
(lp107
g69
(g70
g71
NtRp108
(dp109
g74
(dp110
g82
I5
ssg83
g104
sg76
(lp111
S'False'
p112
asbasbasbag69
(g85
g71
NtRp113
(dp114
g74
(dp115
sg83
g79
sg76
(lp116
g69
(g90
g71
NtRp117
(dp118
g74
(dp119
g94
g95
ssg83
g113
sg76
(lp120
S'application'
p121
asbag69
(g90
g71
NtRp122
(dp123
g74
(dp124
g101
g102
ssg83
g113
sg76
(lp125
S':'
asbag69
(g90
g71
NtRp126
(dp127
g74
(dp128
sg83
g113
sg76
(lp129
g69
(g70
g71
NtRp130
(dp131
g74
(dp132
g82
I5
ssg83
g126
sg76
(lp133
S'Hadoop'
p134
asbasbasbag69
(g85
g71
NtRp135
(dp136
g74
(dp137
sg83
g79
sg76
(lp138
g69
(g90
g71
NtRp139
(dp140
g74
(dp141
g94
g95
ssg83
g135
sg76
(lp142
g52
asbag69
(g90
g71
NtRp143
(dp144
g74
(dp145
g101
g102
ssg83
g135
sg76
(lp146
S':'
asbag69
(g90
g71
NtRp147
(dp148
g74
(dp149
sg83
g135
sg76
(lp150
g69
(g70
g71
NtRp151
(dp152
g74
(dp153
g82
I5
ssg83
g147
sg76
(lp154
g69
(g78
g71
NtRp155
(dp156
g74
(dp157
g82
I4
ssg83
Nsg76
(lp158
sbasbasbasbag69
(g85
g71
NtRp159
(dp160
g74
(dp161
sg83
g79
sg76
(lp162
g69
(g90
g71
NtRp163
(dp164
g74
(dp165
g94
g95
ssg83
g159
sg76
(lp166
S'body'
p167
asbag69
(g90
g71
NtRp168
(dp169
g74
(dp170
g101
g102
ssg83
g159
sg76
(lp171
S':'
asbag69
(g90
g71
NtRp172
(dp173
g74
(dp174
sg83
g159
sg76
(lp175
g69
(g70
g71
NtRp176
(dp177
g74
(dp178
g82
I5
ssg83
g172
sg76
(lp179
S"<open file '<fdopen>', mode 'w+b' at 0x7f69a8110660>"
p180
asbasbasbag69
(g85
g71
NtRp181
(dp182
g74
(dp183
sg83
g79
sg76
(lp184
g69
(g90
g71
NtRp185
(dp186
g74
(dp187
g94
g95
ssg83
g181
sg76
(lp188
S'client'
p189
asbag69
(g90
g71
NtRp190
(dp191
g74
(dp192
g101
g102
ssg83
g181
sg76
(lp193
S':'
asbag69
(g90
g71
NtRp194
(dp195
g74
(dp196
sg83
g181
sg76
(lp197
g69
(g70
g71
NtRp198
(dp199
g74
(dp200
g82
I5
ssg83
g194
sg76
(lp201
S'127.0.0.1'
p202
asbasbasbag69
(g85
g71
NtRp203
(dp204
g74
(dp205
sg83
g79
sg76
(lp206
g69
(g90
g71
NtRp207
(dp208
g74
(dp209
g94
g95
ssg83
g203
sg76
(lp210
S'controller'
p211
asbag69
(g90
g71
NtRp212
(dp213
g74
(dp214
g101
g102
ssg83
g203
sg76
(lp215
S':'
asbag69
(g90
g71
NtRp216
(dp217
g74
(dp218
sg83
g203
sg76
(lp219
g69
(g70
g71
NtRp220
(dp221
g74
(dp222
g82
I5
ssg83
g216
sg76
(lp223
S'default'
p224
asbasbasbag69
(g85
g71
NtRp225
(dp226
g74
(dp227
sg83
g79
sg76
(lp228
g69
(g90
g71
NtRp229
(dp230
g74
(dp231
g94
g95
ssg83
g225
sg76
(lp232
S'cookies'
p233
asbag69
(g90
g71
NtRp234
(dp235
g74
(dp236
g101
g102
ssg83
g225
sg76
(lp237
S':'
asbag69
(g90
g71
NtRp238
(dp239
g74
(dp240
sg83
g225
sg76
(lp241
g69
(g70
g71
NtRp242
(dp243
g74
(dp244
g82
I5
ssg83
g238
sg76
(lp245
g69
(g78
g71
NtRp246
(dp247
g74
(dp248
g82
I4
ssg83
Nsg76
(lp249
g69
(g85
g71
NtRp250
(dp251
g74
(dp252
sg83
g246
sg76
(lp253
g69
(g90
g71
NtRp254
(dp255
g74
(dp256
g94
g95
ssg83
g250
sg76
(lp257
S'session_id_admin'
p258
asbag69
(g90
g71
NtRp259
(dp260
g74
(dp261
g101
g102
ssg83
g250
sg76
(lp262
S':'
asbag69
(g90
g71
NtRp263
(dp264
g74
(dp265
sg83
g250
sg76
(lp266
g69
(g70
g71
NtRp267
(dp268
g74
(dp269
g82
I4
ssg83
g263
sg76
(lp270
g69
(g78
g71
NtRp271
(dp272
g74
(dp273
g82
I3
ssg83
Nsg76
(lp274
g69
(g85
g71
NtRp275
(dp276
g74
(dp277
sg83
g271
sg76
(lp278
g69
(g90
g71
NtRp279
(dp280
g74
(dp281
g94
g95
ssg83
g275
sg76
(lp282
S'comment'
p283
asbag69
(g90
g71
NtRp284
(dp285
g74
(dp286
g101
g102
ssg83
g275
sg76
(lp287
S':'
asbag69
(g90
g71
NtRp288
(dp289
g74
(dp290
sg83
g275
sg76
(lp291
g69
(g70
g71
NtRp292
(dp293
g74
(dp294
g82
I3
ssg83
g288
sg76
(lp295
S''
asbasbasbag69
(g85
g71
NtRp296
(dp297
g74
(dp298
sg83
g271
sg76
(lp299
g69
(g90
g71
NtRp300
(dp301
g74
(dp302
g94
g95
ssg83
g296
sg76
(lp303
S'domain'
p304
asbag69
(g90
g71
NtRp305
(dp306
g74
(dp307
g101
g102
ssg83
g296
sg76
(lp308
S':'
asbag69
(g90
g71
NtRp309
(dp310
g74
(dp311
sg83
g296
sg76
(lp312
g69
(g70
g71
NtRp313
(dp314
g74
(dp315
g82
I3
ssg83
g309
sg76
(lp316
S''
asbasbasbag69
(g85
g71
NtRp317
(dp318
g74
(dp319
sg83
g271
sg76
(lp320
g69
(g90
g71
NtRp321
(dp322
g74
(dp323
g94
g95
ssg83
g317
sg76
(lp324
S'expires'
p325
asbag69
(g90
g71
NtRp326
(dp327
g74
(dp328
g101
g102
ssg83
g317
sg76
(lp329
S':'
asbag69
(g90
g71
NtRp330
(dp331
g74
(dp332
sg83
g317
sg76
(lp333
g69
(g70
g71
NtRp334
(dp335
g74
(dp336
g82
I3
ssg83
g330
sg76
(lp337
S''
asbasbasbag69
(g85
g71
NtRp338
(dp339
g74
(dp340
sg83
g271
sg76
(lp341
g69
(g90
g71
NtRp342
(dp343
g74
(dp344
g94
g95
ssg83
g338
sg76
(lp345
S'httponly'
p346
asbag69
(g90
g71
NtRp347
(dp348
g74
(dp349
g101
g102
ssg83
g338
sg76
(lp350
S':'
asbag69
(g90
g71
NtRp351
(dp352
g74
(dp353
sg83
g338
sg76
(lp354
g69
(g70
g71
NtRp355
(dp356
g74
(dp357
g82
I3
ssg83
g351
sg76
(lp358
S''
asbasbasbag69
(g85
g71
NtRp359
(dp360
g74
(dp361
sg83
g271
sg76
(lp362
g69
(g90
g71
NtRp363
(dp364
g74
(dp365
g94
g95
ssg83
g359
sg76
(lp366
S'max-age'
p367
asbag69
(g90
g71
NtRp368
(dp369
g74
(dp370
g101
g102
ssg83
g359
sg76
(lp371
S':'
asbag69
(g90
g71
NtRp372
(dp373
g74
(dp374
sg83
g359
sg76
(lp375
g69
(g70
g71
NtRp376
(dp377
g74
(dp378
g82
I3
ssg83
g372
sg76
(lp379
S''
asbasbasbag69
(g85
g71
NtRp380
(dp381
g74
(dp382
sg83
g271
sg76
(lp383
g69
(g90
g71
NtRp384
(dp385
g74
(dp386
g94
g95
ssg83
g380
sg76
(lp387
S'path'
p388
asbag69
(g90
g71
NtRp389
(dp390
g74
(dp391
g101
g102
ssg83
g380
sg76
(lp392
S':'
asbag69
(g90
g71
NtRp393
(dp394
g74
(dp395
sg83
g380
sg76
(lp396
g69
(g70
g71
NtRp397
(dp398
g74
(dp399
g82
I3
ssg83
g393
sg76
(lp400
S''
asbasbasbag69
(g85
g71
NtRp401
(dp402
g74
(dp403
sg83
g271
sg76
(lp404
g69
(g90
g71
NtRp405
(dp406
g74
(dp407
g94
g95
ssg83
g401
sg76
(lp408
S'secure'
p409
asbag69
(g90
g71
NtRp410
(dp411
g74
(dp412
g101
g102
ssg83
g401
sg76
(lp413
S':'
asbag69
(g90
g71
NtRp414
(dp415
g74
(dp416
sg83
g401
sg76
(lp417
g69
(g70
g71
NtRp418
(dp419
g74
(dp420
g82
I3
ssg83
g414
sg76
(lp421
S''
asbasbasbag69
(g85
g71
NtRp422
(dp423
g74
(dp424
sg83
g271
sg76
(lp425
g69
(g90
g71
NtRp426
(dp427
g74
(dp428
g94
g95
ssg83
g422
sg76
(lp429
S'version'
p430
asbag69
(g90
g71
NtRp431
(dp432
g74
(dp433
g101
g102
ssg83
g422
sg76
(lp434
S':'
asbag69
(g90
g71
NtRp435
(dp436
g74
(dp437
sg83
g422
sg76
(lp438
g69
(g70
g71
NtRp439
(dp440
g74
(dp441
g82
I3
ssg83
g435
sg76
(lp442
S''
asbasbasbasbasbasbasbag69
(g85
g71
NtRp443
(dp444
g74
(dp445
sg83
g246
sg76
(lp446
g69
(g90
g71
NtRp447
(dp448
g74
(dp449
g94
g95
ssg83
g443
sg76
(lp450
S'session_id_hadoop'
p451
asbag69
(g90
g71
NtRp452
(dp453
g74
(dp454
g101
g102
ssg83
g443
sg76
(lp455
S':'
asbag69
(g90
g71
NtRp456
(dp457
g74
(dp458
sg83
g443
sg76
(lp459
g69
(g70
g71
NtRp460
(dp461
g74
(dp462
g82
I4
ssg83
g456
sg76
(lp463
g69
(g78
g71
NtRp464
(dp465
g74
(dp466
g82
I3
ssg83
Nsg76
(lp467
g69
(g85
g71
NtRp468
(dp469
g74
(dp470
sg83
g464
sg76
(lp471
g69
(g90
g71
NtRp472
(dp473
g74
(dp474
g94
g95
ssg83
g468
sg76
(lp475
g283
asbag69
(g90
g71
NtRp476
(dp477
g74
(dp478
g101
g102
ssg83
g468
sg76
(lp479
S':'
asbag69
(g90
g71
NtRp480
(dp481
g74
(dp482
sg83
g468
sg76
(lp483
g69
(g70
g71
NtRp484
(dp485
g74
(dp486
g82
I3
ssg83
g480
sg76
(lp487
S''
asbasbasbag69
(g85
g71
NtRp488
(dp489
g74
(dp490
sg83
g464
sg76
(lp491
g69
(g90
g71
NtRp492
(dp493
g74
(dp494
g94
g95
ssg83
g488
sg76
(lp495
g304
asbag69
(g90
g71
NtRp496
(dp497
g74
(dp498
g101
g102
ssg83
g488
sg76
(lp499
S':'
asbag69
(g90
g71
NtRp500
(dp501
g74
(dp502
sg83
g488
sg76
(lp503
g69
(g70
g71
NtRp504
(dp505
g74
(dp506
g82
I3
ssg83
g500
sg76
(lp507
S''
asbasbasbag69
(g85
g71
NtRp508
(dp509
g74
(dp510
sg83
g464
sg76
(lp511
g69
(g90
g71
NtRp512
(dp513
g74
(dp514
g94
g95
ssg83
g508
sg76
(lp515
g325
asbag69
(g90
g71
NtRp516
(dp517
g74
(dp518
g101
g102
ssg83
g508
sg76
(lp519
S':'
asbag69
(g90
g71
NtRp520
(dp521
g74
(dp522
sg83
g508
sg76
(lp523
g69
(g70
g71
NtRp524
(dp525
g74
(dp526
g82
I3
ssg83
g520
sg76
(lp527
S''
asbasbasbag69
(g85
g71
NtRp528
(dp529
g74
(dp530
sg83
g464
sg76
(lp531
g69
(g90
g71
NtRp532
(dp533
g74
(dp534
g94
g95
ssg83
g528
sg76
(lp535
g346
asbag69
(g90
g71
NtRp536
(dp537
g74
(dp538
g101
g102
ssg83
g528
sg76
(lp539
S':'
asbag69
(g90
g71
NtRp540
(dp541
g74
(dp542
sg83
g528
sg76
(lp543
g69
(g70
g71
NtRp544
(dp545
g74
(dp546
g82
I3
ssg83
g540
sg76
(lp547
S''
asbasbasbag69
(g85
g71
NtRp548
(dp549
g74
(dp550
sg83
g464
sg76
(lp551
g69
(g90
g71
NtRp552
(dp553
g74
(dp554
g94
g95
ssg83
g548
sg76
(lp555
g367
asbag69
(g90
g71
NtRp556
(dp557
g74
(dp558
g101
g102
ssg83
g548
sg76
(lp559
S':'
asbag69
(g90
g71
NtRp560
(dp561
g74
(dp562
sg83
g548
sg76
(lp563
g69
(g70
g71
NtRp564
(dp565
g74
(dp566
g82
I3
ssg83
g560
sg76
(lp567
S''
asbasbasbag69
(g85
g71
NtRp568
(dp569
g74
(dp570
sg83
g464
sg76
(lp571
g69
(g90
g71
NtRp572
(dp573
g74
(dp574
g94
g95
ssg83
g568
sg76
(lp575
g388
asbag69
(g90
g71
NtRp576
(dp577
g74
(dp578
g101
g102
ssg83
g568
sg76
(lp579
S':'
asbag69
(g90
g71
NtRp580
(dp581
g74
(dp582
sg83
g568
sg76
(lp583
g69
(g70
g71
NtRp584
(dp585
g74
(dp586
g82
I3
ssg83
g580
sg76
(lp587
S''
asbasbasbag69
(g85
g71
NtRp588
(dp589
g74
(dp590
sg83
g464
sg76
(lp591
g69
(g90
g71
NtRp592
(dp593
g74
(dp594
g94
g95
ssg83
g588
sg76
(lp595
g409
asbag69
(g90
g71
NtRp596
(dp597
g74
(dp598
g101
g102
ssg83
g588
sg76
(lp599
S':'
asbag69
(g90
g71
NtRp600
(dp601
g74
(dp602
sg83
g588
sg76
(lp603
g69
(g70
g71
NtRp604
(dp605
g74
(dp606
g82
I3
ssg83
g600
sg76
(lp607
S''
asbasbasbag69
(g85
g71
NtRp608
(dp609
g74
(dp610
sg83
g464
sg76
(lp611
g69
(g90
g71
NtRp612
(dp613
g74
(dp614
g94
g95
ssg83
g608
sg76
(lp615
g430
asbag69
(g90
g71
NtRp616
(dp617
g74
(dp618
g101
g102
ssg83
g608
sg76
(lp619
S':'
asbag69
(g90
g71
NtRp620
(dp621
g74
(dp622
sg83
g608
sg76
(lp623
g69
(g70
g71
NtRp624
(dp625
g74
(dp626
g82
I3
ssg83
g620
sg76
(lp627
S''
asbasbasbasbasbasbasbag69
(g85
g71
NtRp628
(dp629
g74
(dp630
sg83
g246
sg76
(lp631
g69
(g90
g71
NtRp632
(dp633
g74
(dp634
g94
g95
ssg83
g628
sg76
(lp635
S'session_id_welcome'
p636
asbag69
(g90
g71
NtRp637
(dp638
g74
(dp639
g101
g102
ssg83
g628
sg76
(lp640
S':'
asbag69
(g90
g71
NtRp641
(dp642
g74
(dp643
sg83
g628
sg76
(lp644
g69
(g70
g71
NtRp645
(dp646
g74
(dp647
g82
I4
ssg83
g641
sg76
(lp648
g69
(g78
g71
NtRp649
(dp650
g74
(dp651
g82
I3
ssg83
Nsg76
(lp652
g69
(g85
g71
NtRp653
(dp654
g74
(dp655
sg83
g649
sg76
(lp656
g69
(g90
g71
NtRp657
(dp658
g74
(dp659
g94
g95
ssg83
g653
sg76
(lp660
g283
asbag69
(g90
g71
NtRp661
(dp662
g74
(dp663
g101
g102
ssg83
g653
sg76
(lp664
S':'
asbag69
(g90
g71
NtRp665
(dp666
g74
(dp667
sg83
g653
sg76
(lp668
g69
(g70
g71
NtRp669
(dp670
g74
(dp671
g82
I3
ssg83
g665
sg76
(lp672
S''
asbasbasbag69
(g85
g71
NtRp673
(dp674
g74
(dp675
sg83
g649
sg76
(lp676
g69
(g90
g71
NtRp677
(dp678
g74
(dp679
g94
g95
ssg83
g673
sg76
(lp680
g304
asbag69
(g90
g71
NtRp681
(dp682
g74
(dp683
g101
g102
ssg83
g673
sg76
(lp684
S':'
asbag69
(g90
g71
NtRp685
(dp686
g74
(dp687
sg83
g673
sg76
(lp688
g69
(g70
g71
NtRp689
(dp690
g74
(dp691
g82
I3
ssg83
g685
sg76
(lp692
S''
asbasbasbag69
(g85
g71
NtRp693
(dp694
g74
(dp695
sg83
g649
sg76
(lp696
g69
(g90
g71
NtRp697
(dp698
g74
(dp699
g94
g95
ssg83
g693
sg76
(lp700
g325
asbag69
(g90
g71
NtRp701
(dp702
g74
(dp703
g101
g102
ssg83
g693
sg76
(lp704
S':'
asbag69
(g90
g71
NtRp705
(dp706
g74
(dp707
sg83
g693
sg76
(lp708
g69
(g70
g71
NtRp709
(dp710
g74
(dp711
g82
I3
ssg83
g705
sg76
(lp712
S''
asbasbasbag69
(g85
g71
NtRp713
(dp714
g74
(dp715
sg83
g649
sg76
(lp716
g69
(g90
g71
NtRp717
(dp718
g74
(dp719
g94
g95
ssg83
g713
sg76
(lp720
g346
asbag69
(g90
g71
NtRp721
(dp722
g74
(dp723
g101
g102
ssg83
g713
sg76
(lp724
S':'
asbag69
(g90
g71
NtRp725
(dp726
g74
(dp727
sg83
g713
sg76
(lp728
g69
(g70
g71
NtRp729
(dp730
g74
(dp731
g82
I3
ssg83
g725
sg76
(lp732
S''
asbasbasbag69
(g85
g71
NtRp733
(dp734
g74
(dp735
sg83
g649
sg76
(lp736
g69
(g90
g71
NtRp737
(dp738
g74
(dp739
g94
g95
ssg83
g733
sg76
(lp740
g367
asbag69
(g90
g71
NtRp741
(dp742
g74
(dp743
g101
g102
ssg83
g733
sg76
(lp744
S':'
asbag69
(g90
g71
NtRp745
(dp746
g74
(dp747
sg83
g733
sg76
(lp748
g69
(g70
g71
NtRp749
(dp750
g74
(dp751
g82
I3
ssg83
g745
sg76
(lp752
S''
asbasbasbag69
(g85
g71
NtRp753
(dp754
g74
(dp755
sg83
g649
sg76
(lp756
g69
(g90
g71
NtRp757
(dp758
g74
(dp759
g94
g95
ssg83
g753
sg76
(lp760
g388
asbag69
(g90
g71
NtRp761
(dp762
g74
(dp763
g101
g102
ssg83
g753
sg76
(lp764
S':'
asbag69
(g90
g71
NtRp765
(dp766
g74
(dp767
sg83
g753
sg76
(lp768
g69
(g70
g71
NtRp769
(dp770
g74
(dp771
g82
I3
ssg83
g765
sg76
(lp772
S''
asbasbasbag69
(g85
g71
NtRp773
(dp774
g74
(dp775
sg83
g649
sg76
(lp776
g69
(g90
g71
NtRp777
(dp778
g74
(dp779
g94
g95
ssg83
g773
sg76
(lp780
g409
asbag69
(g90
g71
NtRp781
(dp782
g74
(dp783
g101
g102
ssg83
g773
sg76
(lp784
S':'
asbag69
(g90
g71
NtRp785
(dp786
g74
(dp787
sg83
g773
sg76
(lp788
g69
(g70
g71
NtRp789
(dp790
g74
(dp791
g82
I3
ssg83
g785
sg76
(lp792
S''
asbasbasbag69
(g85
g71
NtRp793
(dp794
g74
(dp795
sg83
g649
sg76
(lp796
g69
(g90
g71
NtRp797
(dp798
g74
(dp799
g94
g95
ssg83
g793
sg76
(lp800
g430
asbag69
(g90
g71
NtRp801
(dp802
g74
(dp803
g101
g102
ssg83
g793
sg76
(lp804
S':'
asbag69
(g90
g71
NtRp805
(dp806
g74
(dp807
sg83
g793
sg76
(lp808
g69
(g70
g71
NtRp809
(dp810
g74
(dp811
g82
I3
ssg83
g805
sg76
(lp812
S''
asbasbasbasbasbasbasbasbasbasbasbag69
(g85
g71
NtRp813
(dp814
g74
(dp815
sg83
g79
sg76
(lp816
g69
(g90
g71
NtRp817
(dp818
g74
(dp819
g94
g95
ssg83
g813
sg76
(lp820
S'env'
p821
asbag69
(g90
g71
NtRp822
(dp823
g74
(dp824
g101
g102
ssg83
g813
sg76
(lp825
S':'
asbag69
(g90
g71
NtRp826
(dp827
g74
(dp828
sg83
g813
sg76
(lp829
g69
(g70
g71
NtRp830
(dp831
g74
(dp832
g82
I5
ssg83
g826
sg76
(lp833
g69
(g78
g71
NtRp834
(dp835
g74
(dp836
g82
I4
ssg83
Nsg76
(lp837
g69
(g85
g71
NtRp838
(dp839
g74
(dp840
sg83
g834
sg76
(lp841
g69
(g90
g71
NtRp842
(dp843
g74
(dp844
g94
g95
ssg83
g838
sg76
(lp845
S'app_folders'
p846
asbag69
(g90
g71
NtRp847
(dp848
g74
(dp849
g101
g102
ssg83
g838
sg76
(lp850
S':'
asbag69
(g90
g71
NtRp851
(dp852
g74
(dp853
sg83
g838
sg76
(lp854
g69
(g70
g71
NtRp855
(dp856
g74
(dp857
g82
I4
ssg83
g851
sg76
(lp858
S"set(['/home/hduser/web2py/applications/admin/', '/home/hduser/web2py/applications/welcome/', '/home/hduser/web2py/applications/Hadoop/'])"
p859
asbasbasbag69
(g85
g71
NtRp860
(dp861
g74
(dp862
sg83
g834
sg76
(lp863
g69
(g90
g71
NtRp864
(dp865
g74
(dp866
g94
g95
ssg83
g860
sg76
(lp867
S'applications_parent'
p868
asbag69
(g90
g71
NtRp869
(dp870
g74
(dp871
g101
g102
ssg83
g860
sg76
(lp872
S':'
asbag69
(g90
g71
NtRp873
(dp874
g74
(dp875
sg83
g860
sg76
(lp876
g69
(g70
g71
NtRp877
(dp878
g74
(dp879
g82
I4
ssg83
g873
sg76
(lp880
S'/home/hduser/web2py'
p881
asbasbasbag69
(g85
g71
NtRp882
(dp883
g74
(dp884
sg83
g834
sg76
(lp885
g69
(g90
g71
NtRp886
(dp887
g74
(dp888
g94
g95
ssg83
g882
sg76
(lp889
S'cmd_args'
p890
asbag69
(g90
g71
NtRp891
(dp892
g74
(dp893
g101
g102
ssg83
g882
sg76
(lp894
S':'
asbag69
(g90
g71
NtRp895
(dp896
g74
(dp897
sg83
g882
sg76
(lp898
g69
(g70
g71
NtRp899
(dp900
g74
(dp901
g82
I4
ssg83
g895
sg76
(lp902
g69
(g78
g71
NtRp903
(dp904
g74
(dp905
g82
I3
ssg83
Nsg76
(lp906
sbasbasbasbag69
(g85
g71
NtRp907
(dp908
g74
(dp909
sg83
g834
sg76
(lp910
g69
(g90
g71
NtRp911
(dp912
g74
(dp913
g94
g95
ssg83
g907
sg76
(lp914
S'cmd_options'
p915
asbag69
(g90
g71
NtRp916
(dp917
g74
(dp918
g101
g102
ssg83
g907
sg76
(lp919
S':'
asbag69
(g90
g71
NtRp920
(dp921
g74
(dp922
sg83
g907
sg76
(lp923
g69
(g70
g71
NtRp924
(dp925
g74
(dp926
g82
I4
ssg83
g920
sg76
(lp927
S"<Values at 0x2e8d248: {'verbose': False, 'ip': '127.0.0.1', 'shutdown_timeout': 5, 'taskbar': False, 'port': 8000, 'maxthreads': None, 'softcron': False, 'server_name': 'Dell-XPS', 'bpython': False, 'nogui': False, 'nocron': False, 'extcron': False, 'debuglevel': 30, 'test': None, 'folder': '/home/hduser/web2py', 'config': '', 'import_models': False, 'winservice': '', 'shell': None, 'run': '', 'log_filename': 'httpserver.log', 'args': [''], 'socket_timeout': 1, 'profiler_filename': None, 'ssl_private_key': '', 'password': '<ask>', 'request_queue_size': 5, 'ssl_certificate': '', 'cronjob': False, 'plain': False, 'quiet': False, 'interfaces': None, 'minthreads': None, 'timeout': 10, 'numthreads': None, 'nobanner': False, 'pid_filename': 'httpserver.pid'}>"
p928
asbasbasbag69
(g85
g71
NtRp929
(dp930
g74
(dp931
sg83
g834
sg76
(lp932
g69
(g90
g71
NtRp933
(dp934
g74
(dp935
g94
g95
ssg83
g929
sg76
(lp936
S'content_length'
p937
asbag69
(g90
g71
NtRp938
(dp939
g74
(dp940
g101
g102
ssg83
g929
sg76
(lp941
S':'
asbag69
(g90
g71
NtRp942
(dp943
g74
(dp944
sg83
g929
sg76
(lp945
g69
(g70
g71
NtRp946
(dp947
g74
(dp948
g82
I4
ssg83
g942
sg76
(lp949
S'2294'
p950
asbasbasbag69
(g85
g71
NtRp951
(dp952
g74
(dp953
sg83
g834
sg76
(lp954
g69
(g90
g71
NtRp955
(dp956
g74
(dp957
g94
g95
ssg83
g951
sg76
(lp958
S'content_type'
p959
asbag69
(g90
g71
NtRp960
(dp961
g74
(dp962
g101
g102
ssg83
g951
sg76
(lp963
S':'
asbag69
(g90
g71
NtRp964
(dp965
g74
(dp966
sg83
g951
sg76
(lp967
g69
(g70
g71
NtRp968
(dp969
g74
(dp970
g82
I4
ssg83
g964
sg76
(lp971
S'multipart/form-data; boundary=----WebKitFormBoundaryqXpzw2UQ171xOKPt'
p972
asbasbasbag69
(g85
g71
NtRp973
(dp974
g74
(dp975
sg83
g834
sg76
(lp976
g69
(g90
g71
NtRp977
(dp978
g74
(dp979
g94
g95
ssg83
g973
sg76
(lp980
S'db_sessions'
p981
asbag69
(g90
g71
NtRp982
(dp983
g74
(dp984
g101
g102
ssg83
g973
sg76
(lp985
S':'
asbag69
(g90
g71
NtRp986
(dp987
g74
(dp988
sg83
g973
sg76
(lp989
g69
(g70
g71
NtRp990
(dp991
g74
(dp992
g82
I4
ssg83
g986
sg76
(lp993
S'set([])'
p994
asbasbasbag69
(g85
g71
NtRp995
(dp996
g74
(dp997
sg83
g834
sg76
(lp998
g69
(g90
g71
NtRp999
(dp1000
g74
(dp1001
g94
g95
ssg83
g995
sg76
(lp1002
S'debugging'
p1003
asbag69
(g90
g71
NtRp1004
(dp1005
g74
(dp1006
g101
g102
ssg83
g995
sg76
(lp1007
S':'
asbag69
(g90
g71
NtRp1008
(dp1009
g74
(dp1010
sg83
g995
sg76
(lp1011
g69
(g70
g71
NtRp1012
(dp1013
g74
(dp1014
g82
I4
ssg83
g1008
sg76
(lp1015
g112
asbasbasbag69
(g85
g71
NtRp1016
(dp1017
g74
(dp1018
sg83
g834
sg76
(lp1019
g69
(g90
g71
NtRp1020
(dp1021
g74
(dp1022
g94
g95
ssg83
g1016
sg76
(lp1023
S'gluon_parent'
p1024
asbag69
(g90
g71
NtRp1025
(dp1026
g74
(dp1027
g101
g102
ssg83
g1016
sg76
(lp1028
S':'
asbag69
(g90
g71
NtRp1029
(dp1030
g74
(dp1031
sg83
g1016
sg76
(lp1032
g69
(g70
g71
NtRp1033
(dp1034
g74
(dp1035
g82
I4
ssg83
g1029
sg76
(lp1036
S'/usr/share/web2py'
p1037
asbasbasbag69
(g85
g71
NtRp1038
(dp1039
g74
(dp1040
sg83
g834
sg76
(lp1041
g69
(g90
g71
NtRp1042
(dp1043
g74
(dp1044
g94
g95
ssg83
g1038
sg76
(lp1045
S'http_accept'
p1046
asbag69
(g90
g71
NtRp1047
(dp1048
g74
(dp1049
g101
g102
ssg83
g1038
sg76
(lp1050
S':'
asbag69
(g90
g71
NtRp1051
(dp1052
g74
(dp1053
sg83
g1038
sg76
(lp1054
g69
(g70
g71
NtRp1055
(dp1056
g74
(dp1057
g82
I4
ssg83
g1051
sg76
(lp1058
S'text/html,application/xhtml+xml,application/xml;q=0.9,image/webp,*/*;q=0.8'
p1059
asbasbasbag69
(g85
g71
NtRp1060
(dp1061
g74
(dp1062
sg83
g834
sg76
(lp1063
g69
(g90
g71
NtRp1064
(dp1065
g74
(dp1066
g94
g95
ssg83
g1060
sg76
(lp1067
S'http_accept_encoding'
p1068
asbag69
(g90
g71
NtRp1069
(dp1070
g74
(dp1071
g101
g102
ssg83
g1060
sg76
(lp1072
S':'
asbag69
(g90
g71
NtRp1073
(dp1074
g74
(dp1075
sg83
g1060
sg76
(lp1076
g69
(g70
g71
NtRp1077
(dp1078
g74
(dp1079
g82
I4
ssg83
g1073
sg76
(lp1080
S'gzip,deflate,sdch'
p1081
asbasbasbag69
(g85
g71
NtRp1082
(dp1083
g74
(dp1084
sg83
g834
sg76
(lp1085
g69
(g90
g71
NtRp1086
(dp1087
g74
(dp1088
g94
g95
ssg83
g1082
sg76
(lp1089
S'http_accept_language'
p1090
asbag69
(g90
g71
NtRp1091
(dp1092
g74
(dp1093
g101
g102
ssg83
g1082
sg76
(lp1094
S':'
asbag69
(g90
g71
NtRp1095
(dp1096
g74
(dp1097
sg83
g1082
sg76
(lp1098
g69
(g70
g71
NtRp1099
(dp1100
g74
(dp1101
g82
I4
ssg83
g1095
sg76
(lp1102
S'en-US,en;q=0.8'
p1103
asbasbasbag69
(g85
g71
NtRp1104
(dp1105
g74
(dp1106
sg83
g834
sg76
(lp1107
g69
(g90
g71
NtRp1108
(dp1109
g74
(dp1110
g94
g95
ssg83
g1104
sg76
(lp1111
S'http_cache_control'
p1112
asbag69
(g90
g71
NtRp1113
(dp1114
g74
(dp1115
g101
g102
ssg83
g1104
sg76
(lp1116
S':'
asbag69
(g90
g71
NtRp1117
(dp1118
g74
(dp1119
sg83
g1104
sg76
(lp1120
g69
(g70
g71
NtRp1121
(dp1122
g74
(dp1123
g82
I4
ssg83
g1117
sg76
(lp1124
S'max-age=0'
p1125
asbasbasbag69
(g85
g71
NtRp1126
(dp1127
g74
(dp1128
sg83
g834
sg76
(lp1129
g69
(g90
g71
NtRp1130
(dp1131
g74
(dp1132
g94
g95
ssg83
g1126
sg76
(lp1133
S'http_connection'
p1134
asbag69
(g90
g71
NtRp1135
(dp1136
g74
(dp1137
g101
g102
ssg83
g1126
sg76
(lp1138
S':'
asbag69
(g90
g71
NtRp1139
(dp1140
g74
(dp1141
sg83
g1126
sg76
(lp1142
g69
(g70
g71
NtRp1143
(dp1144
g74
(dp1145
g82
I4
ssg83
g1139
sg76
(lp1146
S'keep-alive'
p1147
asbasbasbag69
(g85
g71
NtRp1148
(dp1149
g74
(dp1150
sg83
g834
sg76
(lp1151
g69
(g90
g71
NtRp1152
(dp1153
g74
(dp1154
g94
g95
ssg83
g1148
sg76
(lp1155
S'http_content_length'
p1156
asbag69
(g90
g71
NtRp1157
(dp1158
g74
(dp1159
g101
g102
ssg83
g1148
sg76
(lp1160
S':'
asbag69
(g90
g71
NtRp1161
(dp1162
g74
(dp1163
sg83
g1148
sg76
(lp1164
g69
(g70
g71
NtRp1165
(dp1166
g74
(dp1167
g82
I4
ssg83
g1161
sg76
(lp1168
g950
asbasbasbag69
(g85
g71
NtRp1169
(dp1170
g74
(dp1171
sg83
g834
sg76
(lp1172
g69
(g90
g71
NtRp1173
(dp1174
g74
(dp1175
g94
g95
ssg83
g1169
sg76
(lp1176
S'http_content_type'
p1177
asbag69
(g90
g71
NtRp1178
(dp1179
g74
(dp1180
g101
g102
ssg83
g1169
sg76
(lp1181
S':'
asbag69
(g90
g71
NtRp1182
(dp1183
g74
(dp1184
sg83
g1169
sg76
(lp1185
g69
(g70
g71
NtRp1186
(dp1187
g74
(dp1188
g82
I4
ssg83
g1182
sg76
(lp1189
g972
asbasbasbag69
(g85
g71
NtRp1190
(dp1191
g74
(dp1192
sg83
g834
sg76
(lp1193
g69
(g90
g71
NtRp1194
(dp1195
g74
(dp1196
g94
g95
ssg83
g1190
sg76
(lp1197
S'http_cookie'
p1198
asbag69
(g90
g71
NtRp1199
(dp1200
g74
(dp1201
g101
g102
ssg83
g1190
sg76
(lp1202
S':'
asbag69
(g90
g71
NtRp1203
(dp1204
g74
(dp1205
sg83
g1190
sg76
(lp1206
g69
(g70
g71
NtRp1207
(dp1208
g74
(dp1209
g82
I4
ssg83
g1203
sg76
(lp1210
S'session_id_welcome=127.0.0.1-5d87ef9d-b4fa-4532-a34c-32c1249b5d30; session_id_admin=127.0.0.1-9af3c6e4-8780-4074-bd21-c5c12c89ebf4; session_id_hadoop=127.0.0.1-f44bac3a-f56d-40a6-b99f-3e1b3d4d7ce1'
p1211
asbasbasbag69
(g85
g71
NtRp1212
(dp1213
g74
(dp1214
sg83
g834
sg76
(lp1215
g69
(g90
g71
NtRp1216
(dp1217
g74
(dp1218
g94
g95
ssg83
g1212
sg76
(lp1219
S'http_host'
p1220
asbag69
(g90
g71
NtRp1221
(dp1222
g74
(dp1223
g101
g102
ssg83
g1212
sg76
(lp1224
S':'
asbag69
(g90
g71
NtRp1225
(dp1226
g74
(dp1227
sg83
g1212
sg76
(lp1228
g69
(g70
g71
NtRp1229
(dp1230
g74
(dp1231
g82
I4
ssg83
g1225
sg76
(lp1232
S'127.0.0.1:8000'
p1233
asbasbasbag69
(g85
g71
NtRp1234
(dp1235
g74
(dp1236
sg83
g834
sg76
(lp1237
g69
(g90
g71
NtRp1238
(dp1239
g74
(dp1240
g94
g95
ssg83
g1234
sg76
(lp1241
S'http_origin'
p1242
asbag69
(g90
g71
NtRp1243
(dp1244
g74
(dp1245
g101
g102
ssg83
g1234
sg76
(lp1246
S':'
asbag69
(g90
g71
NtRp1247
(dp1248
g74
(dp1249
sg83
g1234
sg76
(lp1250
g69
(g70
g71
NtRp1251
(dp1252
g74
(dp1253
g82
I4
ssg83
g1247
sg76
(lp1254
S'http://127.0.0.1:8000'
p1255
asbasbasbag69
(g85
g71
NtRp1256
(dp1257
g74
(dp1258
sg83
g834
sg76
(lp1259
g69
(g90
g71
NtRp1260
(dp1261
g74
(dp1262
g94
g95
ssg83
g1256
sg76
(lp1263
S'http_referer'
p1264
asbag69
(g90
g71
NtRp1265
(dp1266
g74
(dp1267
g101
g102
ssg83
g1256
sg76
(lp1268
S':'
asbag69
(g90
g71
NtRp1269
(dp1270
g74
(dp1271
sg83
g1256
sg76
(lp1272
g69
(g70
g71
NtRp1273
(dp1274
g74
(dp1275
g82
I4
ssg83
g1269
sg76
(lp1276
S'http://127.0.0.1:8000/Hadoop/default/main'
p1277
asbasbasbag69
(g85
g71
NtRp1278
(dp1279
g74
(dp1280
sg83
g834
sg76
(lp1281
g69
(g90
g71
NtRp1282
(dp1283
g74
(dp1284
g94
g95
ssg83
g1278
sg76
(lp1285
S'http_user_agent'
p1286
asbag69
(g90
g71
NtRp1287
(dp1288
g74
(dp1289
g101
g102
ssg83
g1278
sg76
(lp1290
S':'
asbag69
(g90
g71
NtRp1291
(dp1292
g74
(dp1293
sg83
g1278
sg76
(lp1294
g69
(g70
g71
NtRp1295
(dp1296
g74
(dp1297
g82
I4
ssg83
g1291
sg76
(lp1298
S'Mozilla/5.0 (X11; Linux x86_64) AppleWebKit/537.36 (KHTML, like Gecko) Chrome/32.0.1700.77 Safari/537.36'
p1299
asbasbasbag69
(g85
g71
NtRp1300
(dp1301
g74
(dp1302
sg83
g834
sg76
(lp1303
g69
(g90
g71
NtRp1304
(dp1305
g74
(dp1306
g94
g95
ssg83
g1300
sg76
(lp1307
S'is_jython'
p1308
asbag69
(g90
g71
NtRp1309
(dp1310
g74
(dp1311
g101
g102
ssg83
g1300
sg76
(lp1312
S':'
asbag69
(g90
g71
NtRp1313
(dp1314
g74
(dp1315
sg83
g1300
sg76
(lp1316
g69
(g70
g71
NtRp1317
(dp1318
g74
(dp1319
g82
I4
ssg83
g1313
sg76
(lp1320
g112
asbasbasbag69
(g85
g71
NtRp1321
(dp1322
g74
(dp1323
sg83
g834
sg76
(lp1324
g69
(g90
g71
NtRp1325
(dp1326
g74
(dp1327
g94
g95
ssg83
g1321
sg76
(lp1328
S'is_pypy'
p1329
asbag69
(g90
g71
NtRp1330
(dp1331
g74
(dp1332
g101
g102
ssg83
g1321
sg76
(lp1333
S':'
asbag69
(g90
g71
NtRp1334
(dp1335
g74
(dp1336
sg83
g1321
sg76
(lp1337
g69
(g70
g71
NtRp1338
(dp1339
g74
(dp1340
g82
I4
ssg83
g1334
sg76
(lp1341
g112
asbasbasbag69
(g85
g71
NtRp1342
(dp1343
g74
(dp1344
sg83
g834
sg76
(lp1345
g69
(g90
g71
NtRp1346
(dp1347
g74
(dp1348
g94
g95
ssg83
g1342
sg76
(lp1349
S'path_info'
p1350
asbag69
(g90
g71
NtRp1351
(dp1352
g74
(dp1353
g101
g102
ssg83
g1342
sg76
(lp1354
S':'
asbag69
(g90
g71
NtRp1355
(dp1356
g74
(dp1357
sg83
g1342
sg76
(lp1358
g69
(g70
g71
NtRp1359
(dp1360
g74
(dp1361
g82
I4
ssg83
g1355
sg76
(lp1362
S'/Hadoop/default/action'
p1363
asbasbasbag69
(g85
g71
NtRp1364
(dp1365
g74
(dp1366
sg83
g834
sg76
(lp1367
g69
(g90
g71
NtRp1368
(dp1369
g74
(dp1370
g94
g95
ssg83
g1364
sg76
(lp1371
S'query_string'
p1372
asbag69
(g90
g71
NtRp1373
(dp1374
g74
(dp1375
g101
g102
ssg83
g1364
sg76
(lp1376
S':'
asbag69
(g90
g71
NtRp1377
(dp1378
g74
(dp1379
sg83
g1364
sg76
(lp1380
g69
(g70
g71
NtRp1381
(dp1382
g74
(dp1383
g82
I4
ssg83
g1377
sg76
(lp1384
S''
asbasbasbag69
(g85
g71
NtRp1385
(dp1386
g74
(dp1387
sg83
g834
sg76
(lp1388
g69
(g90
g71
NtRp1389
(dp1390
g74
(dp1391
g94
g95
ssg83
g1385
sg76
(lp1392
S'remote_addr'
p1393
asbag69
(g90
g71
NtRp1394
(dp1395
g74
(dp1396
g101
g102
ssg83
g1385
sg76
(lp1397
S':'
asbag69
(g90
g71
NtRp1398
(dp1399
g74
(dp1400
sg83
g1385
sg76
(lp1401
g69
(g70
g71
NtRp1402
(dp1403
g74
(dp1404
g82
I4
ssg83
g1398
sg76
(lp1405
g202
asbasbasbag69
(g85
g71
NtRp1406
(dp1407
g74
(dp1408
sg83
g834
sg76
(lp1409
g69
(g90
g71
NtRp1410
(dp1411
g74
(dp1412
g94
g95
ssg83
g1406
sg76
(lp1413
S'remote_port'
p1414
asbag69
(g90
g71
NtRp1415
(dp1416
g74
(dp1417
g101
g102
ssg83
g1406
sg76
(lp1418
S':'
asbag69
(g90
g71
NtRp1419
(dp1420
g74
(dp1421
sg83
g1406
sg76
(lp1422
g69
(g70
g71
NtRp1423
(dp1424
g74
(dp1425
g82
I4
ssg83
g1419
sg76
(lp1426
S'40098'
p1427
asbasbasbag69
(g85
g71
NtRp1428
(dp1429
g74
(dp1430
sg83
g834
sg76
(lp1431
g69
(g90
g71
NtRp1432
(dp1433
g74
(dp1434
g94
g95
ssg83
g1428
sg76
(lp1435
S'request_method'
p1436
asbag69
(g90
g71
NtRp1437
(dp1438
g74
(dp1439
g101
g102
ssg83
g1428
sg76
(lp1440
S':'
asbag69
(g90
g71
NtRp1441
(dp1442
g74
(dp1443
sg83
g1428
sg76
(lp1444
g69
(g70
g71
NtRp1445
(dp1446
g74
(dp1447
g82
I4
ssg83
g1441
sg76
(lp1448
S'POST'
p1449
asbasbasbag69
(g85
g71
NtRp1450
(dp1451
g74
(dp1452
sg83
g834
sg76
(lp1453
g69
(g90
g71
NtRp1454
(dp1455
g74
(dp1456
g94
g95
ssg83
g1450
sg76
(lp1457
S'script_name'
p1458
asbag69
(g90
g71
NtRp1459
(dp1460
g74
(dp1461
g101
g102
ssg83
g1450
sg76
(lp1462
S':'
asbag69
(g90
g71
NtRp1463
(dp1464
g74
(dp1465
sg83
g1450
sg76
(lp1466
g69
(g70
g71
NtRp1467
(dp1468
g74
(dp1469
g82
I4
ssg83
g1463
sg76
(lp1470
S''
asbasbasbag69
(g85
g71
NtRp1471
(dp1472
g74
(dp1473
sg83
g834
sg76
(lp1474
g69
(g90
g71
NtRp1475
(dp1476
g74
(dp1477
g94
g95
ssg83
g1471
sg76
(lp1478
S'server_name'
p1479
asbag69
(g90
g71
NtRp1480
(dp1481
g74
(dp1482
g101
g102
ssg83
g1471
sg76
(lp1483
S':'
asbag69
(g90
g71
NtRp1484
(dp1485
g74
(dp1486
sg83
g1471
sg76
(lp1487
g69
(g70
g71
NtRp1488
(dp1489
g74
(dp1490
g82
I4
ssg83
g1484
sg76
(lp1491
S'Dell-XPS'
p1492
asbasbasbag69
(g85
g71
NtRp1493
(dp1494
g74
(dp1495
sg83
g834
sg76
(lp1496
g69
(g90
g71
NtRp1497
(dp1498
g74
(dp1499
g94
g95
ssg83
g1493
sg76
(lp1500
S'server_port'
p1501
asbag69
(g90
g71
NtRp1502
(dp1503
g74
(dp1504
g101
g102
ssg83
g1493
sg76
(lp1505
S':'
asbag69
(g90
g71
NtRp1506
(dp1507
g74
(dp1508
sg83
g1493
sg76
(lp1509
g69
(g70
g71
NtRp1510
(dp1511
g74
(dp1512
g82
I4
ssg83
g1506
sg76
(lp1513
S'8000'
p1514
asbasbasbag69
(g85
g71
NtRp1515
(dp1516
g74
(dp1517
sg83
g834
sg76
(lp1518
g69
(g90
g71
NtRp1519
(dp1520
g74
(dp1521
g94
g95
ssg83
g1515
sg76
(lp1522
S'server_protocol'
p1523
asbag69
(g90
g71
NtRp1524
(dp1525
g74
(dp1526
g101
g102
ssg83
g1515
sg76
(lp1527
S':'
asbag69
(g90
g71
NtRp1528
(dp1529
g74
(dp1530
sg83
g1515
sg76
(lp1531
g69
(g70
g71
NtRp1532
(dp1533
g74
(dp1534
g82
I4
ssg83
g1528
sg76
(lp1535
S'HTTP/1.1'
p1536
asbasbasbag69
(g85
g71
NtRp1537
(dp1538
g74
(dp1539
sg83
g834
sg76
(lp1540
g69
(g90
g71
NtRp1541
(dp1542
g74
(dp1543
g94
g95
ssg83
g1537
sg76
(lp1544
S'server_software'
p1545
asbag69
(g90
g71
NtRp1546
(dp1547
g74
(dp1548
g101
g102
ssg83
g1537
sg76
(lp1549
S':'
asbag69
(g90
g71
NtRp1550
(dp1551
g74
(dp1552
sg83
g1537
sg76
(lp1553
g69
(g70
g71
NtRp1554
(dp1555
g74
(dp1556
g82
I4
ssg83
g1550
sg76
(lp1557
S'Rocket 1.2.4'
p1558
asbasbasbag69
(g85
g71
NtRp1559
(dp1560
g74
(dp1561
sg83
g834
sg76
(lp1562
g69
(g90
g71
NtRp1563
(dp1564
g74
(dp1565
g94
g95
ssg83
g1559
sg76
(lp1566
S'web2py_crontype'
p1567
asbag69
(g90
g71
NtRp1568
(dp1569
g74
(dp1570
g101
g102
ssg83
g1559
sg76
(lp1571
S':'
asbag69
(g90
g71
NtRp1572
(dp1573
g74
(dp1574
sg83
g1559
sg76
(lp1575
g69
(g70
g71
NtRp1576
(dp1577
g74
(dp1578
g82
I4
ssg83
g1572
sg76
(lp1579
S'hard'
p1580
asbasbasbag69
(g85
g71
NtRp1581
(dp1582
g74
(dp1583
sg83
g834
sg76
(lp1584
g69
(g90
g71
NtRp1585
(dp1586
g74
(dp1587
g94
g95
ssg83
g1581
sg76
(lp1588
S'web2py_path'
p1589
asbag69
(g90
g71
NtRp1590
(dp1591
g74
(dp1592
g101
g102
ssg83
g1581
sg76
(lp1593
S':'
asbag69
(g90
g71
NtRp1594
(dp1595
g74
(dp1596
sg83
g1581
sg76
(lp1597
g69
(g70
g71
NtRp1598
(dp1599
g74
(dp1600
g82
I4
ssg83
g1594
sg76
(lp1601
g881
asbasbasbag69
(g85
g71
NtRp1602
(dp1603
g74
(dp1604
sg83
g834
sg76
(lp1605
g69
(g90
g71
NtRp1606
(dp1607
g74
(dp1608
g94
g95
ssg83
g1602
sg76
(lp1609
S'web2py_version'
p1610
asbag69
(g90
g71
NtRp1611
(dp1612
g74
(dp1613
g101
g102
ssg83
g1602
sg76
(lp1614
S':'
asbag69
(g90
g71
NtRp1615
(dp1616
g74
(dp1617
sg83
g1602
sg76
(lp1618
g69
(g70
g71
NtRp1619
(dp1620
g74
(dp1621
g82
I4
ssg83
g1615
sg76
(lp1622
g69
(g78
g71
NtRp1623
(dp1624
g74
(dp1625
g82
I3
ssg83
Nsg76
(lp1626
g69
(g85
g71
NtRp1627
(dp1628
g74
(dp1629
sg83
g1623
sg76
(lp1630
g69
(g90
g71
NtRp1631
(dp1632
g74
(dp1633
sg83
g1627
sg76
(lp1634
g69
(g70
g71
NtRp1635
(dp1636
g74
(dp1637
g82
I3
ssg83
g1631
sg76
(lp1638
S'1'
asbasbasbag69
(g85
g71
NtRp1639
(dp1640
g74
(dp1641
sg83
g1623
sg76
(lp1642
g69
(g90
g71
NtRp1643
(dp1644
g74
(dp1645
sg83
g1639
sg76
(lp1646
g69
(g70
g71
NtRp1647
(dp1648
g74
(dp1649
g82
I3
ssg83
g1643
sg76
(lp1650
S'99'
p1651
asbasbasbag69
(g85
g71
NtRp1652
(dp1653
g74
(dp1654
sg83
g1623
sg76
(lp1655
g69
(g90
g71
NtRp1656
(dp1657
g74
(dp1658
sg83
g1652
sg76
(lp1659
g69
(g70
g71
NtRp1660
(dp1661
g74
(dp1662
g82
I3
ssg83
g1656
sg76
(lp1663
S'4'
asbasbasbag69
(g85
g71
NtRp1664
(dp1665
g74
(dp1666
sg83
g1623
sg76
(lp1667
g69
(g90
g71
NtRp1668
(dp1669
g74
(dp1670
sg83
g1664
sg76
(lp1671
g69
(g70
g71
NtRp1672
(dp1673
g74
(dp1674
g82
I3
ssg83
g1668
sg76
(lp1675
S'datetime.datetime(2011, 12, 14, 14, 46, 14)'
p1676
asbasbasbag69
(g85
g71
NtRp1677
(dp1678
g74
(dp1679
sg83
g1623
sg76
(lp1680
g69
(g90
g71
NtRp1681
(dp1682
g74
(dp1683
sg83
g1677
sg76
(lp1684
g69
(g70
g71
NtRp1685
(dp1686
g74
(dp1687
g82
I3
ssg83
g1681
sg76
(lp1688
S'stable'
p1689
asbasbasbasbasbasbasbag69
(g85
g71
NtRp1690
(dp1691
g74
(dp1692
sg83
g834
sg76
(lp1693
g69
(g90
g71
NtRp1694
(dp1695
g74
(dp1696
g94
g95
ssg83
g1690
sg76
(lp1697
S'wsgi_errors'
p1698
asbag69
(g90
g71
NtRp1699
(dp1700
g74
(dp1701
g101
g102
ssg83
g1690
sg76
(lp1702
S':'
asbag69
(g90
g71
NtRp1703
(dp1704
g74
(dp1705
sg83
g1690
sg76
(lp1706
g69
(g70
g71
NtRp1707
(dp1708
g74
(dp1709
g82
I4
ssg83
g1703
sg76
(lp1710
S"<open file '<stderr>', mode 'w' at 0x7f69da6a1270>"
p1711
asbasbasbag69
(g85
g71
NtRp1712
(dp1713
g74
(dp1714
sg83
g834
sg76
(lp1715
g69
(g90
g71
NtRp1716
(dp1717
g74
(dp1718
g94
g95
ssg83
g1712
sg76
(lp1719
S'wsgi_file_wrapper'
p1720
asbag69
(g90
g71
NtRp1721
(dp1722
g74
(dp1723
g101
g102
ssg83
g1712
sg76
(lp1724
S':'
asbag69
(g90
g71
NtRp1725
(dp1726
g74
(dp1727
sg83
g1712
sg76
(lp1728
g69
(g70
g71
NtRp1729
(dp1730
g74
(dp1731
g82
I4
ssg83
g1725
sg76
(lp1732
S'<class wsgiref.util.FileWrapper at 0x2dd3258>'
p1733
asbasbasbag69
(g85
g71
NtRp1734
(dp1735
g74
(dp1736
sg83
g834
sg76
(lp1737
g69
(g90
g71
NtRp1738
(dp1739
g74
(dp1740
g94
g95
ssg83
g1734
sg76
(lp1741
S'wsgi_input'
p1742
asbag69
(g90
g71
NtRp1743
(dp1744
g74
(dp1745
g101
g102
ssg83
g1734
sg76
(lp1746
S':'
asbag69
(g90
g71
NtRp1747
(dp1748
g74
(dp1749
sg83
g1734
sg76
(lp1750
g69
(g70
g71
NtRp1751
(dp1752
g74
(dp1753
g82
I4
ssg83
g1747
sg76
(lp1754
S'<socket._fileobject object at 0x7f698832c7d0>'
p1755
asbasbasbag69
(g85
g71
NtRp1756
(dp1757
g74
(dp1758
sg83
g834
sg76
(lp1759
g69
(g90
g71
NtRp1760
(dp1761
g74
(dp1762
g94
g95
ssg83
g1756
sg76
(lp1763
S'wsgi_multiprocess'
p1764
asbag69
(g90
g71
NtRp1765
(dp1766
g74
(dp1767
g101
g102
ssg83
g1756
sg76
(lp1768
S':'
asbag69
(g90
g71
NtRp1769
(dp1770
g74
(dp1771
sg83
g1756
sg76
(lp1772
g69
(g70
g71
NtRp1773
(dp1774
g74
(dp1775
g82
I4
ssg83
g1769
sg76
(lp1776
g112
asbasbasbag69
(g85
g71
NtRp1777
(dp1778
g74
(dp1779
sg83
g834
sg76
(lp1780
g69
(g90
g71
NtRp1781
(dp1782
g74
(dp1783
g94
g95
ssg83
g1777
sg76
(lp1784
S'wsgi_multithread'
p1785
asbag69
(g90
g71
NtRp1786
(dp1787
g74
(dp1788
g101
g102
ssg83
g1777
sg76
(lp1789
S':'
asbag69
(g90
g71
NtRp1790
(dp1791
g74
(dp1792
sg83
g1777
sg76
(lp1793
g69
(g70
g71
NtRp1794
(dp1795
g74
(dp1796
g82
I4
ssg83
g1790
sg76
(lp1797
S'True'
p1798
asbasbasbag69
(g85
g71
NtRp1799
(dp1800
g74
(dp1801
sg83
g834
sg76
(lp1802
g69
(g90
g71
NtRp1803
(dp1804
g74
(dp1805
g94
g95
ssg83
g1799
sg76
(lp1806
S'wsgi_run_once'
p1807
asbag69
(g90
g71
NtRp1808
(dp1809
g74
(dp1810
g101
g102
ssg83
g1799
sg76
(lp1811
S':'
asbag69
(g90
g71
NtRp1812
(dp1813
g74
(dp1814
sg83
g1799
sg76
(lp1815
g69
(g70
g71
NtRp1816
(dp1817
g74
(dp1818
g82
I4
ssg83
g1812
sg76
(lp1819
g112
asbasbasbag69
(g85
g71
NtRp1820
(dp1821
g74
(dp1822
sg83
g834
sg76
(lp1823
g69
(g90
g71
NtRp1824
(dp1825
g74
(dp1826
g94
g95
ssg83
g1820
sg76
(lp1827
S'wsgi_url_scheme'
p1828
asbag69
(g90
g71
NtRp1829
(dp1830
g74
(dp1831
g101
g102
ssg83
g1820
sg76
(lp1832
S':'
asbag69
(g90
g71
NtRp1833
(dp1834
g74
(dp1835
sg83
g1820
sg76
(lp1836
g69
(g70
g71
NtRp1837
(dp1838
g74
(dp1839
g82
I4
ssg83
g1833
sg76
(lp1840
S'http'
p1841
asbasbasbag69
(g85
g71
NtRp1842
(dp1843
g74
(dp1844
sg83
g834
sg76
(lp1845
g69
(g90
g71
NtRp1846
(dp1847
g74
(dp1848
g94
g95
ssg83
g1842
sg76
(lp1849
S'wsgi_version'
p1850
asbag69
(g90
g71
NtRp1851
(dp1852
g74
(dp1853
g101
g102
ssg83
g1842
sg76
(lp1854
S':'
asbag69
(g90
g71
NtRp1855
(dp1856
g74
(dp1857
sg83
g1842
sg76
(lp1858
g69
(g70
g71
NtRp1859
(dp1860
g74
(dp1861
g82
I4
ssg83
g1855
sg76
(lp1862
g69
(g78
g71
NtRp1863
(dp1864
g74
(dp1865
g82
I3
ssg83
Nsg76
(lp1866
g69
(g85
g71
NtRp1867
(dp1868
g74
(dp1869
sg83
g1863
sg76
(lp1870
g69
(g90
g71
NtRp1871
(dp1872
g74
(dp1873
sg83
g1867
sg76
(lp1874
g69
(g70
g71
NtRp1875
(dp1876
g74
(dp1877
g82
I3
ssg83
g1871
sg76
(lp1878
S'1'
asbasbasbag69
(g85
g71
NtRp1879
(dp1880
g74
(dp1881
sg83
g1863
sg76
(lp1882
g69
(g90
g71
NtRp1883
(dp1884
g74
(dp1885
sg83
g1879
sg76
(lp1886
g69
(g70
g71
NtRp1887
(dp1888
g74
(dp1889
g82
I3
ssg83
g1883
sg76
(lp1890
S'0'
asbasbasbasbasbasbasbasbasbasbasbag69
(g85
g71
NtRp1891
(dp1892
g74
(dp1893
sg83
g79
sg76
(lp1894
g69
(g90
g71
NtRp1895
(dp1896
g74
(dp1897
g94
g95
ssg83
g1891
sg76
(lp1898
S'extension'
p1899
asbag69
(g90
g71
NtRp1900
(dp1901
g74
(dp1902
g101
g102
ssg83
g1891
sg76
(lp1903
S':'
asbag69
(g90
g71
NtRp1904
(dp1905
g74
(dp1906
sg83
g1891
sg76
(lp1907
g69
(g70
g71
NtRp1908
(dp1909
g74
(dp1910
g82
I5
ssg83
g1904
sg76
(lp1911
S'html'
p1912
asbasbasbag69
(g85
g71
NtRp1913
(dp1914
g74
(dp1915
sg83
g79
sg76
(lp1916
g69
(g90
g71
NtRp1917
(dp1918
g74
(dp1919
g94
g95
ssg83
g1913
sg76
(lp1920
S'folder'
p1921
asbag69
(g90
g71
NtRp1922
(dp1923
g74
(dp1924
g101
g102
ssg83
g1913
sg76
(lp1925
S':'
asbag69
(g90
g71
NtRp1926
(dp1927
g74
(dp1928
sg83
g1913
sg76
(lp1929
g69
(g70
g71
NtRp1930
(dp1931
g74
(dp1932
g82
I5
ssg83
g1926
sg76
(lp1933
S'/home/hduser/web2py/applications/Hadoop/'
p1934
asbasbasbag69
(g85
g71
NtRp1935
(dp1936
g74
(dp1937
sg83
g79
sg76
(lp1938
g69
(g90
g71
NtRp1939
(dp1940
g74
(dp1941
g94
g95
ssg83
g1935
sg76
(lp1942
S'function'
p1943
asbag69
(g90
g71
NtRp1944
(dp1945
g74
(dp1946
g101
g102
ssg83
g1935
sg76
(lp1947
S':'
asbag69
(g90
g71
NtRp1948
(dp1949
g74
(dp1950
sg83
g1935
sg76
(lp1951
g69
(g70
g71
NtRp1952
(dp1953
g74
(dp1954
g82
I5
ssg83
g1948
sg76
(lp1955
S'action'
p1956
asbasbasbag69
(g85
g71
NtRp1957
(dp1958
g74
(dp1959
sg83
g79
sg76
(lp1960
g69
(g90
g71
NtRp1961
(dp1962
g74
(dp1963
g94
g95
ssg83
g1957
sg76
(lp1964
S'get_vars'
p1965
asbag69
(g90
g71
NtRp1966
(dp1967
g74
(dp1968
g101
g102
ssg83
g1957
sg76
(lp1969
S':'
asbag69
(g90
g71
NtRp1970
(dp1971
g74
(dp1972
sg83
g1957
sg76
(lp1973
g69
(g70
g71
NtRp1974
(dp1975
g74
(dp1976
g82
I5
ssg83
g1970
sg76
(lp1977
g69
(g78
g71
NtRp1978
(dp1979
g74
(dp1980
g82
I4
ssg83
Nsg76
(lp1981
sbasbasbasbag69
(g85
g71
NtRp1982
(dp1983
g74
(dp1984
sg83
g79
sg76
(lp1985
g69
(g90
g71
NtRp1986
(dp1987
g74
(dp1988
g94
g95
ssg83
g1982
sg76
(lp1989
S'global_settings'
p1990
asbag69
(g90
g71
NtRp1991
(dp1992
g74
(dp1993
g101
g102
ssg83
g1982
sg76
(lp1994
S':'
asbag69
(g90
g71
NtRp1995
(dp1996
g74
(dp1997
sg83
g1982
sg76
(lp1998
g69
(g70
g71
NtRp1999
(dp2000
g74
(dp2001
g82
I5
ssg83
g1995
sg76
(lp2002
g69
(g78
g71
NtRp2003
(dp2004
g74
(dp2005
g82
I4
ssg83
Nsg76
(lp2006
g69
(g85
g71
NtRp2007
(dp2008
g74
(dp2009
sg83
g2003
sg76
(lp2010
g69
(g90
g71
NtRp2011
(dp2012
g74
(dp2013
g94
g95
ssg83
g2007
sg76
(lp2014
g846
asbag69
(g90
g71
NtRp2015
(dp2016
g74
(dp2017
g101
g102
ssg83
g2007
sg76
(lp2018
S':'
asbag69
(g90
g71
NtRp2019
(dp2020
g74
(dp2021
sg83
g2007
sg76
(lp2022
g69
(g70
g71
NtRp2023
(dp2024
g74
(dp2025
g82
I4
ssg83
g2019
sg76
(lp2026
S"set(['/home/hduser/web2py/applications/admin/', '/home/hduser/web2py/applications/welcome/', '/home/hduser/web2py/applications/Hadoop/'])"
p2027
asbasbasbag69
(g85
g71
NtRp2028
(dp2029
g74
(dp2030
sg83
g2003
sg76
(lp2031
g69
(g90
g71
NtRp2032
(dp2033
g74
(dp2034
g94
g95
ssg83
g2028
sg76
(lp2035
g868
asbag69
(g90
g71
NtRp2036
(dp2037
g74
(dp2038
g101
g102
ssg83
g2028
sg76
(lp2039
S':'
asbag69
(g90
g71
NtRp2040
(dp2041
g74
(dp2042
sg83
g2028
sg76
(lp2043
g69
(g70
g71
NtRp2044
(dp2045
g74
(dp2046
g82
I4
ssg83
g2040
sg76
(lp2047
g881
asbasbasbag69
(g85
g71
NtRp2048
(dp2049
g74
(dp2050
sg83
g2003
sg76
(lp2051
g69
(g90
g71
NtRp2052
(dp2053
g74
(dp2054
g94
g95
ssg83
g2048
sg76
(lp2055
g890
asbag69
(g90
g71
NtRp2056
(dp2057
g74
(dp2058
g101
g102
ssg83
g2048
sg76
(lp2059
S':'
asbag69
(g90
g71
NtRp2060
(dp2061
g74
(dp2062
sg83
g2048
sg76
(lp2063
g69
(g70
g71
NtRp2064
(dp2065
g74
(dp2066
g82
I4
ssg83
g2060
sg76
(lp2067
g69
(g78
g71
NtRp2068
(dp2069
g74
(dp2070
g82
I3
ssg83
Nsg76
(lp2071
sbasbasbasbag69
(g85
g71
NtRp2072
(dp2073
g74
(dp2074
sg83
g2003
sg76
(lp2075
g69
(g90
g71
NtRp2076
(dp2077
g74
(dp2078
g94
g95
ssg83
g2072
sg76
(lp2079
g915
asbag69
(g90
g71
NtRp2080
(dp2081
g74
(dp2082
g101
g102
ssg83
g2072
sg76
(lp2083
S':'
asbag69
(g90
g71
NtRp2084
(dp2085
g74
(dp2086
sg83
g2072
sg76
(lp2087
g69
(g70
g71
NtRp2088
(dp2089
g74
(dp2090
g82
I4
ssg83
g2084
sg76
(lp2091
S"<Values at 0x2e8d248: {'verbose': False, 'ip': '127.0.0.1', 'shutdown_timeout': 5, 'taskbar': False, 'port': 8000, 'maxthreads': None, 'softcron': False, 'server_name': 'Dell-XPS', 'bpython': False, 'nogui': False, 'nocron': False, 'extcron': False, 'debuglevel': 30, 'test': None, 'folder': '/home/hduser/web2py', 'config': '', 'import_models': False, 'winservice': '', 'shell': None, 'run': '', 'log_filename': 'httpserver.log', 'args': [''], 'socket_timeout': 1, 'profiler_filename': None, 'ssl_private_key': '', 'password': '<ask>', 'request_queue_size': 5, 'ssl_certificate': '', 'cronjob': False, 'plain': False, 'quiet': False, 'interfaces': None, 'minthreads': None, 'timeout': 10, 'numthreads': None, 'nobanner': False, 'pid_filename': 'httpserver.pid'}>"
p2092
asbasbasbag69
(g85
g71
NtRp2093
(dp2094
g74
(dp2095
sg83
g2003
sg76
(lp2096
g69
(g90
g71
NtRp2097
(dp2098
g74
(dp2099
g94
g95
ssg83
g2093
sg76
(lp2100
g981
asbag69
(g90
g71
NtRp2101
(dp2102
g74
(dp2103
g101
g102
ssg83
g2093
sg76
(lp2104
S':'
asbag69
(g90
g71
NtRp2105
(dp2106
g74
(dp2107
sg83
g2093
sg76
(lp2108
g69
(g70
g71
NtRp2109
(dp2110
g74
(dp2111
g82
I4
ssg83
g2105
sg76
(lp2112
S'set([])'
p2113
asbasbasbag69
(g85
g71
NtRp2114
(dp2115
g74
(dp2116
sg83
g2003
sg76
(lp2117
g69
(g90
g71
NtRp2118
(dp2119
g74
(dp2120
g94
g95
ssg83
g2114
sg76
(lp2121
g1003
asbag69
(g90
g71
NtRp2122
(dp2123
g74
(dp2124
g101
g102
ssg83
g2114
sg76
(lp2125
S':'
asbag69
(g90
g71
NtRp2126
(dp2127
g74
(dp2128
sg83
g2114
sg76
(lp2129
g69
(g70
g71
NtRp2130
(dp2131
g74
(dp2132
g82
I4
ssg83
g2126
sg76
(lp2133
g112
asbasbasbag69
(g85
g71
NtRp2134
(dp2135
g74
(dp2136
sg83
g2003
sg76
(lp2137
g69
(g90
g71
NtRp2138
(dp2139
g74
(dp2140
g94
g95
ssg83
g2134
sg76
(lp2141
g1024
asbag69
(g90
g71
NtRp2142
(dp2143
g74
(dp2144
g101
g102
ssg83
g2134
sg76
(lp2145
S':'
asbag69
(g90
g71
NtRp2146
(dp2147
g74
(dp2148
sg83
g2134
sg76
(lp2149
g69
(g70
g71
NtRp2150
(dp2151
g74
(dp2152
g82
I4
ssg83
g2146
sg76
(lp2153
g1037
asbasbasbag69
(g85
g71
NtRp2154
(dp2155
g74
(dp2156
sg83
g2003
sg76
(lp2157
g69
(g90
g71
NtRp2158
(dp2159
g74
(dp2160
g94
g95
ssg83
g2154
sg76
(lp2161
g1308
asbag69
(g90
g71
NtRp2162
(dp2163
g74
(dp2164
g101
g102
ssg83
g2154
sg76
(lp2165
S':'
asbag69
(g90
g71
NtRp2166
(dp2167
g74
(dp2168
sg83
g2154
sg76
(lp2169
g69
(g70
g71
NtRp2170
(dp2171
g74
(dp2172
g82
I4
ssg83
g2166
sg76
(lp2173
g112
asbasbasbag69
(g85
g71
NtRp2174
(dp2175
g74
(dp2176
sg83
g2003
sg76
(lp2177
g69
(g90
g71
NtRp2178
(dp2179
g74
(dp2180
g94
g95
ssg83
g2174
sg76
(lp2181
g1329
asbag69
(g90
g71
NtRp2182
(dp2183
g74
(dp2184
g101
g102
ssg83
g2174
sg76
(lp2185
S':'
asbag69
(g90
g71
NtRp2186
(dp2187
g74
(dp2188
sg83
g2174
sg76
(lp2189
g69
(g70
g71
NtRp2190
(dp2191
g74
(dp2192
g82
I4
ssg83
g2186
sg76
(lp2193
g112
asbasbasbag69
(g85
g71
NtRp2194
(dp2195
g74
(dp2196
sg83
g2003
sg76
(lp2197
g69
(g90
g71
NtRp2198
(dp2199
g74
(dp2200
g94
g95
ssg83
g2194
sg76
(lp2201
g1567
asbag69
(g90
g71
NtRp2202
(dp2203
g74
(dp2204
g101
g102
ssg83
g2194
sg76
(lp2205
S':'
asbag69
(g90
g71
NtRp2206
(dp2207
g74
(dp2208
sg83
g2194
sg76
(lp2209
g69
(g70
g71
NtRp2210
(dp2211
g74
(dp2212
g82
I4
ssg83
g2206
sg76
(lp2213
g1580
asbasbasbag69
(g85
g71
NtRp2214
(dp2215
g74
(dp2216
sg83
g2003
sg76
(lp2217
g69
(g90
g71
NtRp2218
(dp2219
g74
(dp2220
g94
g95
ssg83
g2214
sg76
(lp2221
g1610
asbag69
(g90
g71
NtRp2222
(dp2223
g74
(dp2224
g101
g102
ssg83
g2214
sg76
(lp2225
S':'
asbag69
(g90
g71
NtRp2226
(dp2227
g74
(dp2228
sg83
g2214
sg76
(lp2229
g69
(g70
g71
NtRp2230
(dp2231
g74
(dp2232
g82
I4
ssg83
g2226
sg76
(lp2233
g69
(g78
g71
NtRp2234
(dp2235
g74
(dp2236
g82
I3
ssg83
Nsg76
(lp2237
g69
(g85
g71
NtRp2238
(dp2239
g74
(dp2240
sg83
g2234
sg76
(lp2241
g69
(g90
g71
NtRp2242
(dp2243
g74
(dp2244
sg83
g2238
sg76
(lp2245
g69
(g70
g71
NtRp2246
(dp2247
g74
(dp2248
g82
I3
ssg83
g2242
sg76
(lp2249
S'1'
asbasbasbag69
(g85
g71
NtRp2250
(dp2251
g74
(dp2252
sg83
g2234
sg76
(lp2253
g69
(g90
g71
NtRp2254
(dp2255
g74
(dp2256
sg83
g2250
sg76
(lp2257
g69
(g70
g71
NtRp2258
(dp2259
g74
(dp2260
g82
I3
ssg83
g2254
sg76
(lp2261
S'99'
p2262
asbasbasbag69
(g85
g71
NtRp2263
(dp2264
g74
(dp2265
sg83
g2234
sg76
(lp2266
g69
(g90
g71
NtRp2267
(dp2268
g74
(dp2269
sg83
g2263
sg76
(lp2270
g69
(g70
g71
NtRp2271
(dp2272
g74
(dp2273
g82
I3
ssg83
g2267
sg76
(lp2274
S'4'
asbasbasbag69
(g85
g71
NtRp2275
(dp2276
g74
(dp2277
sg83
g2234
sg76
(lp2278
g69
(g90
g71
NtRp2279
(dp2280
g74
(dp2281
sg83
g2275
sg76
(lp2282
g69
(g70
g71
NtRp2283
(dp2284
g74
(dp2285
g82
I3
ssg83
g2279
sg76
(lp2286
S'datetime.datetime(2011, 12, 14, 14, 46, 14)'
p2287
asbasbasbag69
(g85
g71
NtRp2288
(dp2289
g74
(dp2290
sg83
g2234
sg76
(lp2291
g69
(g90
g71
NtRp2292
(dp2293
g74
(dp2294
sg83
g2288
sg76
(lp2295
g69
(g70
g71
NtRp2296
(dp2297
g74
(dp2298
g82
I3
ssg83
g2292
sg76
(lp2299
g1689
asbasbasbasbasbasbasbasbasbasbasbag69
(g85
g71
NtRp2300
(dp2301
g74
(dp2302
sg83
g79
sg76
(lp2303
g69
(g90
g71
NtRp2304
(dp2305
g74
(dp2306
g94
g95
ssg83
g2300
sg76
(lp2307
S'is_https'
p2308
asbag69
(g90
g71
NtRp2309
(dp2310
g74
(dp2311
g101
g102
ssg83
g2300
sg76
(lp2312
S':'
asbag69
(g90
g71
NtRp2313
(dp2314
g74
(dp2315
sg83
g2300
sg76
(lp2316
g69
(g70
g71
NtRp2317
(dp2318
g74
(dp2319
g82
I5
ssg83
g2313
sg76
(lp2320
g112
asbasbasbag69
(g85
g71
NtRp2321
(dp2322
g74
(dp2323
sg83
g79
sg76
(lp2324
g69
(g90
g71
NtRp2325
(dp2326
g74
(dp2327
g94
g95
ssg83
g2321
sg76
(lp2328
S'is_local'
p2329
asbag69
(g90
g71
NtRp2330
(dp2331
g74
(dp2332
g101
g102
ssg83
g2321
sg76
(lp2333
S':'
asbag69
(g90
g71
NtRp2334
(dp2335
g74
(dp2336
sg83
g2321
sg76
(lp2337
g69
(g70
g71
NtRp2338
(dp2339
g74
(dp2340
g82
I5
ssg83
g2334
sg76
(lp2341
g1798
asbasbasbag69
(g85
g71
NtRp2342
(dp2343
g74
(dp2344
sg83
g79
sg76
(lp2345
g69
(g90
g71
NtRp2346
(dp2347
g74
(dp2348
g94
g95
ssg83
g2342
sg76
(lp2349
S'is_restful'
p2350
asbag69
(g90
g71
NtRp2351
(dp2352
g74
(dp2353
g101
g102
ssg83
g2342
sg76
(lp2354
S':'
asbag69
(g90
g71
NtRp2355
(dp2356
g74
(dp2357
sg83
g2342
sg76
(lp2358
g69
(g70
g71
NtRp2359
(dp2360
g74
(dp2361
g82
I5
ssg83
g2355
sg76
(lp2362
g112
asbasbasbag69
(g85
g71
NtRp2363
(dp2364
g74
(dp2365
sg83
g79
sg76
(lp2366
g69
(g90
g71
NtRp2367
(dp2368
g74
(dp2369
g94
g95
ssg83
g2363
sg76
(lp2370
S'now'
p2371
asbag69
(g90
g71
NtRp2372
(dp2373
g74
(dp2374
g101
g102
ssg83
g2363
sg76
(lp2375
S':'
asbag69
(g90
g71
NtRp2376
(dp2377
g74
(dp2378
sg83
g2363
sg76
(lp2379
g69
(g70
g71
NtRp2380
(dp2381
g74
(dp2382
g82
I5
ssg83
g2376
sg76
(lp2383
S'datetime.datetime(2014, 1, 17, 22, 48, 47, 696069)'
p2384
asbasbasbag69
(g85
g71
NtRp2385
(dp2386
g74
(dp2387
sg83
g79
sg76
(lp2388
g69
(g90
g71
NtRp2389
(dp2390
g74
(dp2391
g94
g95
ssg83
g2385
sg76
(lp2392
S'post_vars'
p2393
asbag69
(g90
g71
NtRp2394
(dp2395
g74
(dp2396
g101
g102
ssg83
g2385
sg76
(lp2397
S':'
asbag69
(g90
g71
NtRp2398
(dp2399
g74
(dp2400
sg83
g2385
sg76
(lp2401
g69
(g70
g71
NtRp2402
(dp2403
g74
(dp2404
g82
I5
ssg83
g2398
sg76
(lp2405
g69
(g78
g71
NtRp2406
(dp2407
g74
(dp2408
g82
I4
ssg83
Nsg76
(lp2409
g69
(g85
g71
NtRp2410
(dp2411
g74
(dp2412
sg83
g2406
sg76
(lp2413
g69
(g90
g71
NtRp2414
(dp2415
g74
(dp2416
g94
g95
ssg83
g2410
sg76
(lp2417
S'columns'
p2418
asbag69
(g90
g71
NtRp2419
(dp2420
g74
(dp2421
g101
g102
ssg83
g2410
sg76
(lp2422
S':'
asbag69
(g90
g71
NtRp2423
(dp2424
g74
(dp2425
sg83
g2410
sg76
(lp2426
g69
(g70
g71
NtRp2427
(dp2428
g74
(dp2429
g82
I4
ssg83
g2423
sg76
(lp2430
S'username,password'
p2431
asbasbasbag69
(g85
g71
NtRp2432
(dp2433
g74
(dp2434
sg83
g2406
sg76
(lp2435
g69
(g90
g71
NtRp2436
(dp2437
g74
(dp2438
g94
g95
ssg83
g2432
sg76
(lp2439
S'configtext'
p2440
asbag69
(g90
g71
NtRp2441
(dp2442
g74
(dp2443
g101
g102
ssg83
g2432
sg76
(lp2444
S':'
asbag69
(g90
g71
NtRp2445
(dp2446
g74
(dp2447
sg83
g2432
sg76
(lp2448
g69
(g70
g71
NtRp2449
(dp2450
g74
(dp2451
g82
I4
ssg83
g2445
sg76
(lp2452
S''
asbasbasbag69
(g85
g71
NtRp2453
(dp2454
g74
(dp2455
sg83
g2406
sg76
(lp2456
g69
(g90
g71
NtRp2457
(dp2458
g74
(dp2459
g94
g95
ssg83
g2453
sg76
(lp2460
S'database_name'
p2461
asbag69
(g90
g71
NtRp2462
(dp2463
g74
(dp2464
g101
g102
ssg83
g2453
sg76
(lp2465
S':'
asbag69
(g90
g71
NtRp2466
(dp2467
g74
(dp2468
sg83
g2453
sg76
(lp2469
g69
(g70
g71
NtRp2470
(dp2471
g74
(dp2472
g82
I4
ssg83
g2466
sg76
(lp2473
S'hadoop'
p2474
asbasbasbag69
(g85
g71
NtRp2475
(dp2476
g74
(dp2477
sg83
g2406
sg76
(lp2478
g69
(g90
g71
NtRp2479
(dp2480
g74
(dp2481
g94
g95
ssg83
g2475
sg76
(lp2482
S'db_username'
p2483
asbag69
(g90
g71
NtRp2484
(dp2485
g74
(dp2486
g101
g102
ssg83
g2475
sg76
(lp2487
S':'
asbag69
(g90
g71
NtRp2488
(dp2489
g74
(dp2490
sg83
g2475
sg76
(lp2491
g69
(g70
g71
NtRp2492
(dp2493
g74
(dp2494
g82
I4
ssg83
g2488
sg76
(lp2495
S'root'
p2496
asbasbasbag69
(g85
g71
NtRp2497
(dp2498
g74
(dp2499
sg83
g2406
sg76
(lp2500
g69
(g90
g71
NtRp2501
(dp2502
g74
(dp2503
g94
g95
ssg83
g2497
sg76
(lp2504
S'deckey'
p2505
asbag69
(g90
g71
NtRp2506
(dp2507
g74
(dp2508
g101
g102
ssg83
g2497
sg76
(lp2509
S':'
asbag69
(g90
g71
NtRp2510
(dp2511
g74
(dp2512
sg83
g2497
sg76
(lp2513
g69
(g70
g71
NtRp2514
(dp2515
g74
(dp2516
g82
I4
ssg83
g2510
sg76
(lp2517
S''
asbasbasbag69
(g85
g71
NtRp2518
(dp2519
g74
(dp2520
sg83
g2406
sg76
(lp2521
g69
(g90
g71
NtRp2522
(dp2523
g74
(dp2524
g94
g95
ssg83
g2518
sg76
(lp2525
S'decrypt_columns'
p2526
asbag69
(g90
g71
NtRp2527
(dp2528
g74
(dp2529
g101
g102
ssg83
g2518
sg76
(lp2530
S':'
asbag69
(g90
g71
NtRp2531
(dp2532
g74
(dp2533
sg83
g2518
sg76
(lp2534
g69
(g70
g71
NtRp2535
(dp2536
g74
(dp2537
g82
I4
ssg83
g2531
sg76
(lp2538
S'username,password'
p2539
asbasbasbag69
(g85
g71
NtRp2540
(dp2541
g74
(dp2542
sg83
g2406
sg76
(lp2543
g69
(g90
g71
NtRp2544
(dp2545
g74
(dp2546
g94
g95
ssg83
g2540
sg76
(lp2547
S'directory'
p2548
asbag69
(g90
g71
NtRp2549
(dp2550
g74
(dp2551
g101
g102
ssg83
g2540
sg76
(lp2552
S':'
asbag69
(g90
g71
NtRp2553
(dp2554
g74
(dp2555
sg83
g2540
sg76
(lp2556
g69
(g70
g71
NtRp2557
(dp2558
g74
(dp2559
g82
I4
ssg83
g2553
sg76
(lp2560
S'contract'
p2561
asbasbasbag69
(g85
g71
NtRp2562
(dp2563
g74
(dp2564
sg83
g2406
sg76
(lp2565
g69
(g90
g71
NtRp2566
(dp2567
g74
(dp2568
g94
g95
ssg83
g2562
sg76
(lp2569
S'enckey'
p2570
asbag69
(g90
g71
NtRp2571
(dp2572
g74
(dp2573
g101
g102
ssg83
g2562
sg76
(lp2574
S':'
asbag69
(g90
g71
NtRp2575
(dp2576
g74
(dp2577
sg83
g2562
sg76
(lp2578
g69
(g70
g71
NtRp2579
(dp2580
g74
(dp2581
g82
I4
ssg83
g2575
sg76
(lp2582
S''
asbasbasbag69
(g85
g71
NtRp2583
(dp2584
g74
(dp2585
sg83
g2406
sg76
(lp2586
g69
(g90
g71
NtRp2587
(dp2588
g74
(dp2589
g94
g95
ssg83
g2583
sg76
(lp2590
S'enclosingchar'
p2591
asbag69
(g90
g71
NtRp2592
(dp2593
g74
(dp2594
g101
g102
ssg83
g2583
sg76
(lp2595
S':'
asbag69
(g90
g71
NtRp2596
(dp2597
g74
(dp2598
sg83
g2583
sg76
(lp2599
g69
(g70
g71
NtRp2600
(dp2601
g74
(dp2602
g82
I4
ssg83
g2596
sg76
(lp2603
S''
asbasbasbag69
(g85
g71
NtRp2604
(dp2605
g74
(dp2606
sg83
g2406
sg76
(lp2607
g69
(g90
g71
NtRp2608
(dp2609
g74
(dp2610
g94
g95
ssg83
g2604
sg76
(lp2611
S'encrypt_columns'
p2612
asbag69
(g90
g71
NtRp2613
(dp2614
g74
(dp2615
g101
g102
ssg83
g2604
sg76
(lp2616
S':'
asbag69
(g90
g71
NtRp2617
(dp2618
g74
(dp2619
sg83
g2604
sg76
(lp2620
g69
(g70
g71
NtRp2621
(dp2622
g74
(dp2623
g82
I4
ssg83
g2617
sg76
(lp2624
S'username,password'
p2625
asbasbasbag69
(g85
g71
NtRp2626
(dp2627
g74
(dp2628
sg83
g2406
sg76
(lp2629
g69
(g90
g71
NtRp2630
(dp2631
g74
(dp2632
g94
g95
ssg83
g2626
sg76
(lp2633
S'field_delim'
p2634
asbag69
(g90
g71
NtRp2635
(dp2636
g74
(dp2637
g101
g102
ssg83
g2626
sg76
(lp2638
S':'
asbag69
(g90
g71
NtRp2639
(dp2640
g74
(dp2641
sg83
g2626
sg76
(lp2642
g69
(g70
g71
NtRp2643
(dp2644
g74
(dp2645
g82
I4
ssg83
g2639
sg76
(lp2646
S''
asbasbasbag69
(g85
g71
NtRp2647
(dp2648
g74
(dp2649
sg83
g2406
sg76
(lp2650
g69
(g90
g71
NtRp2651
(dp2652
g74
(dp2653
g94
g95
ssg83
g2647
sg76
(lp2654
S'file'
p2655
asbag69
(g90
g71
NtRp2656
(dp2657
g74
(dp2658
g101
g102
ssg83
g2647
sg76
(lp2659
S':'
asbag69
(g90
g71
NtRp2660
(dp2661
g74
(dp2662
sg83
g2647
sg76
(lp2663
g69
(g70
g71
NtRp2664
(dp2665
g74
(dp2666
g82
I4
ssg83
g2660
sg76
(lp2667
S''
asbasbasbag69
(g85
g71
NtRp2668
(dp2669
g74
(dp2670
sg83
g2406
sg76
(lp2671
g69
(g90
g71
NtRp2672
(dp2673
g74
(dp2674
g94
g95
ssg83
g2668
sg76
(lp2675
S'line_delim'
p2676
asbag69
(g90
g71
NtRp2677
(dp2678
g74
(dp2679
g101
g102
ssg83
g2668
sg76
(lp2680
S':'
asbag69
(g90
g71
NtRp2681
(dp2682
g74
(dp2683
sg83
g2668
sg76
(lp2684
g69
(g70
g71
NtRp2685
(dp2686
g74
(dp2687
g82
I4
ssg83
g2681
sg76
(lp2688
S''
asbasbasbag69
(g85
g71
NtRp2689
(dp2690
g74
(dp2691
sg83
g2406
sg76
(lp2692
g69
(g90
g71
NtRp2693
(dp2694
g74
(dp2695
g94
g95
ssg83
g2689
sg76
(lp2696
S'machine'
p2697
asbag69
(g90
g71
NtRp2698
(dp2699
g74
(dp2700
g101
g102
ssg83
g2689
sg76
(lp2701
S':'
asbag69
(g90
g71
NtRp2702
(dp2703
g74
(dp2704
sg83
g2689
sg76
(lp2705
g69
(g70
g71
NtRp2706
(dp2707
g74
(dp2708
g82
I4
ssg83
g2702
sg76
(lp2709
S'localhost'
p2710
asbasbasbag69
(g85
g71
NtRp2711
(dp2712
g74
(dp2713
sg83
g2406
sg76
(lp2714
g69
(g90
g71
NtRp2715
(dp2716
g74
(dp2717
g94
g95
ssg83
g2711
sg76
(lp2718
S'mytable'
p2719
asbag69
(g90
g71
NtRp2720
(dp2721
g74
(dp2722
g101
g102
ssg83
g2711
sg76
(lp2723
S':'
asbag69
(g90
g71
NtRp2724
(dp2725
g74
(dp2726
sg83
g2711
sg76
(lp2727
g69
(g70
g71
NtRp2728
(dp2729
g74
(dp2730
g82
I4
ssg83
g2724
sg76
(lp2731
S'login'
p2732
asbasbasbag69
(g85
g71
NtRp2733
(dp2734
g74
(dp2735
sg83
g2406
sg76
(lp2736
g69
(g90
g71
NtRp2737
(dp2738
g74
(dp2739
g94
g95
ssg83
g2733
sg76
(lp2740
S'op'
p2741
asbag69
(g90
g71
NtRp2742
(dp2743
g74
(dp2744
g101
g102
ssg83
g2733
sg76
(lp2745
S':'
asbag69
(g90
g71
NtRp2746
(dp2747
g74
(dp2748
sg83
g2733
sg76
(lp2749
g69
(g70
g71
NtRp2750
(dp2751
g74
(dp2752
g82
I4
ssg83
g2746
sg76
(lp2753
S'export'
p2754
asbasbasbag69
(g85
g71
NtRp2755
(dp2756
g74
(dp2757
sg83
g2406
sg76
(lp2758
g69
(g90
g71
NtRp2759
(dp2760
g74
(dp2761
g94
g95
ssg83
g2755
sg76
(lp2762
S'parallel'
p2763
asbag69
(g90
g71
NtRp2764
(dp2765
g74
(dp2766
g101
g102
ssg83
g2755
sg76
(lp2767
S':'
asbag69
(g90
g71
NtRp2768
(dp2769
g74
(dp2770
sg83
g2755
sg76
(lp2771
g69
(g70
g71
NtRp2772
(dp2773
g74
(dp2774
g82
I4
ssg83
g2768
sg76
(lp2775
S'5'
asbasbasbag69
(g85
g71
NtRp2776
(dp2777
g74
(dp2778
sg83
g2406
sg76
(lp2779
g69
(g90
g71
NtRp2780
(dp2781
g74
(dp2782
g94
g95
ssg83
g2776
sg76
(lp2783
S'password'
p2784
asbag69
(g90
g71
NtRp2785
(dp2786
g74
(dp2787
g101
g102
ssg83
g2776
sg76
(lp2788
S':'
asbag69
(g90
g71
NtRp2789
(dp2790
g74
(dp2791
sg83
g2776
sg76
(lp2792
g69
(g70
g71
NtRp2793
(dp2794
g74
(dp2795
g82
I4
ssg83
g2789
sg76
(lp2796
S''
asbasbasbag69
(g85
g71
NtRp2797
(dp2798
g74
(dp2799
sg83
g2406
sg76
(lp2800
g69
(g90
g71
NtRp2801
(dp2802
g74
(dp2803
g94
g95
ssg83
g2797
sg76
(lp2804
S'refcol'
p2805
asbag69
(g90
g71
NtRp2806
(dp2807
g74
(dp2808
g101
g102
ssg83
g2797
sg76
(lp2809
S':'
asbag69
(g90
g71
NtRp2810
(dp2811
g74
(dp2812
sg83
g2797
sg76
(lp2813
g69
(g70
g71
NtRp2814
(dp2815
g74
(dp2816
g82
I4
ssg83
g2810
sg76
(lp2817
S'id'
p2818
asbasbasbag69
(g85
g71
NtRp2819
(dp2820
g74
(dp2821
sg83
g2406
sg76
(lp2822
g69
(g90
g71
NtRp2823
(dp2824
g74
(dp2825
g94
g95
ssg83
g2819
sg76
(lp2826
S'sourcedir'
p2827
asbag69
(g90
g71
NtRp2828
(dp2829
g74
(dp2830
g101
g102
ssg83
g2819
sg76
(lp2831
S':'
asbag69
(g90
g71
NtRp2832
(dp2833
g74
(dp2834
sg83
g2819
sg76
(lp2835
g69
(g70
g71
NtRp2836
(dp2837
g74
(dp2838
g82
I4
ssg83
g2832
sg76
(lp2839
S''
asbasbasbag69
(g85
g71
NtRp2840
(dp2841
g74
(dp2842
sg83
g2406
sg76
(lp2843
g69
(g90
g71
NtRp2844
(dp2845
g74
(dp2846
g94
g95
ssg83
g2840
sg76
(lp2847
S'targetdir'
p2848
asbag69
(g90
g71
NtRp2849
(dp2850
g74
(dp2851
g101
g102
ssg83
g2840
sg76
(lp2852
S':'
asbag69
(g90
g71
NtRp2853
(dp2854
g74
(dp2855
sg83
g2840
sg76
(lp2856
g69
(g70
g71
NtRp2857
(dp2858
g74
(dp2859
g82
I4
ssg83
g2853
sg76
(lp2860
S''
asbasbasbag69
(g85
g71
NtRp2861
(dp2862
g74
(dp2863
sg83
g2406
sg76
(lp2864
g69
(g90
g71
NtRp2865
(dp2866
g74
(dp2867
g94
g95
ssg83
g2861
sg76
(lp2868
S'where'
p2869
asbag69
(g90
g71
NtRp2870
(dp2871
g74
(dp2872
g101
g102
ssg83
g2861
sg76
(lp2873
S':'
asbag69
(g90
g71
NtRp2874
(dp2875
g74
(dp2876
sg83
g2861
sg76
(lp2877
g69
(g70
g71
NtRp2878
(dp2879
g74
(dp2880
g82
I4
ssg83
g2874
sg76
(lp2881
S''
asbasbasbasbasbasbasbag69
(g85
g71
NtRp2882
(dp2883
g74
(dp2884
sg83
g79
sg76
(lp2885
g69
(g90
g71
NtRp2886
(dp2887
g74
(dp2888
g94
g95
ssg83
g2882
sg76
(lp2889
S'url'
p2890
asbag69
(g90
g71
NtRp2891
(dp2892
g74
(dp2893
g101
g102
ssg83
g2882
sg76
(lp2894
S':'
asbag69
(g90
g71
NtRp2895
(dp2896
g74
(dp2897
sg83
g2882
sg76
(lp2898
g69
(g70
g71
NtRp2899
(dp2900
g74
(dp2901
g82
I5
ssg83
g2895
sg76
(lp2902
S'/Hadoop/default/action'
p2903
asbasbasbag69
(g85
g71
NtRp2904
(dp2905
g74
(dp2906
sg83
g79
sg76
(lp2907
g69
(g90
g71
NtRp2908
(dp2909
g74
(dp2910
g94
g95
ssg83
g2904
sg76
(lp2911
S'utcnow'
p2912
asbag69
(g90
g71
NtRp2913
(dp2914
g74
(dp2915
g101
g102
ssg83
g2904
sg76
(lp2916
S':'
asbag69
(g90
g71
NtRp2917
(dp2918
g74
(dp2919
sg83
g2904
sg76
(lp2920
g69
(g70
g71
NtRp2921
(dp2922
g74
(dp2923
g82
I5
ssg83
g2917
sg76
(lp2924
S'datetime.datetime(2014, 1, 17, 17, 18, 47, 696094)'
p2925
asbasbasbag69
(g85
g71
NtRp2926
(dp2927
g74
(dp2928
sg83
g79
sg76
(lp2929
g69
(g90
g71
NtRp2930
(dp2931
g74
(dp2932
g94
g95
ssg83
g2926
sg76
(lp2933
S'uuid'
p2934
asbag69
(g90
g71
NtRp2935
(dp2936
g74
(dp2937
g101
g102
ssg83
g2926
sg76
(lp2938
S':'
asbag69
(g90
g71
NtRp2939
(dp2940
g74
(dp2941
sg83
g2926
sg76
(lp2942
g69
(g70
g71
NtRp2943
(dp2944
g74
(dp2945
g82
I5
ssg83
g2939
sg76
(lp2946
S'Hadoop/127.0.0.1.2014-01-17.22-48-47.eed02052-3cd9-425f-826c-a418fec69593'
p2947
asbasbasbag69
(g85
g71
NtRp2948
(dp2949
g74
(dp2950
sg83
g79
sg76
(lp2951
g69
(g90
g71
NtRp2952
(dp2953
g74
(dp2954
g94
g95
ssg83
g2948
sg76
(lp2955
S'vars'
p2956
asbag69
(g90
g71
NtRp2957
(dp2958
g74
(dp2959
g101
g102
ssg83
g2948
sg76
(lp2960
S':'
asbag69
(g90
g71
NtRp2961
(dp2962
g74
(dp2963
sg83
g2948
sg76
(lp2964
g69
(g70
g71
NtRp2965
(dp2966
g74
(dp2967
g82
I5
ssg83
g2961
sg76
(lp2968
g69
(g78
g71
NtRp2969
(dp2970
g74
(dp2971
g82
I4
ssg83
Nsg76
(lp2972
g69
(g85
g71
NtRp2973
(dp2974
g74
(dp2975
sg83
g2969
sg76
(lp2976
g69
(g90
g71
NtRp2977
(dp2978
g74
(dp2979
g94
g95
ssg83
g2973
sg76
(lp2980
g2418
asbag69
(g90
g71
NtRp2981
(dp2982
g74
(dp2983
g101
g102
ssg83
g2973
sg76
(lp2984
S':'
asbag69
(g90
g71
NtRp2985
(dp2986
g74
(dp2987
sg83
g2973
sg76
(lp2988
g69
(g70
g71
NtRp2989
(dp2990
g74
(dp2991
g82
I4
ssg83
g2985
sg76
(lp2992
g2431
asbasbasbag69
(g85
g71
NtRp2993
(dp2994
g74
(dp2995
sg83
g2969
sg76
(lp2996
g69
(g90
g71
NtRp2997
(dp2998
g74
(dp2999
g94
g95
ssg83
g2993
sg76
(lp3000
g2440
asbag69
(g90
g71
NtRp3001
(dp3002
g74
(dp3003
g101
g102
ssg83
g2993
sg76
(lp3004
S':'
asbag69
(g90
g71
NtRp3005
(dp3006
g74
(dp3007
sg83
g2993
sg76
(lp3008
g69
(g70
g71
NtRp3009
(dp3010
g74
(dp3011
g82
I4
ssg83
g3005
sg76
(lp3012
S''
asbasbasbag69
(g85
g71
NtRp3013
(dp3014
g74
(dp3015
sg83
g2969
sg76
(lp3016
g69
(g90
g71
NtRp3017
(dp3018
g74
(dp3019
g94
g95
ssg83
g3013
sg76
(lp3020
g2461
asbag69
(g90
g71
NtRp3021
(dp3022
g74
(dp3023
g101
g102
ssg83
g3013
sg76
(lp3024
S':'
asbag69
(g90
g71
NtRp3025
(dp3026
g74
(dp3027
sg83
g3013
sg76
(lp3028
g69
(g70
g71
NtRp3029
(dp3030
g74
(dp3031
g82
I4
ssg83
g3025
sg76
(lp3032
g2474
asbasbasbag69
(g85
g71
NtRp3033
(dp3034
g74
(dp3035
sg83
g2969
sg76
(lp3036
g69
(g90
g71
NtRp3037
(dp3038
g74
(dp3039
g94
g95
ssg83
g3033
sg76
(lp3040
g2483
asbag69
(g90
g71
NtRp3041
(dp3042
g74
(dp3043
g101
g102
ssg83
g3033
sg76
(lp3044
S':'
asbag69
(g90
g71
NtRp3045
(dp3046
g74
(dp3047
sg83
g3033
sg76
(lp3048
g69
(g70
g71
NtRp3049
(dp3050
g74
(dp3051
g82
I4
ssg83
g3045
sg76
(lp3052
g2496
asbasbasbag69
(g85
g71
NtRp3053
(dp3054
g74
(dp3055
sg83
g2969
sg76
(lp3056
g69
(g90
g71
NtRp3057
(dp3058
g74
(dp3059
g94
g95
ssg83
g3053
sg76
(lp3060
g2505
asbag69
(g90
g71
NtRp3061
(dp3062
g74
(dp3063
g101
g102
ssg83
g3053
sg76
(lp3064
S':'
asbag69
(g90
g71
NtRp3065
(dp3066
g74
(dp3067
sg83
g3053
sg76
(lp3068
g69
(g70
g71
NtRp3069
(dp3070
g74
(dp3071
g82
I4
ssg83
g3065
sg76
(lp3072
S''
asbasbasbag69
(g85
g71
NtRp3073
(dp3074
g74
(dp3075
sg83
g2969
sg76
(lp3076
g69
(g90
g71
NtRp3077
(dp3078
g74
(dp3079
g94
g95
ssg83
g3073
sg76
(lp3080
g2526
asbag69
(g90
g71
NtRp3081
(dp3082
g74
(dp3083
g101
g102
ssg83
g3073
sg76
(lp3084
S':'
asbag69
(g90
g71
NtRp3085
(dp3086
g74
(dp3087
sg83
g3073
sg76
(lp3088
g69
(g70
g71
NtRp3089
(dp3090
g74
(dp3091
g82
I4
ssg83
g3085
sg76
(lp3092
g2539
asbasbasbag69
(g85
g71
NtRp3093
(dp3094
g74
(dp3095
sg83
g2969
sg76
(lp3096
g69
(g90
g71
NtRp3097
(dp3098
g74
(dp3099
g94
g95
ssg83
g3093
sg76
(lp3100
g2548
asbag69
(g90
g71
NtRp3101
(dp3102
g74
(dp3103
g101
g102
ssg83
g3093
sg76
(lp3104
S':'
asbag69
(g90
g71
NtRp3105
(dp3106
g74
(dp3107
sg83
g3093
sg76
(lp3108
g69
(g70
g71
NtRp3109
(dp3110
g74
(dp3111
g82
I4
ssg83
g3105
sg76
(lp3112
g2561
asbasbasbag69
(g85
g71
NtRp3113
(dp3114
g74
(dp3115
sg83
g2969
sg76
(lp3116
g69
(g90
g71
NtRp3117
(dp3118
g74
(dp3119
g94
g95
ssg83
g3113
sg76
(lp3120
g2570
asbag69
(g90
g71
NtRp3121
(dp3122
g74
(dp3123
g101
g102
ssg83
g3113
sg76
(lp3124
S':'
asbag69
(g90
g71
NtRp3125
(dp3126
g74
(dp3127
sg83
g3113
sg76
(lp3128
g69
(g70
g71
NtRp3129
(dp3130
g74
(dp3131
g82
I4
ssg83
g3125
sg76
(lp3132
S''
asbasbasbag69
(g85
g71
NtRp3133
(dp3134
g74
(dp3135
sg83
g2969
sg76
(lp3136
g69
(g90
g71
NtRp3137
(dp3138
g74
(dp3139
g94
g95
ssg83
g3133
sg76
(lp3140
g2591
asbag69
(g90
g71
NtRp3141
(dp3142
g74
(dp3143
g101
g102
ssg83
g3133
sg76
(lp3144
S':'
asbag69
(g90
g71
NtRp3145
(dp3146
g74
(dp3147
sg83
g3133
sg76
(lp3148
g69
(g70
g71
NtRp3149
(dp3150
g74
(dp3151
g82
I4
ssg83
g3145
sg76
(lp3152
S''
asbasbasbag69
(g85
g71
NtRp3153
(dp3154
g74
(dp3155
sg83
g2969
sg76
(lp3156
g69
(g90
g71
NtRp3157
(dp3158
g74
(dp3159
g94
g95
ssg83
g3153
sg76
(lp3160
g2612
asbag69
(g90
g71
NtRp3161
(dp3162
g74
(dp3163
g101
g102
ssg83
g3153
sg76
(lp3164
S':'
asbag69
(g90
g71
NtRp3165
(dp3166
g74
(dp3167
sg83
g3153
sg76
(lp3168
g69
(g70
g71
NtRp3169
(dp3170
g74
(dp3171
g82
I4
ssg83
g3165
sg76
(lp3172
g2625
asbasbasbag69
(g85
g71
NtRp3173
(dp3174
g74
(dp3175
sg83
g2969
sg76
(lp3176
g69
(g90
g71
NtRp3177
(dp3178
g74
(dp3179
g94
g95
ssg83
g3173
sg76
(lp3180
g2634
asbag69
(g90
g71
NtRp3181
(dp3182
g74
(dp3183
g101
g102
ssg83
g3173
sg76
(lp3184
S':'
asbag69
(g90
g71
NtRp3185
(dp3186
g74
(dp3187
sg83
g3173
sg76
(lp3188
g69
(g70
g71
NtRp3189
(dp3190
g74
(dp3191
g82
I4
ssg83
g3185
sg76
(lp3192
S''
asbasbasbag69
(g85
g71
NtRp3193
(dp3194
g74
(dp3195
sg83
g2969
sg76
(lp3196
g69
(g90
g71
NtRp3197
(dp3198
g74
(dp3199
g94
g95
ssg83
g3193
sg76
(lp3200
g2655
asbag69
(g90
g71
NtRp3201
(dp3202
g74
(dp3203
g101
g102
ssg83
g3193
sg76
(lp3204
S':'
asbag69
(g90
g71
NtRp3205
(dp3206
g74
(dp3207
sg83
g3193
sg76
(lp3208
g69
(g70
g71
NtRp3209
(dp3210
g74
(dp3211
g82
I4
ssg83
g3205
sg76
(lp3212
S''
asbasbasbag69
(g85
g71
NtRp3213
(dp3214
g74
(dp3215
sg83
g2969
sg76
(lp3216
g69
(g90
g71
NtRp3217
(dp3218
g74
(dp3219
g94
g95
ssg83
g3213
sg76
(lp3220
g2676
asbag69
(g90
g71
NtRp3221
(dp3222
g74
(dp3223
g101
g102
ssg83
g3213
sg76
(lp3224
S':'
asbag69
(g90
g71
NtRp3225
(dp3226
g74
(dp3227
sg83
g3213
sg76
(lp3228
g69
(g70
g71
NtRp3229
(dp3230
g74
(dp3231
g82
I4
ssg83
g3225
sg76
(lp3232
S''
asbasbasbag69
(g85
g71
NtRp3233
(dp3234
g74
(dp3235
sg83
g2969
sg76
(lp3236
g69
(g90
g71
NtRp3237
(dp3238
g74
(dp3239
g94
g95
ssg83
g3233
sg76
(lp3240
g2697
asbag69
(g90
g71
NtRp3241
(dp3242
g74
(dp3243
g101
g102
ssg83
g3233
sg76
(lp3244
S':'
asbag69
(g90
g71
NtRp3245
(dp3246
g74
(dp3247
sg83
g3233
sg76
(lp3248
g69
(g70
g71
NtRp3249
(dp3250
g74
(dp3251
g82
I4
ssg83
g3245
sg76
(lp3252
g2710
asbasbasbag69
(g85
g71
NtRp3253
(dp3254
g74
(dp3255
sg83
g2969
sg76
(lp3256
g69
(g90
g71
NtRp3257
(dp3258
g74
(dp3259
g94
g95
ssg83
g3253
sg76
(lp3260
g2719
asbag69
(g90
g71
NtRp3261
(dp3262
g74
(dp3263
g101
g102
ssg83
g3253
sg76
(lp3264
S':'
asbag69
(g90
g71
NtRp3265
(dp3266
g74
(dp3267
sg83
g3253
sg76
(lp3268
g69
(g70
g71
NtRp3269
(dp3270
g74
(dp3271
g82
I4
ssg83
g3265
sg76
(lp3272
g2732
asbasbasbag69
(g85
g71
NtRp3273
(dp3274
g74
(dp3275
sg83
g2969
sg76
(lp3276
g69
(g90
g71
NtRp3277
(dp3278
g74
(dp3279
g94
g95
ssg83
g3273
sg76
(lp3280
g2741
asbag69
(g90
g71
NtRp3281
(dp3282
g74
(dp3283
g101
g102
ssg83
g3273
sg76
(lp3284
S':'
asbag69
(g90
g71
NtRp3285
(dp3286
g74
(dp3287
sg83
g3273
sg76
(lp3288
g69
(g70
g71
NtRp3289
(dp3290
g74
(dp3291
g82
I4
ssg83
g3285
sg76
(lp3292
g2754
asbasbasbag69
(g85
g71
NtRp3293
(dp3294
g74
(dp3295
sg83
g2969
sg76
(lp3296
g69
(g90
g71
NtRp3297
(dp3298
g74
(dp3299
g94
g95
ssg83
g3293
sg76
(lp3300
g2763
asbag69
(g90
g71
NtRp3301
(dp3302
g74
(dp3303
g101
g102
ssg83
g3293
sg76
(lp3304
S':'
asbag69
(g90
g71
NtRp3305
(dp3306
g74
(dp3307
sg83
g3293
sg76
(lp3308
g69
(g70
g71
NtRp3309
(dp3310
g74
(dp3311
g82
I4
ssg83
g3305
sg76
(lp3312
S'5'
asbasbasbag69
(g85
g71
NtRp3313
(dp3314
g74
(dp3315
sg83
g2969
sg76
(lp3316
g69
(g90
g71
NtRp3317
(dp3318
g74
(dp3319
g94
g95
ssg83
g3313
sg76
(lp3320
g2784
asbag69
(g90
g71
NtRp3321
(dp3322
g74
(dp3323
g101
g102
ssg83
g3313
sg76
(lp3324
S':'
asbag69
(g90
g71
NtRp3325
(dp3326
g74
(dp3327
sg83
g3313
sg76
(lp3328
g69
(g70
g71
NtRp3329
(dp3330
g74
(dp3331
g82
I4
ssg83
g3325
sg76
(lp3332
S''
asbasbasbag69
(g85
g71
NtRp3333
(dp3334
g74
(dp3335
sg83
g2969
sg76
(lp3336
g69
(g90
g71
NtRp3337
(dp3338
g74
(dp3339
g94
g95
ssg83
g3333
sg76
(lp3340
g2805
asbag69
(g90
g71
NtRp3341
(dp3342
g74
(dp3343
g101
g102
ssg83
g3333
sg76
(lp3344
S':'
asbag69
(g90
g71
NtRp3345
(dp3346
g74
(dp3347
sg83
g3333
sg76
(lp3348
g69
(g70
g71
NtRp3349
(dp3350
g74
(dp3351
g82
I4
ssg83
g3345
sg76
(lp3352
g2818
asbasbasbag69
(g85
g71
NtRp3353
(dp3354
g74
(dp3355
sg83
g2969
sg76
(lp3356
g69
(g90
g71
NtRp3357
(dp3358
g74
(dp3359
g94
g95
ssg83
g3353
sg76
(lp3360
g2827
asbag69
(g90
g71
NtRp3361
(dp3362
g74
(dp3363
g101
g102
ssg83
g3353
sg76
(lp3364
S':'
asbag69
(g90
g71
NtRp3365
(dp3366
g74
(dp3367
sg83
g3353
sg76
(lp3368
g69
(g70
g71
NtRp3369
(dp3370
g74
(dp3371
g82
I4
ssg83
g3365
sg76
(lp3372
S''
asbasbasbag69
(g85
g71
NtRp3373
(dp3374
g74
(dp3375
sg83
g2969
sg76
(lp3376
g69
(g90
g71
NtRp3377
(dp3378
g74
(dp3379
g94
g95
ssg83
g3373
sg76
(lp3380
g2848
asbag69
(g90
g71
NtRp3381
(dp3382
g74
(dp3383
g101
g102
ssg83
g3373
sg76
(lp3384
S':'
asbag69
(g90
g71
NtRp3385
(dp3386
g74
(dp3387
sg83
g3373
sg76
(lp3388
g69
(g70
g71
NtRp3389
(dp3390
g74
(dp3391
g82
I4
ssg83
g3385
sg76
(lp3392
S''
asbasbasbag69
(g85
g71
NtRp3393
(dp3394
g74
(dp3395
sg83
g2969
sg76
(lp3396
g69
(g90
g71
NtRp3397
(dp3398
g74
(dp3399
g94
g95
ssg83
g3393
sg76
(lp3400
g2869
asbag69
(g90
g71
NtRp3401
(dp3402
g74
(dp3403
g101
g102
ssg83
g3393
sg76
(lp3404
S':'
asbag69
(g90
g71
NtRp3405
(dp3406
g74
(dp3407
sg83
g3393
sg76
(lp3408
g69
(g70
g71
NtRp3409
(dp3410
g74
(dp3411
g82
I4
ssg83
g3405
sg76
(lp3412
S''
asbasbasbasbasbasbasbag69
(g85
g71
NtRp3413
(dp3414
g74
(dp3415
sg83
g79
sg76
(lp3416
g69
(g90
g71
NtRp3417
(dp3418
g74
(dp3419
g94
g95
ssg83
g3413
sg76
(lp3420
S'wsgi'
p3421
asbag69
(g90
g71
NtRp3422
(dp3423
g74
(dp3424
g101
g102
ssg83
g3413
sg76
(lp3425
S':'
asbag69
(g90
g71
NtRp3426
(dp3427
g74
(dp3428
sg83
g3413
sg76
(lp3429
g69
(g70
g71
NtRp3430
(dp3431
g74
(dp3432
g82
I5
ssg83
g3426
sg76
(lp3433
g69
(g78
g71
NtRp3434
(dp3435
g74
(dp3436
g82
I4
ssg83
Nsg76
(lp3437
g69
(g85
g71
NtRp3438
(dp3439
g74
(dp3440
sg83
g3434
sg76
(lp3441
g69
(g90
g71
NtRp3442
(dp3443
g74
(dp3444
g94
g95
ssg83
g3438
sg76
(lp3445
S'environ'
p3446
asbag69
(g90
g71
NtRp3447
(dp3448
g74
(dp3449
g101
g102
ssg83
g3438
sg76
(lp3450
S':'
asbag69
(g90
g71
NtRp3451
(dp3452
g74
(dp3453
sg83
g3438
sg76
(lp3454
g69
(g70
g71
NtRp3455
(dp3456
g74
(dp3457
g82
I4
ssg83
g3451
sg76
(lp3458
g69
(g78
g71
NtRp3459
(dp3460
g74
(dp3461
g82
I3
ssg83
Nsg76
(lp3462
g69
(g85
g71
NtRp3463
(dp3464
g74
(dp3465
sg83
g3459
sg76
(lp3466
g69
(g90
g71
NtRp3467
(dp3468
g74
(dp3469
g94
g95
ssg83
g3463
sg76
(lp3470
S'CONTENT_LENGTH'
p3471
asbag69
(g90
g71
NtRp3472
(dp3473
g74
(dp3474
g101
g102
ssg83
g3463
sg76
(lp3475
S':'
asbag69
(g90
g71
NtRp3476
(dp3477
g74
(dp3478
sg83
g3463
sg76
(lp3479
g69
(g70
g71
NtRp3480
(dp3481
g74
(dp3482
g82
I3
ssg83
g3476
sg76
(lp3483
g950
asbasbasbag69
(g85
g71
NtRp3484
(dp3485
g74
(dp3486
sg83
g3459
sg76
(lp3487
g69
(g90
g71
NtRp3488
(dp3489
g74
(dp3490
g94
g95
ssg83
g3484
sg76
(lp3491
S'CONTENT_TYPE'
p3492
asbag69
(g90
g71
NtRp3493
(dp3494
g74
(dp3495
g101
g102
ssg83
g3484
sg76
(lp3496
S':'
asbag69
(g90
g71
NtRp3497
(dp3498
g74
(dp3499
sg83
g3484
sg76
(lp3500
g69
(g70
g71
NtRp3501
(dp3502
g74
(dp3503
g82
I3
ssg83
g3497
sg76
(lp3504
g972
asbasbasbag69
(g85
g71
NtRp3505
(dp3506
g74
(dp3507
sg83
g3459
sg76
(lp3508
g69
(g90
g71
NtRp3509
(dp3510
g74
(dp3511
g94
g95
ssg83
g3505
sg76
(lp3512
S'HTTP_ACCEPT'
p3513
asbag69
(g90
g71
NtRp3514
(dp3515
g74
(dp3516
g101
g102
ssg83
g3505
sg76
(lp3517
S':'
asbag69
(g90
g71
NtRp3518
(dp3519
g74
(dp3520
sg83
g3505
sg76
(lp3521
g69
(g70
g71
NtRp3522
(dp3523
g74
(dp3524
g82
I3
ssg83
g3518
sg76
(lp3525
g1059
asbasbasbag69
(g85
g71
NtRp3526
(dp3527
g74
(dp3528
sg83
g3459
sg76
(lp3529
g69
(g90
g71
NtRp3530
(dp3531
g74
(dp3532
g94
g95
ssg83
g3526
sg76
(lp3533
S'HTTP_ACCEPT_ENCODING'
p3534
asbag69
(g90
g71
NtRp3535
(dp3536
g74
(dp3537
g101
g102
ssg83
g3526
sg76
(lp3538
S':'
asbag69
(g90
g71
NtRp3539
(dp3540
g74
(dp3541
sg83
g3526
sg76
(lp3542
g69
(g70
g71
NtRp3543
(dp3544
g74
(dp3545
g82
I3
ssg83
g3539
sg76
(lp3546
g1081
asbasbasbag69
(g85
g71
NtRp3547
(dp3548
g74
(dp3549
sg83
g3459
sg76
(lp3550
g69
(g90
g71
NtRp3551
(dp3552
g74
(dp3553
g94
g95
ssg83
g3547
sg76
(lp3554
S'HTTP_ACCEPT_LANGUAGE'
p3555
asbag69
(g90
g71
NtRp3556
(dp3557
g74
(dp3558
g101
g102
ssg83
g3547
sg76
(lp3559
S':'
asbag69
(g90
g71
NtRp3560
(dp3561
g74
(dp3562
sg83
g3547
sg76
(lp3563
g69
(g70
g71
NtRp3564
(dp3565
g74
(dp3566
g82
I3
ssg83
g3560
sg76
(lp3567
g1103
asbasbasbag69
(g85
g71
NtRp3568
(dp3569
g74
(dp3570
sg83
g3459
sg76
(lp3571
g69
(g90
g71
NtRp3572
(dp3573
g74
(dp3574
g94
g95
ssg83
g3568
sg76
(lp3575
S'HTTP_CACHE_CONTROL'
p3576
asbag69
(g90
g71
NtRp3577
(dp3578
g74
(dp3579
g101
g102
ssg83
g3568
sg76
(lp3580
S':'
asbag69
(g90
g71
NtRp3581
(dp3582
g74
(dp3583
sg83
g3568
sg76
(lp3584
g69
(g70
g71
NtRp3585
(dp3586
g74
(dp3587
g82
I3
ssg83
g3581
sg76
(lp3588
g1125
asbasbasbag69
(g85
g71
NtRp3589
(dp3590
g74
(dp3591
sg83
g3459
sg76
(lp3592
g69
(g90
g71
NtRp3593
(dp3594
g74
(dp3595
g94
g95
ssg83
g3589
sg76
(lp3596
S'HTTP_CONNECTION'
p3597
asbag69
(g90
g71
NtRp3598
(dp3599
g74
(dp3600
g101
g102
ssg83
g3589
sg76
(lp3601
S':'
asbag69
(g90
g71
NtRp3602
(dp3603
g74
(dp3604
sg83
g3589
sg76
(lp3605
g69
(g70
g71
NtRp3606
(dp3607
g74
(dp3608
g82
I3
ssg83
g3602
sg76
(lp3609
g1147
asbasbasbag69
(g85
g71
NtRp3610
(dp3611
g74
(dp3612
sg83
g3459
sg76
(lp3613
g69
(g90
g71
NtRp3614
(dp3615
g74
(dp3616
g94
g95
ssg83
g3610
sg76
(lp3617
S'HTTP_CONTENT_LENGTH'
p3618
asbag69
(g90
g71
NtRp3619
(dp3620
g74
(dp3621
g101
g102
ssg83
g3610
sg76
(lp3622
S':'
asbag69
(g90
g71
NtRp3623
(dp3624
g74
(dp3625
sg83
g3610
sg76
(lp3626
g69
(g70
g71
NtRp3627
(dp3628
g74
(dp3629
g82
I3
ssg83
g3623
sg76
(lp3630
g950
asbasbasbag69
(g85
g71
NtRp3631
(dp3632
g74
(dp3633
sg83
g3459
sg76
(lp3634
g69
(g90
g71
NtRp3635
(dp3636
g74
(dp3637
g94
g95
ssg83
g3631
sg76
(lp3638
S'HTTP_CONTENT_TYPE'
p3639
asbag69
(g90
g71
NtRp3640
(dp3641
g74
(dp3642
g101
g102
ssg83
g3631
sg76
(lp3643
S':'
asbag69
(g90
g71
NtRp3644
(dp3645
g74
(dp3646
sg83
g3631
sg76
(lp3647
g69
(g70
g71
NtRp3648
(dp3649
g74
(dp3650
g82
I3
ssg83
g3644
sg76
(lp3651
g972
asbasbasbag69
(g85
g71
NtRp3652
(dp3653
g74
(dp3654
sg83
g3459
sg76
(lp3655
g69
(g90
g71
NtRp3656
(dp3657
g74
(dp3658
g94
g95
ssg83
g3652
sg76
(lp3659
S'HTTP_COOKIE'
p3660
asbag69
(g90
g71
NtRp3661
(dp3662
g74
(dp3663
g101
g102
ssg83
g3652
sg76
(lp3664
S':'
asbag69
(g90
g71
NtRp3665
(dp3666
g74
(dp3667
sg83
g3652
sg76
(lp3668
g69
(g70
g71
NtRp3669
(dp3670
g74
(dp3671
g82
I3
ssg83
g3665
sg76
(lp3672
g1211
asbasbasbag69
(g85
g71
NtRp3673
(dp3674
g74
(dp3675
sg83
g3459
sg76
(lp3676
g69
(g90
g71
NtRp3677
(dp3678
g74
(dp3679
g94
g95
ssg83
g3673
sg76
(lp3680
S'HTTP_HOST'
p3681
asbag69
(g90
g71
NtRp3682
(dp3683
g74
(dp3684
g101
g102
ssg83
g3673
sg76
(lp3685
S':'
asbag69
(g90
g71
NtRp3686
(dp3687
g74
(dp3688
sg83
g3673
sg76
(lp3689
g69
(g70
g71
NtRp3690
(dp3691
g74
(dp3692
g82
I3
ssg83
g3686
sg76
(lp3693
g1233
asbasbasbag69
(g85
g71
NtRp3694
(dp3695
g74
(dp3696
sg83
g3459
sg76
(lp3697
g69
(g90
g71
NtRp3698
(dp3699
g74
(dp3700
g94
g95
ssg83
g3694
sg76
(lp3701
S'HTTP_ORIGIN'
p3702
asbag69
(g90
g71
NtRp3703
(dp3704
g74
(dp3705
g101
g102
ssg83
g3694
sg76
(lp3706
S':'
asbag69
(g90
g71
NtRp3707
(dp3708
g74
(dp3709
sg83
g3694
sg76
(lp3710
g69
(g70
g71
NtRp3711
(dp3712
g74
(dp3713
g82
I3
ssg83
g3707
sg76
(lp3714
g1255
asbasbasbag69
(g85
g71
NtRp3715
(dp3716
g74
(dp3717
sg83
g3459
sg76
(lp3718
g69
(g90
g71
NtRp3719
(dp3720
g74
(dp3721
g94
g95
ssg83
g3715
sg76
(lp3722
S'HTTP_REFERER'
p3723
asbag69
(g90
g71
NtRp3724
(dp3725
g74
(dp3726
g101
g102
ssg83
g3715
sg76
(lp3727
S':'
asbag69
(g90
g71
NtRp3728
(dp3729
g74
(dp3730
sg83
g3715
sg76
(lp3731
g69
(g70
g71
NtRp3732
(dp3733
g74
(dp3734
g82
I3
ssg83
g3728
sg76
(lp3735
g1277
asbasbasbag69
(g85
g71
NtRp3736
(dp3737
g74
(dp3738
sg83
g3459
sg76
(lp3739
g69
(g90
g71
NtRp3740
(dp3741
g74
(dp3742
g94
g95
ssg83
g3736
sg76
(lp3743
S'HTTP_USER_AGENT'
p3744
asbag69
(g90
g71
NtRp3745
(dp3746
g74
(dp3747
g101
g102
ssg83
g3736
sg76
(lp3748
S':'
asbag69
(g90
g71
NtRp3749
(dp3750
g74
(dp3751
sg83
g3736
sg76
(lp3752
g69
(g70
g71
NtRp3753
(dp3754
g74
(dp3755
g82
I3
ssg83
g3749
sg76
(lp3756
g1299
asbasbasbag69
(g85
g71
NtRp3757
(dp3758
g74
(dp3759
sg83
g3459
sg76
(lp3760
g69
(g90
g71
NtRp3761
(dp3762
g74
(dp3763
g94
g95
ssg83
g3757
sg76
(lp3764
S'PATH_INFO'
p3765
asbag69
(g90
g71
NtRp3766
(dp3767
g74
(dp3768
g101
g102
ssg83
g3757
sg76
(lp3769
S':'
asbag69
(g90
g71
NtRp3770
(dp3771
g74
(dp3772
sg83
g3757
sg76
(lp3773
g69
(g70
g71
NtRp3774
(dp3775
g74
(dp3776
g82
I3
ssg83
g3770
sg76
(lp3777
g1363
asbasbasbag69
(g85
g71
NtRp3778
(dp3779
g74
(dp3780
sg83
g3459
sg76
(lp3781
g69
(g90
g71
NtRp3782
(dp3783
g74
(dp3784
g94
g95
ssg83
g3778
sg76
(lp3785
S'QUERY_STRING'
p3786
asbag69
(g90
g71
NtRp3787
(dp3788
g74
(dp3789
g101
g102
ssg83
g3778
sg76
(lp3790
S':'
asbag69
(g90
g71
NtRp3791
(dp3792
g74
(dp3793
sg83
g3778
sg76
(lp3794
g69
(g70
g71
NtRp3795
(dp3796
g74
(dp3797
g82
I3
ssg83
g3791
sg76
(lp3798
S''
asbasbasbag69
(g85
g71
NtRp3799
(dp3800
g74
(dp3801
sg83
g3459
sg76
(lp3802
g69
(g90
g71
NtRp3803
(dp3804
g74
(dp3805
g94
g95
ssg83
g3799
sg76
(lp3806
S'REMOTE_ADDR'
p3807
asbag69
(g90
g71
NtRp3808
(dp3809
g74
(dp3810
g101
g102
ssg83
g3799
sg76
(lp3811
S':'
asbag69
(g90
g71
NtRp3812
(dp3813
g74
(dp3814
sg83
g3799
sg76
(lp3815
g69
(g70
g71
NtRp3816
(dp3817
g74
(dp3818
g82
I3
ssg83
g3812
sg76
(lp3819
g202
asbasbasbag69
(g85
g71
NtRp3820
(dp3821
g74
(dp3822
sg83
g3459
sg76
(lp3823
g69
(g90
g71
NtRp3824
(dp3825
g74
(dp3826
g94
g95
ssg83
g3820
sg76
(lp3827
S'REMOTE_PORT'
p3828
asbag69
(g90
g71
NtRp3829
(dp3830
g74
(dp3831
g101
g102
ssg83
g3820
sg76
(lp3832
S':'
asbag69
(g90
g71
NtRp3833
(dp3834
g74
(dp3835
sg83
g3820
sg76
(lp3836
g69
(g70
g71
NtRp3837
(dp3838
g74
(dp3839
g82
I3
ssg83
g3833
sg76
(lp3840
g1427
asbasbasbag69
(g85
g71
NtRp3841
(dp3842
g74
(dp3843
sg83
g3459
sg76
(lp3844
g69
(g90
g71
NtRp3845
(dp3846
g74
(dp3847
g94
g95
ssg83
g3841
sg76
(lp3848
S'REQUEST_METHOD'
p3849
asbag69
(g90
g71
NtRp3850
(dp3851
g74
(dp3852
g101
g102
ssg83
g3841
sg76
(lp3853
S':'
asbag69
(g90
g71
NtRp3854
(dp3855
g74
(dp3856
sg83
g3841
sg76
(lp3857
g69
(g70
g71
NtRp3858
(dp3859
g74
(dp3860
g82
I3
ssg83
g3854
sg76
(lp3861
g1449
asbasbasbag69
(g85
g71
NtRp3862
(dp3863
g74
(dp3864
sg83
g3459
sg76
(lp3865
g69
(g90
g71
NtRp3866
(dp3867
g74
(dp3868
g94
g95
ssg83
g3862
sg76
(lp3869
S'SCRIPT_NAME'
p3870
asbag69
(g90
g71
NtRp3871
(dp3872
g74
(dp3873
g101
g102
ssg83
g3862
sg76
(lp3874
S':'
asbag69
(g90
g71
NtRp3875
(dp3876
g74
(dp3877
sg83
g3862
sg76
(lp3878
g69
(g70
g71
NtRp3879
(dp3880
g74
(dp3881
g82
I3
ssg83
g3875
sg76
(lp3882
S''
asbasbasbag69
(g85
g71
NtRp3883
(dp3884
g74
(dp3885
sg83
g3459
sg76
(lp3886
g69
(g90
g71
NtRp3887
(dp3888
g74
(dp3889
g94
g95
ssg83
g3883
sg76
(lp3890
S'SERVER_NAME'
p3891
asbag69
(g90
g71
NtRp3892
(dp3893
g74
(dp3894
g101
g102
ssg83
g3883
sg76
(lp3895
S':'
asbag69
(g90
g71
NtRp3896
(dp3897
g74
(dp3898
sg83
g3883
sg76
(lp3899
g69
(g70
g71
NtRp3900
(dp3901
g74
(dp3902
g82
I3
ssg83
g3896
sg76
(lp3903
g1492
asbasbasbag69
(g85
g71
NtRp3904
(dp3905
g74
(dp3906
sg83
g3459
sg76
(lp3907
g69
(g90
g71
NtRp3908
(dp3909
g74
(dp3910
g94
g95
ssg83
g3904
sg76
(lp3911
S'SERVER_PORT'
p3912
asbag69
(g90
g71
NtRp3913
(dp3914
g74
(dp3915
g101
g102
ssg83
g3904
sg76
(lp3916
S':'
asbag69
(g90
g71
NtRp3917
(dp3918
g74
(dp3919
sg83
g3904
sg76
(lp3920
g69
(g70
g71
NtRp3921
(dp3922
g74
(dp3923
g82
I3
ssg83
g3917
sg76
(lp3924
g1514
asbasbasbag69
(g85
g71
NtRp3925
(dp3926
g74
(dp3927
sg83
g3459
sg76
(lp3928
g69
(g90
g71
NtRp3929
(dp3930
g74
(dp3931
g94
g95
ssg83
g3925
sg76
(lp3932
S'SERVER_PROTOCOL'
p3933
asbag69
(g90
g71
NtRp3934
(dp3935
g74
(dp3936
g101
g102
ssg83
g3925
sg76
(lp3937
S':'
asbag69
(g90
g71
NtRp3938
(dp3939
g74
(dp3940
sg83
g3925
sg76
(lp3941
g69
(g70
g71
NtRp3942
(dp3943
g74
(dp3944
g82
I3
ssg83
g3938
sg76
(lp3945
g1536
asbasbasbag69
(g85
g71
NtRp3946
(dp3947
g74
(dp3948
sg83
g3459
sg76
(lp3949
g69
(g90
g71
NtRp3950
(dp3951
g74
(dp3952
g94
g95
ssg83
g3946
sg76
(lp3953
S'SERVER_SOFTWARE'
p3954
asbag69
(g90
g71
NtRp3955
(dp3956
g74
(dp3957
g101
g102
ssg83
g3946
sg76
(lp3958
S':'
asbag69
(g90
g71
NtRp3959
(dp3960
g74
(dp3961
sg83
g3946
sg76
(lp3962
g69
(g70
g71
NtRp3963
(dp3964
g74
(dp3965
g82
I3
ssg83
g3959
sg76
(lp3966
g1558
asbasbasbag69
(g85
g71
NtRp3967
(dp3968
g74
(dp3969
sg83
g3459
sg76
(lp3970
g69
(g90
g71
NtRp3971
(dp3972
g74
(dp3973
g94
g95
ssg83
g3967
sg76
(lp3974
S'wsgi.errors'
p3975
asbag69
(g90
g71
NtRp3976
(dp3977
g74
(dp3978
g101
g102
ssg83
g3967
sg76
(lp3979
S':'
asbag69
(g90
g71
NtRp3980
(dp3981
g74
(dp3982
sg83
g3967
sg76
(lp3983
g69
(g70
g71
NtRp3984
(dp3985
g74
(dp3986
g82
I3
ssg83
g3980
sg76
(lp3987
S"<open file '<stderr>', mode 'w' at 0x7f69da6a1270>"
p3988
asbasbasbag69
(g85
g71
NtRp3989
(dp3990
g74
(dp3991
sg83
g3459
sg76
(lp3992
g69
(g90
g71
NtRp3993
(dp3994
g74
(dp3995
g94
g95
ssg83
g3989
sg76
(lp3996
S'wsgi.file_wrapper'
p3997
asbag69
(g90
g71
NtRp3998
(dp3999
g74
(dp4000
g101
g102
ssg83
g3989
sg76
(lp4001
S':'
asbag69
(g90
g71
NtRp4002
(dp4003
g74
(dp4004
sg83
g3989
sg76
(lp4005
g69
(g70
g71
NtRp4006
(dp4007
g74
(dp4008
g82
I3
ssg83
g4002
sg76
(lp4009
S'<class wsgiref.util.FileWrapper at 0x2dd3258>'
p4010
asbasbasbag69
(g85
g71
NtRp4011
(dp4012
g74
(dp4013
sg83
g3459
sg76
(lp4014
g69
(g90
g71
NtRp4015
(dp4016
g74
(dp4017
g94
g95
ssg83
g4011
sg76
(lp4018
S'wsgi.input'
p4019
asbag69
(g90
g71
NtRp4020
(dp4021
g74
(dp4022
g101
g102
ssg83
g4011
sg76
(lp4023
S':'
asbag69
(g90
g71
NtRp4024
(dp4025
g74
(dp4026
sg83
g4011
sg76
(lp4027
g69
(g70
g71
NtRp4028
(dp4029
g74
(dp4030
g82
I3
ssg83
g4024
sg76
(lp4031
S"<open file '<fdopen>', mode 'w+b' at 0x7f69a8110660>"
p4032
asbasbasbag69
(g85
g71
NtRp4033
(dp4034
g74
(dp4035
sg83
g3459
sg76
(lp4036
g69
(g90
g71
NtRp4037
(dp4038
g74
(dp4039
g94
g95
ssg83
g4033
sg76
(lp4040
S'wsgi.multiprocess'
p4041
asbag69
(g90
g71
NtRp4042
(dp4043
g74
(dp4044
g101
g102
ssg83
g4033
sg76
(lp4045
S':'
asbag69
(g90
g71
NtRp4046
(dp4047
g74
(dp4048
sg83
g4033
sg76
(lp4049
g69
(g70
g71
NtRp4050
(dp4051
g74
(dp4052
g82
I3
ssg83
g4046
sg76
(lp4053
g112
asbasbasbag69
(g85
g71
NtRp4054
(dp4055
g74
(dp4056
sg83
g3459
sg76
(lp4057
g69
(g90
g71
NtRp4058
(dp4059
g74
(dp4060
g94
g95
ssg83
g4054
sg76
(lp4061
S'wsgi.multithread'
p4062
asbag69
(g90
g71
NtRp4063
(dp4064
g74
(dp4065
g101
g102
ssg83
g4054
sg76
(lp4066
S':'
asbag69
(g90
g71
NtRp4067
(dp4068
g74
(dp4069
sg83
g4054
sg76
(lp4070
g69
(g70
g71
NtRp4071
(dp4072
g74
(dp4073
g82
I3
ssg83
g4067
sg76
(lp4074
g1798
asbasbasbag69
(g85
g71
NtRp4075
(dp4076
g74
(dp4077
sg83
g3459
sg76
(lp4078
g69
(g90
g71
NtRp4079
(dp4080
g74
(dp4081
g94
g95
ssg83
g4075
sg76
(lp4082
S'wsgi.run_once'
p4083
asbag69
(g90
g71
NtRp4084
(dp4085
g74
(dp4086
g101
g102
ssg83
g4075
sg76
(lp4087
S':'
asbag69
(g90
g71
NtRp4088
(dp4089
g74
(dp4090
sg83
g4075
sg76
(lp4091
g69
(g70
g71
NtRp4092
(dp4093
g74
(dp4094
g82
I3
ssg83
g4088
sg76
(lp4095
g112
asbasbasbag69
(g85
g71
NtRp4096
(dp4097
g74
(dp4098
sg83
g3459
sg76
(lp4099
g69
(g90
g71
NtRp4100
(dp4101
g74
(dp4102
g94
g95
ssg83
g4096
sg76
(lp4103
S'wsgi.url_scheme'
p4104
asbag69
(g90
g71
NtRp4105
(dp4106
g74
(dp4107
g101
g102
ssg83
g4096
sg76
(lp4108
S':'
asbag69
(g90
g71
NtRp4109
(dp4110
g74
(dp4111
sg83
g4096
sg76
(lp4112
g69
(g70
g71
NtRp4113
(dp4114
g74
(dp4115
g82
I3
ssg83
g4109
sg76
(lp4116
g1841
asbasbasbag69
(g85
g71
NtRp4117
(dp4118
g74
(dp4119
sg83
g3459
sg76
(lp4120
g69
(g90
g71
NtRp4121
(dp4122
g74
(dp4123
g94
g95
ssg83
g4117
sg76
(lp4124
S'wsgi.version'
p4125
asbag69
(g90
g71
NtRp4126
(dp4127
g74
(dp4128
g101
g102
ssg83
g4117
sg76
(lp4129
S':'
asbag69
(g90
g71
NtRp4130
(dp4131
g74
(dp4132
sg83
g4117
sg76
(lp4133
g69
(g70
g71
NtRp4134
(dp4135
g74
(dp4136
g82
I3
ssg83
g4130
sg76
(lp4137
S'1'
asbasbasbasbasbasbasbasbasbasbasbasbasbsS'frames'
p4138
(lp4139
(dp4140
S'file'
p4141
S'/usr/lib/pymodules/python2.7/gluon/restricted.py'
p4142
sS'dump'
p4143
(dp4144
S'code'
p4145
S'r"response.write(\'<!DOCTYPE html>\\n<!-- paulirish....ponse.write(\'\\n</body>\\n</html>\\n\', escape=False)"'
p4146
sS'layer'
p4147
S"'/home/hduser/web2py/applications/Hadoop/views/default/action.html'"
p4148
sS'global compile2'
p4149
S'<function compile2>'
p4150
sS'ccode'
p4151
S'undefined'
p4152
ssS'lnum'
p4153
I203
sS'lines'
p4154
(dp4155
I198
S"    environment['__file__'] = layer"
p4156
sI199
S'    try:'
p4157
sI200
S'        if type(code) == types.CodeType:'
p4158
sI201
S'            ccode = code'
p4159
sI202
S'        else:'
p4160
sI203
S'            ccode = compile2(code,layer)'
p4161
sI204
S'        exec ccode in environment'
p4162
sI205
S'    except HTTP:'
p4163
sI206
S'        raise'
p4164
sI207
S'    except RestrictedError:'
p4165
ssS'call'
p4166
S'(code=r"response.write(\'<!DOCTYPE html>\\n<!-- paulirish....ponse.write(\'\\n</body>\\n</html>\\n\', escape=False)", environment={\'A\': <class \'gluon.html.A\'>, \'Auth\': <class \'gluon.tools.Auth\'>, \'B\': <class \'gluon.html.B\'>, \'BEAUTIFY\': <class \'gluon.html.BEAUTIFY\'>, \'BODY\': <class \'gluon.html.BODY\'>, \'BR\': <class \'gluon.html.BR\'>, \'BUTTON\': <class \'gluon.html.BUTTON\'>, \'CAT\': <class \'gluon.html.CAT\'>, \'CENTER\': <class \'gluon.html.CENTER\'>, \'CLEANUP\': <class \'gluon.validators.CLEANUP\'>, ...}, layer=\'/home/hduser/web2py/applications/Hadoop/views/default/action.html\')'
p4167
sS'func'
p4168
S'restricted'
p4169
sa(dp4170
g4141
S'/usr/lib/pymodules/python2.7/gluon/restricted.py'
p4171
sg4143
(dp4172
S'builtincompile'
p4173
S'<built-in function compile>'
p4174
sS'code'
p4175
S'r"response.write(\'<!DOCTYPE html>\\n<!-- paulirish....ponse.write(\'\\n</body>\\n</html>\\n\', escape=False)"'
p4176
sS'code.rstrip'
p4177
S'<built-in method rstrip of str object>'
p4178
sS').replace'
p4179
g4152
sS'layer'
p4180
S"'/home/hduser/web2py/applications/Hadoop/views/default/action.html'"
p4181
ssg4153
I189
sg4154
(dp4182
I192
S'    """'
p4183
sI193
S'    runs code in environment and returns the output. if an exception occurs'
p4184
sI184
S''
sI185
S'def compile2(code,layer):'
p4185
sI186
S'    """'
p4186
sI187
S"    The +'\\n' is necessary else compile fails when code ends in a comment."
p4187
sI188
S'    """'
p4188
sI189
S"    return compile(code.rstrip().replace('\\r\\n','\\n')+'\\n', layer, 'exec')"
p4189
sI190
S''
sI191
S"def restricted(code, environment=None, layer='Unknown'):"
p4190
ssg4166
S'(code=r"response.write(\'<!DOCTYPE html>\\n<!-- paulirish....ponse.write(\'\\n</body>\\n</html>\\n\', escape=False)", layer=\'/home/hduser/web2py/applications/Hadoop/views/default/action.html\')'
p4191
sg4168
S'compile2'
p4192
sasS'pyver'
p4193
S'Python 2.7.3: /usr/bin/python'
p4194
sS'session'
p4195
g69
(g70
g71
NtRp4196
(dp4197
g74
(dp4198
sg76
(lp4199
g69
(g78
g71
NtRp4200
(dp4201
g74
(dp4202
g82
I5
ssg83
Nsg76
(lp4203
sbasbsS'etype'
p4204
S"<type 'exceptions.SyntaxError'>"
p4205
sS'date'
p4206
S'Fri Jan 17 22:48:48 2014'
p4207
sS'response'
p4208
g69
(g70
g71
NtRp4209
(dp4210
g74
(dp4211
sg76
(lp4212
g69
(g78
g71
NtRp4213
(dp4214
g74
(dp4215
g82
I5
ssg83
Nsg76
(lp4216
g69
(g85
g71
NtRp4217
(dp4218
g74
(dp4219
sg83
g4213
sg76
(lp4220
g69
(g90
g71
NtRp4221
(dp4222
g74
(dp4223
g94
g95
ssg83
g4217
sg76
(lp4224
g167
asbag69
(g90
g71
NtRp4225
(dp4226
g74
(dp4227
g101
g102
ssg83
g4217
sg76
(lp4228
S':'
asbag69
(g90
g71
NtRp4229
(dp4230
g74
(dp4231
sg83
g4217
sg76
(lp4232
g69
(g70
g71
NtRp4233
(dp4234
g74
(dp4235
g82
I5
ssg83
g4229
sg76
(lp4236
S'<cStringIO.StringO object at 0x7f6988341928>'
p4237
asbasbasbag69
(g85
g71
NtRp4238
(dp4239
g74
(dp4240
sg83
g4213
sg76
(lp4241
g69
(g90
g71
NtRp4242
(dp4243
g74
(dp4244
g94
g95
ssg83
g4238
sg76
(lp4245
g233
asbag69
(g90
g71
NtRp4246
(dp4247
g74
(dp4248
g101
g102
ssg83
g4238
sg76
(lp4249
S':'
asbag69
(g90
g71
NtRp4250
(dp4251
g74
(dp4252
sg83
g4238
sg76
(lp4253
g69
(g70
g71
NtRp4254
(dp4255
g74
(dp4256
g82
I5
ssg83
g4250
sg76
(lp4257
g69
(g78
g71
NtRp4258
(dp4259
g74
(dp4260
g82
I4
ssg83
Nsg76
(lp4261
g69
(g85
g71
NtRp4262
(dp4263
g74
(dp4264
sg83
g4258
sg76
(lp4265
g69
(g90
g71
NtRp4266
(dp4267
g74
(dp4268
g94
g95
ssg83
g4262
sg76
(lp4269
S'session_id_hadoop'
p4270
asbag69
(g90
g71
NtRp4271
(dp4272
g74
(dp4273
g101
g102
ssg83
g4262
sg76
(lp4274
S':'
asbag69
(g90
g71
NtRp4275
(dp4276
g74
(dp4277
sg83
g4262
sg76
(lp4278
g69
(g70
g71
NtRp4279
(dp4280
g74
(dp4281
g82
I4
ssg83
g4275
sg76
(lp4282
g69
(g78
g71
NtRp4283
(dp4284
g74
(dp4285
g82
I3
ssg83
Nsg76
(lp4286
g69
(g85
g71
NtRp4287
(dp4288
g74
(dp4289
sg83
g4283
sg76
(lp4290
g69
(g90
g71
NtRp4291
(dp4292
g74
(dp4293
g94
g95
ssg83
g4287
sg76
(lp4294
g283
asbag69
(g90
g71
NtRp4295
(dp4296
g74
(dp4297
g101
g102
ssg83
g4287
sg76
(lp4298
S':'
asbag69
(g90
g71
NtRp4299
(dp4300
g74
(dp4301
sg83
g4287
sg76
(lp4302
g69
(g70
g71
NtRp4303
(dp4304
g74
(dp4305
g82
I3
ssg83
g4299
sg76
(lp4306
S''
asbasbasbag69
(g85
g71
NtRp4307
(dp4308
g74
(dp4309
sg83
g4283
sg76
(lp4310
g69
(g90
g71
NtRp4311
(dp4312
g74
(dp4313
g94
g95
ssg83
g4307
sg76
(lp4314
g304
asbag69
(g90
g71
NtRp4315
(dp4316
g74
(dp4317
g101
g102
ssg83
g4307
sg76
(lp4318
S':'
asbag69
(g90
g71
NtRp4319
(dp4320
g74
(dp4321
sg83
g4307
sg76
(lp4322
g69
(g70
g71
NtRp4323
(dp4324
g74
(dp4325
g82
I3
ssg83
g4319
sg76
(lp4326
S''
asbasbasbag69
(g85
g71
NtRp4327
(dp4328
g74
(dp4329
sg83
g4283
sg76
(lp4330
g69
(g90
g71
NtRp4331
(dp4332
g74
(dp4333
g94
g95
ssg83
g4327
sg76
(lp4334
g325
asbag69
(g90
g71
NtRp4335
(dp4336
g74
(dp4337
g101
g102
ssg83
g4327
sg76
(lp4338
S':'
asbag69
(g90
g71
NtRp4339
(dp4340
g74
(dp4341
sg83
g4327
sg76
(lp4342
g69
(g70
g71
NtRp4343
(dp4344
g74
(dp4345
g82
I3
ssg83
g4339
sg76
(lp4346
S''
asbasbasbag69
(g85
g71
NtRp4347
(dp4348
g74
(dp4349
sg83
g4283
sg76
(lp4350
g69
(g90
g71
NtRp4351
(dp4352
g74
(dp4353
g94
g95
ssg83
g4347
sg76
(lp4354
g346
asbag69
(g90
g71
NtRp4355
(dp4356
g74
(dp4357
g101
g102
ssg83
g4347
sg76
(lp4358
S':'
asbag69
(g90
g71
NtRp4359
(dp4360
g74
(dp4361
sg83
g4347
sg76
(lp4362
g69
(g70
g71
NtRp4363
(dp4364
g74
(dp4365
g82
I3
ssg83
g4359
sg76
(lp4366
S''
asbasbasbag69
(g85
g71
NtRp4367
(dp4368
g74
(dp4369
sg83
g4283
sg76
(lp4370
g69
(g90
g71
NtRp4371
(dp4372
g74
(dp4373
g94
g95
ssg83
g4367
sg76
(lp4374
g367
asbag69
(g90
g71
NtRp4375
(dp4376
g74
(dp4377
g101
g102
ssg83
g4367
sg76
(lp4378
S':'
asbag69
(g90
g71
NtRp4379
(dp4380
g74
(dp4381
sg83
g4367
sg76
(lp4382
g69
(g70
g71
NtRp4383
(dp4384
g74
(dp4385
g82
I3
ssg83
g4379
sg76
(lp4386
S''
asbasbasbag69
(g85
g71
NtRp4387
(dp4388
g74
(dp4389
sg83
g4283
sg76
(lp4390
g69
(g90
g71
NtRp4391
(dp4392
g74
(dp4393
g94
g95
ssg83
g4387
sg76
(lp4394
g388
asbag69
(g90
g71
NtRp4395
(dp4396
g74
(dp4397
g101
g102
ssg83
g4387
sg76
(lp4398
S':'
asbag69
(g90
g71
NtRp4399
(dp4400
g74
(dp4401
sg83
g4387
sg76
(lp4402
g69
(g70
g71
NtRp4403
(dp4404
g74
(dp4405
g82
I3
ssg83
g4399
sg76
(lp4406
S'/'
asbasbasbag69
(g85
g71
NtRp4407
(dp4408
g74
(dp4409
sg83
g4283
sg76
(lp4410
g69
(g90
g71
NtRp4411
(dp4412
g74
(dp4413
g94
g95
ssg83
g4407
sg76
(lp4414
g409
asbag69
(g90
g71
NtRp4415
(dp4416
g74
(dp4417
g101
g102
ssg83
g4407
sg76
(lp4418
S':'
asbag69
(g90
g71
NtRp4419
(dp4420
g74
(dp4421
sg83
g4407
sg76
(lp4422
g69
(g70
g71
NtRp4423
(dp4424
g74
(dp4425
g82
I3
ssg83
g4419
sg76
(lp4426
S''
asbasbasbag69
(g85
g71
NtRp4427
(dp4428
g74
(dp4429
sg83
g4283
sg76
(lp4430
g69
(g90
g71
NtRp4431
(dp4432
g74
(dp4433
g94
g95
ssg83
g4427
sg76
(lp4434
g430
asbag69
(g90
g71
NtRp4435
(dp4436
g74
(dp4437
g101
g102
ssg83
g4427
sg76
(lp4438
S':'
asbag69
(g90
g71
NtRp4439
(dp4440
g74
(dp4441
sg83
g4427
sg76
(lp4442
g69
(g70
g71
NtRp4443
(dp4444
g74
(dp4445
g82
I3
ssg83
g4439
sg76
(lp4446
S''
asbasbasbasbasbasbasbasbasbasbasbag69
(g85
g71
NtRp4447
(dp4448
g74
(dp4449
sg83
g4213
sg76
(lp4450
g69
(g90
g71
NtRp4451
(dp4452
g74
(dp4453
g94
g95
ssg83
g4447
sg76
(lp4454
S'files'
p4455
asbag69
(g90
g71
NtRp4456
(dp4457
g74
(dp4458
g101
g102
ssg83
g4447
sg76
(lp4459
S':'
asbag69
(g90
g71
NtRp4460
(dp4461
g74
(dp4462
sg83
g4447
sg76
(lp4463
g69
(g70
g71
NtRp4464
(dp4465
g74
(dp4466
g82
I5
ssg83
g4460
sg76
(lp4467
g69
(g78
g71
NtRp4468
(dp4469
g74
(dp4470
g82
I4
ssg83
Nsg76
(lp4471
sbasbasbasbag69
(g85
g71
NtRp4472
(dp4473
g74
(dp4474
sg83
g4213
sg76
(lp4475
g69
(g90
g71
NtRp4476
(dp4477
g74
(dp4478
g94
g95
ssg83
g4472
sg76
(lp4479
S'flash'
p4480
asbag69
(g90
g71
NtRp4481
(dp4482
g74
(dp4483
g101
g102
ssg83
g4472
sg76
(lp4484
S':'
asbag69
(g90
g71
NtRp4485
(dp4486
g74
(dp4487
sg83
g4472
sg76
(lp4488
g69
(g70
g71
NtRp4489
(dp4490
g74
(dp4491
g82
I5
ssg83
g4485
sg76
(lp4492
S''
asbasbasbag69
(g85
g71
NtRp4493
(dp4494
g74
(dp4495
sg83
g4213
sg76
(lp4496
g69
(g90
g71
NtRp4497
(dp4498
g74
(dp4499
g94
g95
ssg83
g4493
sg76
(lp4500
S'generic_patterns'
p4501
asbag69
(g90
g71
NtRp4502
(dp4503
g74
(dp4504
g101
g102
ssg83
g4493
sg76
(lp4505
S':'
asbag69
(g90
g71
NtRp4506
(dp4507
g74
(dp4508
sg83
g4493
sg76
(lp4509
g69
(g70
g71
NtRp4510
(dp4511
g74
(dp4512
g82
I5
ssg83
g4506
sg76
(lp4513
g69
(g78
g71
NtRp4514
(dp4515
g74
(dp4516
g82
I4
ssg83
Nsg76
(lp4517
g69
(g85
g71
NtRp4518
(dp4519
g74
(dp4520
sg83
g4514
sg76
(lp4521
g69
(g90
g71
NtRp4522
(dp4523
g74
(dp4524
sg83
g4518
sg76
(lp4525
g69
(g70
g71
NtRp4526
(dp4527
g74
(dp4528
g82
I4
ssg83
g4522
sg76
(lp4529
S'*'
asbasbasbasbasbasbasbag69
(g85
g71
NtRp4530
(dp4531
g74
(dp4532
sg83
g4213
sg76
(lp4533
g69
(g90
g71
NtRp4534
(dp4535
g74
(dp4536
g94
g95
ssg83
g4530
sg76
(lp4537
S'headers'
p4538
asbag69
(g90
g71
NtRp4539
(dp4540
g74
(dp4541
g101
g102
ssg83
g4530
sg76
(lp4542
S':'
asbag69
(g90
g71
NtRp4543
(dp4544
g74
(dp4545
sg83
g4530
sg76
(lp4546
g69
(g70
g71
NtRp4547
(dp4548
g74
(dp4549
g82
I5
ssg83
g4543
sg76
(lp4550
g69
(g78
g71
NtRp4551
(dp4552
g74
(dp4553
g82
I4
ssg83
Nsg76
(lp4554
g69
(g85
g71
NtRp4555
(dp4556
g74
(dp4557
sg83
g4551
sg76
(lp4558
g69
(g90
g71
NtRp4559
(dp4560
g74
(dp4561
g94
g95
ssg83
g4555
sg76
(lp4562
S'Cache-Control'
p4563
asbag69
(g90
g71
NtRp4564
(dp4565
g74
(dp4566
g101
g102
ssg83
g4555
sg76
(lp4567
S':'
asbag69
(g90
g71
NtRp4568
(dp4569
g74
(dp4570
sg83
g4555
sg76
(lp4571
g69
(g70
g71
NtRp4572
(dp4573
g74
(dp4574
g82
I4
ssg83
g4568
sg76
(lp4575
S'no-store, no-cache, must-revalidate, post-check=0, pre-check=0'
p4576
asbasbasbag69
(g85
g71
NtRp4577
(dp4578
g74
(dp4579
sg83
g4551
sg76
(lp4580
g69
(g90
g71
NtRp4581
(dp4582
g74
(dp4583
g94
g95
ssg83
g4577
sg76
(lp4584
S'Content-Type'
p4585
asbag69
(g90
g71
NtRp4586
(dp4587
g74
(dp4588
g101
g102
ssg83
g4577
sg76
(lp4589
S':'
asbag69
(g90
g71
NtRp4590
(dp4591
g74
(dp4592
sg83
g4577
sg76
(lp4593
g69
(g70
g71
NtRp4594
(dp4595
g74
(dp4596
g82
I4
ssg83
g4590
sg76
(lp4597
S'text/html; charset=utf-8'
p4598
asbasbasbag69
(g85
g71
NtRp4599
(dp4600
g74
(dp4601
sg83
g4551
sg76
(lp4602
g69
(g90
g71
NtRp4603
(dp4604
g74
(dp4605
g94
g95
ssg83
g4599
sg76
(lp4606
S'Expires'
p4607
asbag69
(g90
g71
NtRp4608
(dp4609
g74
(dp4610
g101
g102
ssg83
g4599
sg76
(lp4611
S':'
asbag69
(g90
g71
NtRp4612
(dp4613
g74
(dp4614
sg83
g4599
sg76
(lp4615
g69
(g70
g71
NtRp4616
(dp4617
g74
(dp4618
g82
I4
ssg83
g4612
sg76
(lp4619
S'Fri, 17 Jan 2014 17:18:47 GMT'
p4620
asbasbasbag69
(g85
g71
NtRp4621
(dp4622
g74
(dp4623
sg83
g4551
sg76
(lp4624
g69
(g90
g71
NtRp4625
(dp4626
g74
(dp4627
g94
g95
ssg83
g4621
sg76
(lp4628
S'Pragma'
p4629
asbag69
(g90
g71
NtRp4630
(dp4631
g74
(dp4632
g101
g102
ssg83
g4621
sg76
(lp4633
S':'
asbag69
(g90
g71
NtRp4634
(dp4635
g74
(dp4636
sg83
g4621
sg76
(lp4637
g69
(g70
g71
NtRp4638
(dp4639
g74
(dp4640
g82
I4
ssg83
g4634
sg76
(lp4641
S'no-cache'
p4642
asbasbasbag69
(g85
g71
NtRp4643
(dp4644
g74
(dp4645
sg83
g4551
sg76
(lp4646
g69
(g90
g71
NtRp4647
(dp4648
g74
(dp4649
g94
g95
ssg83
g4643
sg76
(lp4650
S'X-Powered-By'
p4651
asbag69
(g90
g71
NtRp4652
(dp4653
g74
(dp4654
g101
g102
ssg83
g4643
sg76
(lp4655
S':'
asbag69
(g90
g71
NtRp4656
(dp4657
g74
(dp4658
sg83
g4643
sg76
(lp4659
g69
(g70
g71
NtRp4660
(dp4661
g74
(dp4662
g82
I4
ssg83
g4656
sg76
(lp4663
S'web2py'
p4664
asbasbasbasbasbasbasbag69
(g85
g71
NtRp4665
(dp4666
g74
(dp4667
sg83
g4213
sg76
(lp4668
g69
(g90
g71
NtRp4669
(dp4670
g74
(dp4671
g94
g95
ssg83
g4665
sg76
(lp4672
S'menu'
p4673
asbag69
(g90
g71
NtRp4674
(dp4675
g74
(dp4676
g101
g102
ssg83
g4665
sg76
(lp4677
S':'
asbag69
(g90
g71
NtRp4678
(dp4679
g74
(dp4680
sg83
g4665
sg76
(lp4681
g69
(g70
g71
NtRp4682
(dp4683
g74
(dp4684
g82
I5
ssg83
g4678
sg76
(lp4685
g69
(g78
g71
NtRp4686
(dp4687
g74
(dp4688
g82
I4
ssg83
Nsg76
(lp4689
g69
(g85
g71
NtRp4690
(dp4691
g74
(dp4692
sg83
g4686
sg76
(lp4693
g69
(g90
g71
NtRp4694
(dp4695
g74
(dp4696
sg83
g4690
sg76
(lp4697
g69
(g70
g71
NtRp4698
(dp4699
g74
(dp4700
g82
I4
ssg83
g4694
sg76
(lp4701
g69
(g78
g71
NtRp4702
(dp4703
g74
(dp4704
g82
I3
ssg83
Nsg76
(lp4705
g69
(g85
g71
NtRp4706
(dp4707
g74
(dp4708
sg83
g4702
sg76
(lp4709
g69
(g90
g71
NtRp4710
(dp4711
g74
(dp4712
sg83
g4706
sg76
(lp4713
g69
(g70
g71
NtRp4714
(dp4715
g74
(dp4716
g82
I3
ssg83
g4710
sg76
(lp4717
cgluon.languages
lazyT_unpickle
p4718
(S't\x04\x00\x00\x00Home'
tRp4719
asbasbasbag69
(g85
g71
NtRp4720
(dp4721
g74
(dp4722
sg83
g4702
sg76
(lp4723
g69
(g90
g71
NtRp4724
(dp4725
g74
(dp4726
sg83
g4720
sg76
(lp4727
g69
(g70
g71
NtRp4728
(dp4729
g74
(dp4730
g82
I3
ssg83
g4724
sg76
(lp4731
g112
asbasbasbag69
(g85
g71
NtRp4732
(dp4733
g74
(dp4734
sg83
g4702
sg76
(lp4735
g69
(g90
g71
NtRp4736
(dp4737
g74
(dp4738
sg83
g4732
sg76
(lp4739
g69
(g70
g71
NtRp4740
(dp4741
g74
(dp4742
g82
I3
ssg83
g4736
sg76
(lp4743
S'/Hadoop/default/index'
p4744
asbasbasbag69
(g85
g71
NtRp4745
(dp4746
g74
(dp4747
sg83
g4702
sg76
(lp4748
g69
(g90
g71
NtRp4749
(dp4750
g74
(dp4751
sg83
g4745
sg76
(lp4752
g69
(g70
g71
NtRp4753
(dp4754
g74
(dp4755
g82
I3
ssg83
g4749
sg76
(lp4756
g69
(g78
g71
NtRp4757
(dp4758
g74
(dp4759
g82
I2
ssg83
Nsg76
(lp4760
sbasbasbasbasbasbasbasbag69
(g85
g71
NtRp4761
(dp4762
g74
(dp4763
sg83
g4686
sg76
(lp4764
g69
(g90
g71
NtRp4765
(dp4766
g74
(dp4767
sg83
g4761
sg76
(lp4768
g69
(g70
g71
NtRp4769
(dp4770
g74
(dp4771
g82
I4
ssg83
g4765
sg76
(lp4772
g69
(g78
g71
NtRp4773
(dp4774
g74
(dp4775
g82
I3
ssg83
Nsg76
(lp4776
g69
(g85
g71
NtRp4777
(dp4778
g74
(dp4779
sg83
g4773
sg76
(lp4780
g69
(g90
g71
NtRp4781
(dp4782
g74
(dp4783
sg83
g4777
sg76
(lp4784
g69
(g70
g71
NtRp4785
(dp4786
g74
(dp4787
g82
I3
ssg83
g4781
sg76
(lp4788
g69
(cgluon.html
SPAN
p4789
g71
NtRp4790
(dp4791
g74
(dp4792
g94
S'color:yellow'
p4793
ssg83
Nsg76
(lp4794
g4664
asbasbasbasbag69
(g85
g71
NtRp4795
(dp4796
g74
(dp4797
sg83
g4773
sg76
(lp4798
g69
(g90
g71
NtRp4799
(dp4800
g74
(dp4801
sg83
g4795
sg76
(lp4802
g69
(g70
g71
NtRp4803
(dp4804
g74
(dp4805
g82
I3
ssg83
g4799
sg76
(lp4806
g112
asbasbasbag69
(g85
g71
NtRp4807
(dp4808
g74
(dp4809
sg83
g4773
sg76
(lp4810
g69
(g90
g71
NtRp4811
(dp4812
g74
(dp4813
sg83
g4807
sg76
(lp4814
g69
(g70
g71
NtRp4815
(dp4816
g74
(dp4817
g82
I3
ssg83
g4811
sg76
(lp4818
S'None'
p4819
asbasbasbag69
(g85
g71
NtRp4820
(dp4821
g74
(dp4822
sg83
g4773
sg76
(lp4823
g69
(g90
g71
NtRp4824
(dp4825
g74
(dp4826
sg83
g4820
sg76
(lp4827
g69
(g70
g71
NtRp4828
(dp4829
g74
(dp4830
g82
I3
ssg83
g4824
sg76
(lp4831
g69
(g78
g71
NtRp4832
(dp4833
g74
(dp4834
g82
I2
ssg83
Nsg76
(lp4835
g69
(g85
g71
NtRp4836
(dp4837
g74
(dp4838
sg83
g4832
sg76
(lp4839
g69
(g90
g71
NtRp4840
(dp4841
g74
(dp4842
sg83
g4836
sg76
(lp4843
g69
(g70
g71
NtRp4844
(dp4845
g74
(dp4846
g82
I2
ssg83
g4840
sg76
(lp4847
g69
(g78
g71
NtRp4848
(dp4849
g74
(dp4850
g82
I1
ssg83
Nsg76
(lp4851
g69
(g85
g71
NtRp4852
(dp4853
g74
(dp4854
sg83
g4848
sg76
(lp4855
g69
(g90
g71
NtRp4856
(dp4857
g74
(dp4858
sg83
g4852
sg76
(lp4859
g69
(g70
g71
NtRp4860
(dp4861
g74
(dp4862
g82
I1
ssg83
g4856
sg76
(lp4863
g4718
(S's\x08\x00\x00\x00My Sites'
tRp4864
asbasbasbag69
(g85
g71
NtRp4865
(dp4866
g74
(dp4867
sg83
g4848
sg76
(lp4868
g69
(g90
g71
NtRp4869
(dp4870
g74
(dp4871
sg83
g4865
sg76
(lp4872
g69
(g70
g71
NtRp4873
(dp4874
g74
(dp4875
g82
I1
ssg83
g4869
sg76
(lp4876
I00
asbasbasbag69
(g85
g71
NtRp4877
(dp4878
g74
(dp4879
sg83
g4848
sg76
(lp4880
g69
(g90
g71
NtRp4881
(dp4882
g74
(dp4883
sg83
g4877
sg76
(lp4884
g69
(g70
g71
NtRp4885
(dp4886
g74
(dp4887
g82
I1
ssg83
g4881
sg76
(lp4888
S'/admin/default/site'
p4889
asbasbasbasbasbasbasbag69
(g85
g71
NtRp4890
(dp4891
g74
(dp4892
sg83
g4832
sg76
(lp4893
g69
(g90
g71
NtRp4894
(dp4895
g74
(dp4896
sg83
g4890
sg76
(lp4897
g69
(g70
g71
NtRp4898
(dp4899
g74
(dp4900
g82
I2
ssg83
g4894
sg76
(lp4901
g69
(g78
g71
NtRp4902
(dp4903
g74
(dp4904
g82
I1
ssg83
Nsg76
(lp4905
g69
(g85
g71
NtRp4906
(dp4907
g74
(dp4908
sg83
g4902
sg76
(lp4909
g69
(g90
g71
NtRp4910
(dp4911
g74
(dp4912
sg83
g4906
sg76
(lp4913
g69
(g70
g71
NtRp4914
(dp4915
g74
(dp4916
g82
I1
ssg83
g4910
sg76
(lp4917
g4718
(S's\x08\x00\x00\x00This App'
tRp4918
asbasbasbag69
(g85
g71
NtRp4919
(dp4920
g74
(dp4921
sg83
g4902
sg76
(lp4922
g69
(g90
g71
NtRp4923
(dp4924
g74
(dp4925
sg83
g4919
sg76
(lp4926
g69
(g70
g71
NtRp4927
(dp4928
g74
(dp4929
g82
I1
ssg83
g4923
sg76
(lp4930
I00
asbasbasbag69
(g85
g71
NtRp4931
(dp4932
g74
(dp4933
sg83
g4902
sg76
(lp4934
g69
(g90
g71
NtRp4935
(dp4936
g74
(dp4937
sg83
g4931
sg76
(lp4938
g69
(g70
g71
NtRp4939
(dp4940
g74
(dp4941
g82
I1
ssg83
g4935
sg76
(lp4942
S'/admin/default/design/Hadoop'
p4943
asbasbasbag69
(g85
g71
NtRp4944
(dp4945
g74
(dp4946
sg83
g4902
sg76
(lp4947
g69
(g90
g71
NtRp4948
(dp4949
g74
(dp4950
sg83
g4944
sg76
(lp4951
g69
(g70
g71
NtRp4952
(dp4953
g74
(dp4954
g82
I1
ssg83
g4948
sg76
(lp4955
(lp4956
(g4718
(S't\n\x00\x00\x00Controller'
tRp4957
I00
S'/admin/default/edit/Hadoop/controllers/default.py'
tp4958
a(g4718
(S't\x04\x00\x00\x00View'
tRp4959
I00
S'/admin/default/edit/Hadoop/views/default/action.html'
tp4960
a(g4718
(S't\x06\x00\x00\x00Layout'
tRp4961
I00
S'/admin/default/edit/Hadoop/views/layout.html'
tp4962
a(g4718
(S't\n\x00\x00\x00Stylesheet'
tRp4963
I00
S'/admin/default/edit/Hadoop/static/css/web2py.css'
tp4964
a(g4718
(S's\x08\x00\x00\x00DB Model'
tRp4965
I00
S'/admin/default/edit/Hadoop/models/db.py'
tp4966
a(g4718
(S's\n\x00\x00\x00Menu Model'
tRp4967
I00
S'/admin/default/edit/Hadoop/models/menu.py'
tp4968
a(g4718
(S't\x08\x00\x00\x00Database'
tRp4969
I00
S'/Hadoop/appadmin/index'
tp4970
a(g4718
(S't\x06\x00\x00\x00Errors'
tRp4971
I00
S'/admin/default/errors/Hadoop'
tp4972
a(g4718
(S't\x05\x00\x00\x00About'
tRp4973
I00
S'/admin/default/about/Hadoop'
tp4974
aasbasbasbasbasbasbasbag69
(g85
g71
NtRp4975
(dp4976
g74
(dp4977
sg83
g4832
sg76
(lp4978
g69
(g90
g71
NtRp4979
(dp4980
g74
(dp4981
sg83
g4975
sg76
(lp4982
g69
(g70
g71
NtRp4983
(dp4984
g74
(dp4985
g82
I2
ssg83
g4979
sg76
(lp4986
g69
(g78
g71
NtRp4987
(dp4988
g74
(dp4989
g82
I1
ssg83
Nsg76
(lp4990
g69
(g85
g71
NtRp4991
(dp4992
g74
(dp4993
sg83
g4987
sg76
(lp4994
g69
(g90
g71
NtRp4995
(dp4996
g74
(dp4997
sg83
g4991
sg76
(lp4998
g69
(g70
g71
NtRp4999
(dp5000
g74
(dp5001
g82
I1
ssg83
g4995
sg76
(lp5002
S'web2py.com'
p5003
asbasbasbag69
(g85
g71
NtRp5004
(dp5005
g74
(dp5006
sg83
g4987
sg76
(lp5007
g69
(g90
g71
NtRp5008
(dp5009
g74
(dp5010
sg83
g5004
sg76
(lp5011
g69
(g70
g71
NtRp5012
(dp5013
g74
(dp5014
g82
I1
ssg83
g5008
sg76
(lp5015
I00
asbasbasbag69
(g85
g71
NtRp5016
(dp5017
g74
(dp5018
sg83
g4987
sg76
(lp5019
g69
(g90
g71
NtRp5020
(dp5021
g74
(dp5022
sg83
g5016
sg76
(lp5023
g69
(g70
g71
NtRp5024
(dp5025
g74
(dp5026
g82
I1
ssg83
g5020
sg76
(lp5027
S'http://www.web2py.com'
p5028
asbasbasbag69
(g85
g71
NtRp5029
(dp5030
g74
(dp5031
sg83
g4987
sg76
(lp5032
g69
(g90
g71
NtRp5033
(dp5034
g74
(dp5035
sg83
g5029
sg76
(lp5036
g69
(g70
g71
NtRp5037
(dp5038
g74
(dp5039
g82
I1
ssg83
g5033
sg76
(lp5040
(lp5041
(g4718
(S't\x08\x00\x00\x00Download'
tRp5042
I00
S'http://www.web2py.com/examples/default/download'
p5043
tp5044
a(g4718
(S't\x07\x00\x00\x00Support'
tRp5045
I00
S'http://www.web2py.com/examples/default/support'
p5046
tp5047
a(g4718
(S't\x04\x00\x00\x00Demo'
tRp5048
I00
S'http://web2py.com/demo_admin'
p5049
tp5050
a(g4718
(S's\x0e\x00\x00\x00Quick Examples'
tRp5051
I00
S'http://web2py.com/examples/default/examples'
p5052
tp5053
a(g4718
(S't\x03\x00\x00\x00FAQ'
tRp5054
I00
S'http://web2py.com/AlterEgo'
p5055
tp5056
a(g4718
(S't\x06\x00\x00\x00Videos'
tRp5057
I00
S'http://www.web2py.com/examples/default/videos/'
p5058
tp5059
a(g4718
(S's\x11\x00\x00\x00Free Applications'
tRp5060
I00
S'http://web2py.com/appliances'
p5061
tp5062
a(g4718
(S't\x07\x00\x00\x00Plugins'
tRp5063
I00
S'http://web2py.com/plugins'
p5064
tp5065
a(g4718
(S't\x07\x00\x00\x00Layouts'
tRp5066
I00
S'http://web2py.com/layouts'
p5067
tp5068
a(g4718
(S't\x07\x00\x00\x00Recipes'
tRp5069
I00
S'http://web2pyslices.com/'
p5070
tp5071
a(g4718
(S't\x08\x00\x00\x00Semantic'
tRp5072
I00
S'http://web2py.com/semantic'
p5073
tp5074
aasbasbasbasbasbasbasbag69
(g85
g71
NtRp5075
(dp5076
g74
(dp5077
sg83
g4832
sg76
(lp5078
g69
(g90
g71
NtRp5079
(dp5080
g74
(dp5081
sg83
g5075
sg76
(lp5082
g69
(g70
g71
NtRp5083
(dp5084
g74
(dp5085
g82
I2
ssg83
g5079
sg76
(lp5086
g69
(g78
g71
NtRp5087
(dp5088
g74
(dp5089
g82
I1
ssg83
Nsg76
(lp5090
g69
(g85
g71
NtRp5091
(dp5092
g74
(dp5093
sg83
g5087
sg76
(lp5094
g69
(g90
g71
NtRp5095
(dp5096
g74
(dp5097
sg83
g5091
sg76
(lp5098
g69
(g70
g71
NtRp5099
(dp5100
g74
(dp5101
g82
I1
ssg83
g5095
sg76
(lp5102
g4718
(S't\r\x00\x00\x00Documentation'
tRp5103
asbasbasbag69
(g85
g71
NtRp5104
(dp5105
g74
(dp5106
sg83
g5087
sg76
(lp5107
g69
(g90
g71
NtRp5108
(dp5109
g74
(dp5110
sg83
g5104
sg76
(lp5111
g69
(g70
g71
NtRp5112
(dp5113
g74
(dp5114
g82
I1
ssg83
g5108
sg76
(lp5115
I00
asbasbasbag69
(g85
g71
NtRp5116
(dp5117
g74
(dp5118
sg83
g5087
sg76
(lp5119
g69
(g90
g71
NtRp5120
(dp5121
g74
(dp5122
sg83
g5116
sg76
(lp5123
g69
(g70
g71
NtRp5124
(dp5125
g74
(dp5126
g82
I1
ssg83
g5120
sg76
(lp5127
S'http://www.web2py.com/book'
p5128
asbasbasbag69
(g85
g71
NtRp5129
(dp5130
g74
(dp5131
sg83
g5087
sg76
(lp5132
g69
(g90
g71
NtRp5133
(dp5134
g74
(dp5135
sg83
g5129
sg76
(lp5136
g69
(g70
g71
NtRp5137
(dp5138
g74
(dp5139
g82
I1
ssg83
g5133
sg76
(lp5140
(lp5141
(g4718
(S't\x07\x00\x00\x00Preface'
tRp5142
I00
S'http://www.web2py.com/book/default/chapter/00'
p5143
tp5144
a(g4718
(S't\x0c\x00\x00\x00Introduction'
tRp5145
I00
S'http://www.web2py.com/book/default/chapter/01'
p5146
tp5147
a(g4718
(S't\x06\x00\x00\x00Python'
tRp5148
I00
S'http://www.web2py.com/book/default/chapter/02'
p5149
tp5150
a(g4718
(S't\x08\x00\x00\x00Overview'
tRp5151
I00
S'http://www.web2py.com/book/default/chapter/03'
p5152
tp5153
a(g4718
(S's\x08\x00\x00\x00The Core'
tRp5154
I00
S'http://www.web2py.com/book/default/chapter/04'
p5155
tp5156
a(g4718
(S's\t\x00\x00\x00The Views'
tRp5157
I00
S'http://www.web2py.com/book/default/chapter/05'
p5158
tp5159
a(g4718
(S't\x08\x00\x00\x00Database'
tRp5160
I00
S'http://www.web2py.com/book/default/chapter/06'
p5161
tp5162
a(g4718
(S's\x14\x00\x00\x00Forms and Validators'
tRp5163
I00
S'http://www.web2py.com/book/default/chapter/07'
p5164
tp5165
a(g4718
(S's\r\x00\x00\x00Email and SMS'
tRp5166
I00
S'http://www.web2py.com/book/default/chapter/08'
p5167
tp5168
a(g4718
(S's\x0e\x00\x00\x00Access Control'
tRp5169
I00
S'http://www.web2py.com/book/default/chapter/09'
p5170
tp5171
a(g4718
(S't\x08\x00\x00\x00Services'
tRp5172
I00
S'http://www.web2py.com/book/default/chapter/10'
p5173
tp5174
a(g4718
(S's\x0c\x00\x00\x00Ajax Recipes'
tRp5175
I00
S'http://www.web2py.com/book/default/chapter/11'
p5176
tp5177
a(g4718
(S's\x16\x00\x00\x00Components and Plugins'
tRp5178
I00
S'http://www.web2py.com/book/default/chapter/12'
p5179
tp5180
a(g4718
(S's\x12\x00\x00\x00Deployment Recipes'
tRp5181
I00
S'http://www.web2py.com/book/default/chapter/13'
p5182
tp5183
a(g4718
(S's\r\x00\x00\x00Other Recipes'
tRp5184
I00
S'http://www.web2py.com/book/default/chapter/14'
p5185
tp5186
a(g4718
(S's\r\x00\x00\x00Buy this book'
tRp5187
I00
S'http://stores.lulu.com/web2py'
p5188
tp5189
aasbasbasbasbasbasbasbag69
(g85
g71
NtRp5190
(dp5191
g74
(dp5192
sg83
g4832
sg76
(lp5193
g69
(g90
g71
NtRp5194
(dp5195
g74
(dp5196
sg83
g5190
sg76
(lp5197
g69
(g70
g71
NtRp5198
(dp5199
g74
(dp5200
g82
I2
ssg83
g5194
sg76
(lp5201
g69
(g78
g71
NtRp5202
(dp5203
g74
(dp5204
g82
I1
ssg83
Nsg76
(lp5205
g69
(g85
g71
NtRp5206
(dp5207
g74
(dp5208
sg83
g5202
sg76
(lp5209
g69
(g90
g71
NtRp5210
(dp5211
g74
(dp5212
sg83
g5206
sg76
(lp5213
g69
(g70
g71
NtRp5214
(dp5215
g74
(dp5216
g82
I1
ssg83
g5210
sg76
(lp5217
g4718
(S't\t\x00\x00\x00Community'
tRp5218
asbasbasbag69
(g85
g71
NtRp5219
(dp5220
g74
(dp5221
sg83
g5202
sg76
(lp5222
g69
(g90
g71
NtRp5223
(dp5224
g74
(dp5225
sg83
g5219
sg76
(lp5226
g69
(g70
g71
NtRp5227
(dp5228
g74
(dp5229
g82
I1
ssg83
g5223
sg76
(lp5230
I00
asbasbasbag69
(g85
g71
NtRp5231
(dp5232
g74
(dp5233
sg83
g5202
sg76
(lp5234
g69
(g90
g71
NtRp5235
(dp5236
g74
(dp5237
sg83
g5231
sg76
(lp5238
g69
(g70
g71
NtRp5239
(dp5240
g74
(dp5241
g82
I1
ssg83
g5235
sg76
(lp5242
Nasbasbasbag69
(g85
g71
NtRp5243
(dp5244
g74
(dp5245
sg83
g5202
sg76
(lp5246
g69
(g90
g71
NtRp5247
(dp5248
g74
(dp5249
sg83
g5243
sg76
(lp5250
g69
(g70
g71
NtRp5251
(dp5252
g74
(dp5253
g82
I1
ssg83
g5247
sg76
(lp5254
(lp5255
(g4718
(S't\x06\x00\x00\x00Groups'
tRp5256
I00
S'http://www.web2py.com/examples/default/usergroups'
p5257
tp5258
a(g4718
(S't\x07\x00\x00\x00Twitter'
tRp5259
I00
S'http://twitter.com/web2py'
p5260
tp5261
a(g4718
(S's\t\x00\x00\x00Live Chat'
tRp5262
I00
S'http://webchat.freenode.net/?channels=web2py'
p5263
tp5264
aasbasbasbasbasbasbasbag69
(g85
g71
NtRp5265
(dp5266
g74
(dp5267
sg83
g4832
sg76
(lp5268
g69
(g90
g71
NtRp5269
(dp5270
g74
(dp5271
sg83
g5265
sg76
(lp5272
g69
(g70
g71
NtRp5273
(dp5274
g74
(dp5275
g82
I2
ssg83
g5269
sg76
(lp5276
g69
(g78
g71
NtRp5277
(dp5278
g74
(dp5279
g82
I1
ssg83
Nsg76
(lp5280
g69
(g85
g71
NtRp5281
(dp5282
g74
(dp5283
sg83
g5277
sg76
(lp5284
g69
(g90
g71
NtRp5285
(dp5286
g74
(dp5287
sg83
g5281
sg76
(lp5288
g69
(g70
g71
NtRp5289
(dp5290
g74
(dp5291
g82
I1
ssg83
g5285
sg76
(lp5292
g4718
(S't\x07\x00\x00\x00Plugins'
tRp5293
asbasbasbag69
(g85
g71
NtRp5294
(dp5295
g74
(dp5296
sg83
g5277
sg76
(lp5297
g69
(g90
g71
NtRp5298
(dp5299
g74
(dp5300
sg83
g5294
sg76
(lp5301
g69
(g70
g71
NtRp5302
(dp5303
g74
(dp5304
g82
I1
ssg83
g5298
sg76
(lp5305
I00
asbasbasbag69
(g85
g71
NtRp5306
(dp5307
g74
(dp5308
sg83
g5277
sg76
(lp5309
g69
(g90
g71
NtRp5310
(dp5311
g74
(dp5312
sg83
g5306
sg76
(lp5313
g69
(g70
g71
NtRp5314
(dp5315
g74
(dp5316
g82
I1
ssg83
g5310
sg76
(lp5317
Nasbasbasbag69
(g85
g71
NtRp5318
(dp5319
g74
(dp5320
sg83
g5277
sg76
(lp5321
g69
(g90
g71
NtRp5322
(dp5323
g74
(dp5324
sg83
g5318
sg76
(lp5325
g69
(g70
g71
NtRp5326
(dp5327
g74
(dp5328
g82
I1
ssg83
g5322
sg76
(lp5329
(lp5330
(S'plugin_wiki'
p5331
I00
S'http://web2py.com/examples/default/download'
p5332
tp5333
a(g4718
(S's\r\x00\x00\x00Other Plugins'
tRp5334
I00
g5064
tp5335
a(g4718
(S's\x0e\x00\x00\x00Layout Plugins'
tRp5336
I00
g5067
tp5337
aasbasbasbasbasbasbasbasbasbasbasbasbasbasbasbasbasbasbasbag69
(g85
g71
NtRp5338
(dp5339
g74
(dp5340
sg83
g4213
sg76
(lp5341
g69
(g90
g71
NtRp5342
(dp5343
g74
(dp5344
g94
g95
ssg83
g5338
sg76
(lp5345
S'meta'
p5346
asbag69
(g90
g71
NtRp5347
(dp5348
g74
(dp5349
g101
g102
ssg83
g5338
sg76
(lp5350
S':'
asbag69
(g90
g71
NtRp5351
(dp5352
g74
(dp5353
sg83
g5338
sg76
(lp5354
g69
(g70
g71
NtRp5355
(dp5356
g74
(dp5357
g82
I5
ssg83
g5351
sg76
(lp5358
g69
(g78
g71
NtRp5359
(dp5360
g74
(dp5361
g82
I4
ssg83
Nsg76
(lp5362
g69
(g85
g71
NtRp5363
(dp5364
g74
(dp5365
sg83
g5359
sg76
(lp5366
g69
(g90
g71
NtRp5367
(dp5368
g74
(dp5369
g94
g95
ssg83
g5363
sg76
(lp5370
S'author'
p5371
asbag69
(g90
g71
NtRp5372
(dp5373
g74
(dp5374
g101
g102
ssg83
g5363
sg76
(lp5375
S':'
asbag69
(g90
g71
NtRp5376
(dp5377
g74
(dp5378
sg83
g5363
sg76
(lp5379
g69
(g70
g71
NtRp5380
(dp5381
g74
(dp5382
g82
I4
ssg83
g5376
sg76
(lp5383
S'Your Name <you@example.com>'
p5384
asbasbasbag69
(g85
g71
NtRp5385
(dp5386
g74
(dp5387
sg83
g5359
sg76
(lp5388
g69
(g90
g71
NtRp5389
(dp5390
g74
(dp5391
g94
g95
ssg83
g5385
sg76
(lp5392
S'copyright'
p5393
asbag69
(g90
g71
NtRp5394
(dp5395
g74
(dp5396
g101
g102
ssg83
g5385
sg76
(lp5397
S':'
asbag69
(g90
g71
NtRp5398
(dp5399
g74
(dp5400
sg83
g5385
sg76
(lp5401
g69
(g70
g71
NtRp5402
(dp5403
g74
(dp5404
g82
I4
ssg83
g5398
sg76
(lp5405
S'Copyright 2011'
p5406
asbasbasbag69
(g85
g71
NtRp5407
(dp5408
g74
(dp5409
sg83
g5359
sg76
(lp5410
g69
(g90
g71
NtRp5411
(dp5412
g74
(dp5413
g94
g95
ssg83
g5407
sg76
(lp5414
S'description'
p5415
asbag69
(g90
g71
NtRp5416
(dp5417
g74
(dp5418
g101
g102
ssg83
g5407
sg76
(lp5419
S':'
asbag69
(g90
g71
NtRp5420
(dp5421
g74
(dp5422
sg83
g5407
sg76
(lp5423
g69
(g70
g71
NtRp5424
(dp5425
g74
(dp5426
g82
I4
ssg83
g5420
sg76
(lp5427
S'a cool new app'
p5428
asbasbasbag69
(g85
g71
NtRp5429
(dp5430
g74
(dp5431
sg83
g5359
sg76
(lp5432
g69
(g90
g71
NtRp5433
(dp5434
g74
(dp5435
g94
g95
ssg83
g5429
sg76
(lp5436
S'generator'
p5437
asbag69
(g90
g71
NtRp5438
(dp5439
g74
(dp5440
g101
g102
ssg83
g5429
sg76
(lp5441
S':'
asbag69
(g90
g71
NtRp5442
(dp5443
g74
(dp5444
sg83
g5429
sg76
(lp5445
g69
(g70
g71
NtRp5446
(dp5447
g74
(dp5448
g82
I4
ssg83
g5442
sg76
(lp5449
S'Web2py Web Framework'
p5450
asbasbasbag69
(g85
g71
NtRp5451
(dp5452
g74
(dp5453
sg83
g5359
sg76
(lp5454
g69
(g90
g71
NtRp5455
(dp5456
g74
(dp5457
g94
g95
ssg83
g5451
sg76
(lp5458
S'keywords'
p5459
asbag69
(g90
g71
NtRp5460
(dp5461
g74
(dp5462
g101
g102
ssg83
g5451
sg76
(lp5463
S':'
asbag69
(g90
g71
NtRp5464
(dp5465
g74
(dp5466
sg83
g5451
sg76
(lp5467
g69
(g70
g71
NtRp5468
(dp5469
g74
(dp5470
g82
I4
ssg83
g5464
sg76
(lp5471
S'web2py, python, framework'
p5472
asbasbasbasbasbasbasbag69
(g85
g71
NtRp5473
(dp5474
g74
(dp5475
sg83
g4213
sg76
(lp5476
g69
(g90
g71
NtRp5477
(dp5478
g74
(dp5479
g94
g95
ssg83
g5473
sg76
(lp5480
S'postprocessing'
p5481
asbag69
(g90
g71
NtRp5482
(dp5483
g74
(dp5484
g101
g102
ssg83
g5473
sg76
(lp5485
S':'
asbag69
(g90
g71
NtRp5486
(dp5487
g74
(dp5488
sg83
g5473
sg76
(lp5489
g69
(g70
g71
NtRp5490
(dp5491
g74
(dp5492
g82
I5
ssg83
g5486
sg76
(lp5493
g69
(g78
g71
NtRp5494
(dp5495
g74
(dp5496
g82
I4
ssg83
Nsg76
(lp5497
sbasbasbasbag69
(g85
g71
NtRp5498
(dp5499
g74
(dp5500
sg83
g4213
sg76
(lp5501
g69
(g90
g71
NtRp5502
(dp5503
g74
(dp5504
g94
g95
ssg83
g5498
sg76
(lp5505
S'session_file'
p5506
asbag69
(g90
g71
NtRp5507
(dp5508
g74
(dp5509
g101
g102
ssg83
g5498
sg76
(lp5510
S':'
asbag69
(g90
g71
NtRp5511
(dp5512
g74
(dp5513
sg83
g5498
sg76
(lp5514
g69
(g70
g71
NtRp5515
(dp5516
g74
(dp5517
g82
I5
ssg83
g5511
sg76
(lp5518
S"<open file '/home/hduser/web2py/applications/Hadoop/sessions/127.0.0.1-f44bac3a-f56d-40a6-b99f-3e1b3d4d7ce1', mode 'rb+' at 0x7f69a8216ed0>"
p5519
asbasbasbag69
(g85
g71
NtRp5520
(dp5521
g74
(dp5522
sg83
g4213
sg76
(lp5523
g69
(g90
g71
NtRp5524
(dp5525
g74
(dp5526
g94
g95
ssg83
g5520
sg76
(lp5527
S'session_filename'
p5528
asbag69
(g90
g71
NtRp5529
(dp5530
g74
(dp5531
g101
g102
ssg83
g5520
sg76
(lp5532
S':'
asbag69
(g90
g71
NtRp5533
(dp5534
g74
(dp5535
sg83
g5520
sg76
(lp5536
g69
(g70
g71
NtRp5537
(dp5538
g74
(dp5539
g82
I5
ssg83
g5533
sg76
(lp5540
S'/home/hduser/web2py/applications/Hadoop/sessions/127.0.0.1-f44bac3a-f56d-40a6-b99f-3e1b3d4d7ce1'
p5541
asbasbasbag69
(g85
g71
NtRp5542
(dp5543
g74
(dp5544
sg83
g4213
sg76
(lp5545
g69
(g90
g71
NtRp5546
(dp5547
g74
(dp5548
g94
g95
ssg83
g5542
sg76
(lp5549
S'session_id'
p5550
asbag69
(g90
g71
NtRp5551
(dp5552
g74
(dp5553
g101
g102
ssg83
g5542
sg76
(lp5554
S':'
asbag69
(g90
g71
NtRp5555
(dp5556
g74
(dp5557
sg83
g5542
sg76
(lp5558
g69
(g70
g71
NtRp5559
(dp5560
g74
(dp5561
g82
I5
ssg83
g5555
sg76
(lp5562
S'127.0.0.1-f44bac3a-f56d-40a6-b99f-3e1b3d4d7ce1'
p5563
asbasbasbag69
(g85
g71
NtRp5564
(dp5565
g74
(dp5566
sg83
g4213
sg76
(lp5567
g69
(g90
g71
NtRp5568
(dp5569
g74
(dp5570
g94
g95
ssg83
g5564
sg76
(lp5571
S'session_id_name'
p5572
asbag69
(g90
g71
NtRp5573
(dp5574
g74
(dp5575
g101
g102
ssg83
g5564
sg76
(lp5576
S':'
asbag69
(g90
g71
NtRp5577
(dp5578
g74
(dp5579
sg83
g5564
sg76
(lp5580
g69
(g70
g71
NtRp5581
(dp5582
g74
(dp5583
g82
I5
ssg83
g5577
sg76
(lp5584
g4270
asbasbasbag69
(g85
g71
NtRp5585
(dp5586
g74
(dp5587
sg83
g4213
sg76
(lp5588
g69
(g90
g71
NtRp5589
(dp5590
g74
(dp5591
g94
g95
ssg83
g5585
sg76
(lp5592
S'session_locked'
p5593
asbag69
(g90
g71
NtRp5594
(dp5595
g74
(dp5596
g101
g102
ssg83
g5585
sg76
(lp5597
S':'
asbag69
(g90
g71
NtRp5598
(dp5599
g74
(dp5600
sg83
g5585
sg76
(lp5601
g69
(g70
g71
NtRp5602
(dp5603
g74
(dp5604
g82
I5
ssg83
g5598
sg76
(lp5605
g1798
asbasbasbag69
(g85
g71
NtRp5606
(dp5607
g74
(dp5608
sg83
g4213
sg76
(lp5609
g69
(g90
g71
NtRp5610
(dp5611
g74
(dp5612
g94
g95
ssg83
g5606
sg76
(lp5613
S'session_new'
p5614
asbag69
(g90
g71
NtRp5615
(dp5616
g74
(dp5617
g101
g102
ssg83
g5606
sg76
(lp5618
S':'
asbag69
(g90
g71
NtRp5619
(dp5620
g74
(dp5621
sg83
g5606
sg76
(lp5622
g69
(g70
g71
NtRp5623
(dp5624
g74
(dp5625
g82
I5
ssg83
g5619
sg76
(lp5626
g112
asbasbasbag69
(g85
g71
NtRp5627
(dp5628
g74
(dp5629
sg83
g4213
sg76
(lp5630
g69
(g90
g71
NtRp5631
(dp5632
g74
(dp5633
g94
g95
ssg83
g5627
sg76
(lp5634
S'status'
p5635
asbag69
(g90
g71
NtRp5636
(dp5637
g74
(dp5638
g101
g102
ssg83
g5627
sg76
(lp5639
S':'
asbag69
(g90
g71
NtRp5640
(dp5641
g74
(dp5642
sg83
g5627
sg76
(lp5643
g69
(g70
g71
NtRp5644
(dp5645
g74
(dp5646
g82
I5
ssg83
g5640
sg76
(lp5647
S'200'
p5648
asbasbasbag69
(g85
g71
NtRp5649
(dp5650
g74
(dp5651
sg83
g4213
sg76
(lp5652
g69
(g90
g71
NtRp5653
(dp5654
g74
(dp5655
g94
g95
ssg83
g5649
sg76
(lp5656
S'subtitle'
p5657
asbag69
(g90
g71
NtRp5658
(dp5659
g74
(dp5660
g101
g102
ssg83
g5649
sg76
(lp5661
S':'
asbag69
(g90
g71
NtRp5662
(dp5663
g74
(dp5664
sg83
g5649
sg76
(lp5665
g69
(g70
g71
NtRp5666
(dp5667
g74
(dp5668
g82
I5
ssg83
g5662
sg76
(lp5669
g4718
(S's\r\x00\x00\x00customize me!'
tRp5670
asbasbasbag69
(g85
g71
NtRp5671
(dp5672
g74
(dp5673
sg83
g4213
sg76
(lp5674
g69
(g90
g71
NtRp5675
(dp5676
g74
(dp5677
g94
g95
ssg83
g5671
sg76
(lp5678
S'title'
p5679
asbag69
(g90
g71
NtRp5680
(dp5681
g74
(dp5682
g101
g102
ssg83
g5671
sg76
(lp5683
S':'
asbag69
(g90
g71
NtRp5684
(dp5685
g74
(dp5686
sg83
g5671
sg76
(lp5687
g69
(g70
g71
NtRp5688
(dp5689
g74
(dp5690
g82
I5
ssg83
g5684
sg76
(lp5691
S'Hadoop'
p5692
asbasbasbag69
(g85
g71
NtRp5693
(dp5694
g74
(dp5695
sg83
g4213
sg76
(lp5696
g69
(g90
g71
NtRp5697
(dp5698
g74
(dp5699
g94
g95
ssg83
g5693
sg76
(lp5700
g2934
asbag69
(g90
g71
NtRp5701
(dp5702
g74
(dp5703
g101
g102
ssg83
g5693
sg76
(lp5704
S':'
asbag69
(g90
g71
NtRp5705
(dp5706
g74
(dp5707
sg83
g5693
sg76
(lp5708
g69
(g70
g71
NtRp5709
(dp5710
g74
(dp5711
g82
I5
ssg83
g5705
sg76
(lp5712
g2947
asbasbasbag69
(g85
g71
NtRp5713
(dp5714
g74
(dp5715
sg83
g4213
sg76
(lp5716
g69
(g90
g71
NtRp5717
(dp5718
g74
(dp5719
g94
g95
ssg83
g5713
sg76
(lp5720
S'view'
p5721
asbag69
(g90
g71
NtRp5722
(dp5723
g74
(dp5724
g101
g102
ssg83
g5713
sg76
(lp5725
S':'
asbag69
(g90
g71
NtRp5726
(dp5727
g74
(dp5728
sg83
g5713
sg76
(lp5729
g69
(g70
g71
NtRp5730
(dp5731
g74
(dp5732
g82
I5
ssg83
g5726
sg76
(lp5733
S'default/action.html'
p5734
asbasbasbasbasbsS'locals'
p5735
(dp5736
g4
S"'/home/hduser/web2py/applications/Hadoop/views/default/action.html'"
p5737
sg6
S'r"response.write(\'<!DOCTYPE html>\\n<!-- paulirish....ponse.write(\'\\n</body>\\n</html>\\n\', escape=False)"'
p5738
sssS'traceback'
p5739
S'Traceback (most recent call last):\n  File "/usr/lib/pymodules/python2.7/gluon/restricted.py", line 203, in restricted\n    ccode = compile2(code,layer)\n  File "/usr/lib/pymodules/python2.7/gluon/restricted.py", line 189, in compile2\n    return compile(code.rstrip().replace(\'\\r\\n\',\'\\n\')+\'\\n\', layer, \'exec\')\n  File "/home/hduser/web2py/applications/Hadoop/views/default/action.html", line 76\n    for i in posvars\n                   ^\nSyntaxError: invalid syntax\n'
p5740
s.