(dp1
S'output'
p2
S"<type 'exceptions.OSError'> [Errno 2] No such file or directory: 'login.jar'"
p3
sS'layer'
p4
S'/home/hduser/web2py/applications/Hadoop/controllers/default.py'
p5
sS'code'
p6
S'# coding: utf8\n# try something like\nimport os\nimport subprocess\nimport MySQLdb\nTable = "login";\nmachine="localhost";\ndatabase_name="hadoop";\ndb_username="root";\npassword="hadoop";\n\ndef index():\n    return dict(message="hello from default.py")\n\ndef codegen(str="",table=""):\n#    //codegen:          generate import-export code without performing actual import/export, modify the gnerated java file, compile it to jar, give it to sqoop.\n#    global $TABLE,$machine,$password,$db_username,$database_name;\n    codegen="";\n    if str=="":\n        os.remove(Table+".java");\n        os.remove(Table+".jar");\n        os.remove(Table+".class");\n        \n        codegen= "/home/hduser/sqoop/bin/sqoop codegen --connect jdbc:mysql://"+machine+"/"+database_name+" --username "+db_username+" --password \'"+password+"\' --table "+Table;\n        \n        if posvars[\'op\']=="import":\n            if posvars[\'field_delim\']!="":\n                codegen=codegen+" --fields-terminated-by "+"\'" +posvars[\'field_delim\']+"\'";\n            if posvars[\'line_delim\']!="":\n                codegen=codegen+" --lines-terminated-by "+"\'" +posvars[\'line_delim\']+"\'";\n            if \'enclosed\' in posvars:\n                if posvars[\'enclosingchar\']==\'"\':\n                    posvars[\'enclosingchar\']=\'\\"\';\n                    codegen=codegen+" "+posvars[\'enclosed\']+" \'"+posvars[\'enclosingchar\']+ "\'";\n\n    else:\n        os.remove(TABLE+".java");\n        os.remove(TABLE+".jar");\n        os.remove(TABLE+".class");\n        codegen=str;\n\n    codegen = codegen+" 2> err ; echo $?";\n#    echo "codegen command=".$codegen."<br/>";\n    output = os.popen(codegen).read()\n#    $output= shell_exec($codegen);\n\n    if output[output.__len__()-2]!="0":\n        return dice (message = "codegen wright")\n#       return "<br>??????????????Codegen error<br>";#echo $output;exit(0);\n\ndef main():\n    tables = []\n    path = \'/\'\n   # output = os.command(\'/home/hduser1/hadoop/bin/hadoop fs -ls "/" | tr -s \' \' | cut -d \' \' -f8\')\n    a = """/home/hduser/hadoop/bin/hadoop fs -ls "/" | tr -s \' \' | cut -d \' \' -f8"""\n    output = os.popen(a).read()\n    tokens = output.split(\'\\n\')\n    print "hahhaha"\n    error = ""\n    try :\n        connection = MySQLdb.connect(host=\'localhost\',user=\'root\', passwd=\'hadoop\', db=\'hadoop\')\n        print "connected"\n        cur=connection.cursor()     \n        query = "show tables";\n        cur.execute(query)\n        tables = cur.fetchall() \n        return dict(tokens=tokens,error=error,tables=tables)\n    except:\n        print "weee"\n        error = "failed to connect to MySQL: "\n        return dict(tokens=tokens,error=error,tables=tables)   \n   # proc = subprocess.Popen([\'/home/hduser1/hadoop/bin/hadoop\',\'fs\',\'-ls\',\'"/"\',\'|\',\'tr\',\'-s\' ,a,\'|\', \'cut\', \'-d\' , a    , \'-f8\'], stdout=subprocess.PIPE,shell=True)\n  #  (output,err) = proc.communicate()\n   # print "ran"\n   # print output\n   \n  #  print tokens\n    \n#def codegen():\n#    return dict(a="apple");    \n\n#print aa;\ndef action():\n    posvars = request.post_vars;\n    a="/home/hduser/sqoop/bin/sqoop import --connect jdbc:mysql://localhost/hadoop --username root --password \'hadoop\' --table login; echo $?"\n    a="pwd ; echo $?";\n    #output= os.popen(a).read();\n    #tokens=output.split(\'\\n\');\n    #print tokens;\n    #return dict(tokens=tokens,a=a);#,posvars=posvars);\n    comm = "/home/hduser/sqoop/bin/sqoop "+posvars[\'op\'];\n    if posvars[\'op\'] == "export":\n        if \'directory\' in posvars:   #isset($_POST[\'directory\']))\n            sourcedir=posvars[\'directory\']; #radio based input\n        if posvars[\'sourcedir\']!="":\n            sourcedir=posvars[\'sourcedir\']; #text based input : priority more\n\n        exp="";\n        if \'decrypt\' in posvars:\n            codegen();\n\n            array1=posvars[\'decrypt_columns\'].split(\',\');\n            print array1;\n            change_export(Table+".java",array1,posvars[\'deckey\']);\n            compile1();\n            exp="  --jar-file "+Table+".jar --class-name "+Table;\n    \n        comm=comm+" --connect jdbc:mysql://"+machine+"/"+database_name+" --username "+db_username+" --password \'"+password+"\' --table "+Table+" "+exp;\n\n        if \'update\' in posvars:\n            if posvars[\'refcol\']=="":\n                print "Specify the reference column<br/>";\n                exit(0);\n            comm=comm+" --update-key "+posvars[\'refcol\'];\n        comm=comm+" --export-dir "+sourcedir;\n        if \'validate\' in posvars:\n            comm=comm+" --validate";\n        if \'parallel1\' in posvars:\n            comm=comm+" -m "+posvars[\'parallel\'];\n\n        comm=comm+" ; echo $?";\n        print "Export command="+comm+"<br>";\n                       ####this is the main execute step .... not done because sqoop not working properly\n        #echo $output;\n#        val=output[strlen(output)-2];\n        val = "0";\n        if val=="0":#//;//shell_exec("echo $?");\n            print "<h2> Successfully Exported from HDFS to RDBMS:)</h2>";\n            \n        else:\n            print "<h2> Export from HDFS to RDBMS Failed :( </h2>";\n\n    elif posvars[\'op\'] == "import":\n\n        imp="";\n        if \'encrypt\' in posvars:\n            codegen();\n            array=posvars[\'encrypt_columns\'].split(\',\');#explode(",",$_POST[\'encrypt_columns\']);\n            #print_r($array);\n            #change_import($TABLE.".java",$array,$_POST[\'enckey\']);\n            compile();\n            imp="  --jar-file "+Table+".jar --class-name "+Table;\n        comm=comm + " --connect jdbc:mysql://"+machine+"/"+database_name+" --username "+db_username+" --password \'"+password+"\' --table "+Table+" "+imp;    \n        \n        if posvars[\'targetdir\']!="":\n            comm=com+" --target-dir "+posvars[\'targetdir\'];\n        elif \'directory\' not in posvars:\n            f=0;\n        elif posvars[\'directory\']!="default":\n            comm =comm+" --target-dir "+posvars[\'directory\'];\n\n#    if(isset($_POST[\'delete\']))$comm.= " --delete-tarPOST-dir";\n\n        if \'filetype\' in posvars:\n            comm=comm+ " "+posvars[\'filetype\'];\n        \n#    if(isset($_POST[\'importall\']))\n\n        if \'append\' in posvars:\n            comm= comm + " --append";                            \n        if posvars[\'where\']!="":\n            comm= comm + \' --where "\'+posvars[\'where\']+\'"\';\n\n        elif \'validate\' in posvars:\n            comm= comm+" --validate";\n\n        if \'encrypt\' not in posvars:\n    \n            if posvars[\'columns\']!="":\n                comm=comm+ " --columns "+\'"\'+posvars[\'columns\']+\'"\';\n            if posvars[\'field_delim\']!="":\n                comm=comm+" --fields-terminated-by "+"\'" +posvars[\'field_delim\']+"\'";\n            if posvars[\'line_delim\']!="":\n                comm=comm+" --lines-terminated-by "+"\'" +posvars[\'line_delim\']+"\'";    \n            if \'enclosed\' in posvars:\n                if posvars[\'enclosingchar\']==\'"\':\n                    posvars[\'enclosingchar\']=\'\\"\';\n                comm=comm+" "+posvars[\'enclosed\']+" \'"+posvars[\'enclosingchar\']+"\'";\n\n        if \'compressed\' in posvars:\n            comm=comm+" -z";\n        if \'parallel1\' in posvars:\n            comm=comm+" -m "+posvars[\'parallel\'];\n\n        comm=comm+ " ; echo $?";\n    #$comm="ls ; echo $?";\n#    echo "comm<br/>"; \n        output = os.popen(comm).read();\n#    output= shell_exec($comm);\n#    echo $output;\n        val=output[output.__len__()-2];\n#    echo $val;\n#    echo "---".$output[strlen($output)-1]."---"."---".$output[strlen($output)-2]."---"."---".$output[strlen($output)-3]."---"."<br/>";\n        if val=="0": #{//;//shell_exec("echo $?");\n            return dict(message = "Successfully Imported from RDBMS to HDFS",val=val);\n        else:\n            return dict(message = "Failed!",val = val);\n\n\n        \n    return dict(posvars = request.post_vars);\n\n\n\n#aa = main();\n#bb=action();\n\nresponse._vars=response._caller(action)\n'
p7
sS'snapshot'
p8
(dp9
S'exception'
p10
(dp11
S'__getslice__'
p12
S"<method-wrapper '__getslice__' of exceptions.OSError object>"
p13
sS'__str__'
p14
S"<method-wrapper '__str__' of exceptions.OSError object>"
p15
sS'__reduce__'
p16
S'<built-in method __reduce__ of exceptions.OSError object>'
p17
sS'__dict__'
p18
S'{}'
p19
sS'__sizeof__'
p20
S'<built-in method __sizeof__ of exceptions.OSError object>'
p21
sS'__init__'
p22
S"<method-wrapper '__init__' of exceptions.OSError object>"
p23
sS'__setattr__'
p24
S"<method-wrapper '__setattr__' of exceptions.OSError object>"
p25
sS'__reduce_ex__'
p26
S'<built-in method __reduce_ex__ of exceptions.OSError object>'
p27
sS'__new__'
p28
S'<built-in method __new__ of type object>'
p29
sS'errno'
p30
S'2'
sS'__format__'
p31
S'<built-in method __format__ of exceptions.OSError object>'
p32
sS'__class__'
p33
S"<type 'exceptions.OSError'>"
p34
sS'filename'
p35
S"'login.jar'"
p36
sS'__doc__'
p37
S"'OS system call failed.'"
p38
sS'__getitem__'
p39
S"<method-wrapper '__getitem__' of exceptions.OSError object>"
p40
sS'__setstate__'
p41
S'<built-in method __setstate__ of exceptions.OSError object>'
p42
sS'__getattribute__'
p43
S"<method-wrapper '__getattribute__' of exceptions.OSError object>"
p44
sS'args'
p45
S"(2, 'No such file or directory')"
p46
sS'__subclasshook__'
p47
S'<built-in method __subclasshook__ of type object>'
p48
sS'__unicode__'
p49
S'<built-in method __unicode__ of exceptions.OSError object>'
p50
sS'strerror'
p51
S"'No such file or directory'"
p52
sS'__delattr__'
p53
S"<method-wrapper '__delattr__' of exceptions.OSError object>"
p54
sS'__repr__'
p55
S"<method-wrapper '__repr__' of exceptions.OSError object>"
p56
sS'__hash__'
p57
S"<method-wrapper '__hash__' of exceptions.OSError object>"
p58
ssS'evalue'
p59
S"[Errno 2] No such file or directory: 'login.jar'"
p60
sS'request'
p61
ccopy_reg
_reconstructor
p62
(cgluon.html
BEAUTIFY
p63
c__builtin__
object
p64
NtRp65
(dp66
S'attributes'
p67
(dp68
sS'components'
p69
(lp70
g62
(cgluon.html
TABLE
p71
g64
NtRp72
(dp73
g67
(dp74
S'level'
p75
I5
ssS'parent'
p76
Nsg69
(lp77
g62
(cgluon.html
TR
p78
g64
NtRp79
(dp80
g67
(dp81
sg76
g72
sg69
(lp82
g62
(cgluon.html
TD
p83
g64
NtRp84
(dp85
g67
(dp86
S'_style'
p87
S'font-weight:bold;vertical-align:top'
p88
ssg76
g79
sg69
(lp89
S'ajax'
p90
asbag62
(g83
g64
NtRp91
(dp92
g67
(dp93
S'_valign'
p94
S'top'
p95
ssg76
g79
sg69
(lp96
S':'
asbag62
(g83
g64
NtRp97
(dp98
g67
(dp99
sg76
g79
sg69
(lp100
g62
(g63
g64
NtRp101
(dp102
g67
(dp103
g75
I5
ssg76
g97
sg69
(lp104
S'False'
p105
asbasbasbag62
(g78
g64
NtRp106
(dp107
g67
(dp108
sg76
g72
sg69
(lp109
g62
(g83
g64
NtRp110
(dp111
g67
(dp112
g87
g88
ssg76
g106
sg69
(lp113
S'application'
p114
asbag62
(g83
g64
NtRp115
(dp116
g67
(dp117
g94
g95
ssg76
g106
sg69
(lp118
S':'
asbag62
(g83
g64
NtRp119
(dp120
g67
(dp121
sg76
g106
sg69
(lp122
g62
(g63
g64
NtRp123
(dp124
g67
(dp125
g75
I5
ssg76
g119
sg69
(lp126
S'Hadoop'
p127
asbasbasbag62
(g78
g64
NtRp128
(dp129
g67
(dp130
sg76
g72
sg69
(lp131
g62
(g83
g64
NtRp132
(dp133
g67
(dp134
g87
g88
ssg76
g128
sg69
(lp135
g45
asbag62
(g83
g64
NtRp136
(dp137
g67
(dp138
g94
g95
ssg76
g128
sg69
(lp139
S':'
asbag62
(g83
g64
NtRp140
(dp141
g67
(dp142
sg76
g128
sg69
(lp143
g62
(g63
g64
NtRp144
(dp145
g67
(dp146
g75
I5
ssg76
g140
sg69
(lp147
g62
(g71
g64
NtRp148
(dp149
g67
(dp150
g75
I4
ssg76
Nsg69
(lp151
sbasbasbasbag62
(g78
g64
NtRp152
(dp153
g67
(dp154
sg76
g72
sg69
(lp155
g62
(g83
g64
NtRp156
(dp157
g67
(dp158
g87
g88
ssg76
g152
sg69
(lp159
S'body'
p160
asbag62
(g83
g64
NtRp161
(dp162
g67
(dp163
g94
g95
ssg76
g152
sg69
(lp164
S':'
asbag62
(g83
g64
NtRp165
(dp166
g67
(dp167
sg76
g152
sg69
(lp168
g62
(g63
g64
NtRp169
(dp170
g67
(dp171
g75
I5
ssg76
g165
sg69
(lp172
S"<open file '<fdopen>', mode 'w+b' at 0x7f9d7c2cc150>"
p173
asbasbasbag62
(g78
g64
NtRp174
(dp175
g67
(dp176
sg76
g72
sg69
(lp177
g62
(g83
g64
NtRp178
(dp179
g67
(dp180
g87
g88
ssg76
g174
sg69
(lp181
S'client'
p182
asbag62
(g83
g64
NtRp183
(dp184
g67
(dp185
g94
g95
ssg76
g174
sg69
(lp186
S':'
asbag62
(g83
g64
NtRp187
(dp188
g67
(dp189
sg76
g174
sg69
(lp190
g62
(g63
g64
NtRp191
(dp192
g67
(dp193
g75
I5
ssg76
g187
sg69
(lp194
S'127.0.0.1'
p195
asbasbasbag62
(g78
g64
NtRp196
(dp197
g67
(dp198
sg76
g72
sg69
(lp199
g62
(g83
g64
NtRp200
(dp201
g67
(dp202
g87
g88
ssg76
g196
sg69
(lp203
S'controller'
p204
asbag62
(g83
g64
NtRp205
(dp206
g67
(dp207
g94
g95
ssg76
g196
sg69
(lp208
S':'
asbag62
(g83
g64
NtRp209
(dp210
g67
(dp211
sg76
g196
sg69
(lp212
g62
(g63
g64
NtRp213
(dp214
g67
(dp215
g75
I5
ssg76
g209
sg69
(lp216
S'default'
p217
asbasbasbag62
(g78
g64
NtRp218
(dp219
g67
(dp220
sg76
g72
sg69
(lp221
g62
(g83
g64
NtRp222
(dp223
g67
(dp224
g87
g88
ssg76
g218
sg69
(lp225
S'cookies'
p226
asbag62
(g83
g64
NtRp227
(dp228
g67
(dp229
g94
g95
ssg76
g218
sg69
(lp230
S':'
asbag62
(g83
g64
NtRp231
(dp232
g67
(dp233
sg76
g218
sg69
(lp234
g62
(g63
g64
NtRp235
(dp236
g67
(dp237
g75
I5
ssg76
g231
sg69
(lp238
g62
(g71
g64
NtRp239
(dp240
g67
(dp241
g75
I4
ssg76
Nsg69
(lp242
g62
(g78
g64
NtRp243
(dp244
g67
(dp245
sg76
g239
sg69
(lp246
g62
(g83
g64
NtRp247
(dp248
g67
(dp249
g87
g88
ssg76
g243
sg69
(lp250
S'session_id_admin'
p251
asbag62
(g83
g64
NtRp252
(dp253
g67
(dp254
g94
g95
ssg76
g243
sg69
(lp255
S':'
asbag62
(g83
g64
NtRp256
(dp257
g67
(dp258
sg76
g243
sg69
(lp259
g62
(g63
g64
NtRp260
(dp261
g67
(dp262
g75
I4
ssg76
g256
sg69
(lp263
g62
(g71
g64
NtRp264
(dp265
g67
(dp266
g75
I3
ssg76
Nsg69
(lp267
g62
(g78
g64
NtRp268
(dp269
g67
(dp270
sg76
g264
sg69
(lp271
g62
(g83
g64
NtRp272
(dp273
g67
(dp274
g87
g88
ssg76
g268
sg69
(lp275
S'comment'
p276
asbag62
(g83
g64
NtRp277
(dp278
g67
(dp279
g94
g95
ssg76
g268
sg69
(lp280
S':'
asbag62
(g83
g64
NtRp281
(dp282
g67
(dp283
sg76
g268
sg69
(lp284
g62
(g63
g64
NtRp285
(dp286
g67
(dp287
g75
I3
ssg76
g281
sg69
(lp288
S''
asbasbasbag62
(g78
g64
NtRp289
(dp290
g67
(dp291
sg76
g264
sg69
(lp292
g62
(g83
g64
NtRp293
(dp294
g67
(dp295
g87
g88
ssg76
g289
sg69
(lp296
S'domain'
p297
asbag62
(g83
g64
NtRp298
(dp299
g67
(dp300
g94
g95
ssg76
g289
sg69
(lp301
S':'
asbag62
(g83
g64
NtRp302
(dp303
g67
(dp304
sg76
g289
sg69
(lp305
g62
(g63
g64
NtRp306
(dp307
g67
(dp308
g75
I3
ssg76
g302
sg69
(lp309
S''
asbasbasbag62
(g78
g64
NtRp310
(dp311
g67
(dp312
sg76
g264
sg69
(lp313
g62
(g83
g64
NtRp314
(dp315
g67
(dp316
g87
g88
ssg76
g310
sg69
(lp317
S'expires'
p318
asbag62
(g83
g64
NtRp319
(dp320
g67
(dp321
g94
g95
ssg76
g310
sg69
(lp322
S':'
asbag62
(g83
g64
NtRp323
(dp324
g67
(dp325
sg76
g310
sg69
(lp326
g62
(g63
g64
NtRp327
(dp328
g67
(dp329
g75
I3
ssg76
g323
sg69
(lp330
S''
asbasbasbag62
(g78
g64
NtRp331
(dp332
g67
(dp333
sg76
g264
sg69
(lp334
g62
(g83
g64
NtRp335
(dp336
g67
(dp337
g87
g88
ssg76
g331
sg69
(lp338
S'httponly'
p339
asbag62
(g83
g64
NtRp340
(dp341
g67
(dp342
g94
g95
ssg76
g331
sg69
(lp343
S':'
asbag62
(g83
g64
NtRp344
(dp345
g67
(dp346
sg76
g331
sg69
(lp347
g62
(g63
g64
NtRp348
(dp349
g67
(dp350
g75
I3
ssg76
g344
sg69
(lp351
S''
asbasbasbag62
(g78
g64
NtRp352
(dp353
g67
(dp354
sg76
g264
sg69
(lp355
g62
(g83
g64
NtRp356
(dp357
g67
(dp358
g87
g88
ssg76
g352
sg69
(lp359
S'max-age'
p360
asbag62
(g83
g64
NtRp361
(dp362
g67
(dp363
g94
g95
ssg76
g352
sg69
(lp364
S':'
asbag62
(g83
g64
NtRp365
(dp366
g67
(dp367
sg76
g352
sg69
(lp368
g62
(g63
g64
NtRp369
(dp370
g67
(dp371
g75
I3
ssg76
g365
sg69
(lp372
S''
asbasbasbag62
(g78
g64
NtRp373
(dp374
g67
(dp375
sg76
g264
sg69
(lp376
g62
(g83
g64
NtRp377
(dp378
g67
(dp379
g87
g88
ssg76
g373
sg69
(lp380
S'path'
p381
asbag62
(g83
g64
NtRp382
(dp383
g67
(dp384
g94
g95
ssg76
g373
sg69
(lp385
S':'
asbag62
(g83
g64
NtRp386
(dp387
g67
(dp388
sg76
g373
sg69
(lp389
g62
(g63
g64
NtRp390
(dp391
g67
(dp392
g75
I3
ssg76
g386
sg69
(lp393
S''
asbasbasbag62
(g78
g64
NtRp394
(dp395
g67
(dp396
sg76
g264
sg69
(lp397
g62
(g83
g64
NtRp398
(dp399
g67
(dp400
g87
g88
ssg76
g394
sg69
(lp401
S'secure'
p402
asbag62
(g83
g64
NtRp403
(dp404
g67
(dp405
g94
g95
ssg76
g394
sg69
(lp406
S':'
asbag62
(g83
g64
NtRp407
(dp408
g67
(dp409
sg76
g394
sg69
(lp410
g62
(g63
g64
NtRp411
(dp412
g67
(dp413
g75
I3
ssg76
g407
sg69
(lp414
S''
asbasbasbag62
(g78
g64
NtRp415
(dp416
g67
(dp417
sg76
g264
sg69
(lp418
g62
(g83
g64
NtRp419
(dp420
g67
(dp421
g87
g88
ssg76
g415
sg69
(lp422
S'version'
p423
asbag62
(g83
g64
NtRp424
(dp425
g67
(dp426
g94
g95
ssg76
g415
sg69
(lp427
S':'
asbag62
(g83
g64
NtRp428
(dp429
g67
(dp430
sg76
g415
sg69
(lp431
g62
(g63
g64
NtRp432
(dp433
g67
(dp434
g75
I3
ssg76
g428
sg69
(lp435
S''
asbasbasbasbasbasbasbag62
(g78
g64
NtRp436
(dp437
g67
(dp438
sg76
g239
sg69
(lp439
g62
(g83
g64
NtRp440
(dp441
g67
(dp442
g87
g88
ssg76
g436
sg69
(lp443
S'session_id_hadoop'
p444
asbag62
(g83
g64
NtRp445
(dp446
g67
(dp447
g94
g95
ssg76
g436
sg69
(lp448
S':'
asbag62
(g83
g64
NtRp449
(dp450
g67
(dp451
sg76
g436
sg69
(lp452
g62
(g63
g64
NtRp453
(dp454
g67
(dp455
g75
I4
ssg76
g449
sg69
(lp456
g62
(g71
g64
NtRp457
(dp458
g67
(dp459
g75
I3
ssg76
Nsg69
(lp460
g62
(g78
g64
NtRp461
(dp462
g67
(dp463
sg76
g457
sg69
(lp464
g62
(g83
g64
NtRp465
(dp466
g67
(dp467
g87
g88
ssg76
g461
sg69
(lp468
g276
asbag62
(g83
g64
NtRp469
(dp470
g67
(dp471
g94
g95
ssg76
g461
sg69
(lp472
S':'
asbag62
(g83
g64
NtRp473
(dp474
g67
(dp475
sg76
g461
sg69
(lp476
g62
(g63
g64
NtRp477
(dp478
g67
(dp479
g75
I3
ssg76
g473
sg69
(lp480
S''
asbasbasbag62
(g78
g64
NtRp481
(dp482
g67
(dp483
sg76
g457
sg69
(lp484
g62
(g83
g64
NtRp485
(dp486
g67
(dp487
g87
g88
ssg76
g481
sg69
(lp488
g297
asbag62
(g83
g64
NtRp489
(dp490
g67
(dp491
g94
g95
ssg76
g481
sg69
(lp492
S':'
asbag62
(g83
g64
NtRp493
(dp494
g67
(dp495
sg76
g481
sg69
(lp496
g62
(g63
g64
NtRp497
(dp498
g67
(dp499
g75
I3
ssg76
g493
sg69
(lp500
S''
asbasbasbag62
(g78
g64
NtRp501
(dp502
g67
(dp503
sg76
g457
sg69
(lp504
g62
(g83
g64
NtRp505
(dp506
g67
(dp507
g87
g88
ssg76
g501
sg69
(lp508
g318
asbag62
(g83
g64
NtRp509
(dp510
g67
(dp511
g94
g95
ssg76
g501
sg69
(lp512
S':'
asbag62
(g83
g64
NtRp513
(dp514
g67
(dp515
sg76
g501
sg69
(lp516
g62
(g63
g64
NtRp517
(dp518
g67
(dp519
g75
I3
ssg76
g513
sg69
(lp520
S''
asbasbasbag62
(g78
g64
NtRp521
(dp522
g67
(dp523
sg76
g457
sg69
(lp524
g62
(g83
g64
NtRp525
(dp526
g67
(dp527
g87
g88
ssg76
g521
sg69
(lp528
g339
asbag62
(g83
g64
NtRp529
(dp530
g67
(dp531
g94
g95
ssg76
g521
sg69
(lp532
S':'
asbag62
(g83
g64
NtRp533
(dp534
g67
(dp535
sg76
g521
sg69
(lp536
g62
(g63
g64
NtRp537
(dp538
g67
(dp539
g75
I3
ssg76
g533
sg69
(lp540
S''
asbasbasbag62
(g78
g64
NtRp541
(dp542
g67
(dp543
sg76
g457
sg69
(lp544
g62
(g83
g64
NtRp545
(dp546
g67
(dp547
g87
g88
ssg76
g541
sg69
(lp548
g360
asbag62
(g83
g64
NtRp549
(dp550
g67
(dp551
g94
g95
ssg76
g541
sg69
(lp552
S':'
asbag62
(g83
g64
NtRp553
(dp554
g67
(dp555
sg76
g541
sg69
(lp556
g62
(g63
g64
NtRp557
(dp558
g67
(dp559
g75
I3
ssg76
g553
sg69
(lp560
S''
asbasbasbag62
(g78
g64
NtRp561
(dp562
g67
(dp563
sg76
g457
sg69
(lp564
g62
(g83
g64
NtRp565
(dp566
g67
(dp567
g87
g88
ssg76
g561
sg69
(lp568
g381
asbag62
(g83
g64
NtRp569
(dp570
g67
(dp571
g94
g95
ssg76
g561
sg69
(lp572
S':'
asbag62
(g83
g64
NtRp573
(dp574
g67
(dp575
sg76
g561
sg69
(lp576
g62
(g63
g64
NtRp577
(dp578
g67
(dp579
g75
I3
ssg76
g573
sg69
(lp580
S''
asbasbasbag62
(g78
g64
NtRp581
(dp582
g67
(dp583
sg76
g457
sg69
(lp584
g62
(g83
g64
NtRp585
(dp586
g67
(dp587
g87
g88
ssg76
g581
sg69
(lp588
g402
asbag62
(g83
g64
NtRp589
(dp590
g67
(dp591
g94
g95
ssg76
g581
sg69
(lp592
S':'
asbag62
(g83
g64
NtRp593
(dp594
g67
(dp595
sg76
g581
sg69
(lp596
g62
(g63
g64
NtRp597
(dp598
g67
(dp599
g75
I3
ssg76
g593
sg69
(lp600
S''
asbasbasbag62
(g78
g64
NtRp601
(dp602
g67
(dp603
sg76
g457
sg69
(lp604
g62
(g83
g64
NtRp605
(dp606
g67
(dp607
g87
g88
ssg76
g601
sg69
(lp608
g423
asbag62
(g83
g64
NtRp609
(dp610
g67
(dp611
g94
g95
ssg76
g601
sg69
(lp612
S':'
asbag62
(g83
g64
NtRp613
(dp614
g67
(dp615
sg76
g601
sg69
(lp616
g62
(g63
g64
NtRp617
(dp618
g67
(dp619
g75
I3
ssg76
g613
sg69
(lp620
S''
asbasbasbasbasbasbasbag62
(g78
g64
NtRp621
(dp622
g67
(dp623
sg76
g239
sg69
(lp624
g62
(g83
g64
NtRp625
(dp626
g67
(dp627
g87
g88
ssg76
g621
sg69
(lp628
S'session_id_welcome'
p629
asbag62
(g83
g64
NtRp630
(dp631
g67
(dp632
g94
g95
ssg76
g621
sg69
(lp633
S':'
asbag62
(g83
g64
NtRp634
(dp635
g67
(dp636
sg76
g621
sg69
(lp637
g62
(g63
g64
NtRp638
(dp639
g67
(dp640
g75
I4
ssg76
g634
sg69
(lp641
g62
(g71
g64
NtRp642
(dp643
g67
(dp644
g75
I3
ssg76
Nsg69
(lp645
g62
(g78
g64
NtRp646
(dp647
g67
(dp648
sg76
g642
sg69
(lp649
g62
(g83
g64
NtRp650
(dp651
g67
(dp652
g87
g88
ssg76
g646
sg69
(lp653
g276
asbag62
(g83
g64
NtRp654
(dp655
g67
(dp656
g94
g95
ssg76
g646
sg69
(lp657
S':'
asbag62
(g83
g64
NtRp658
(dp659
g67
(dp660
sg76
g646
sg69
(lp661
g62
(g63
g64
NtRp662
(dp663
g67
(dp664
g75
I3
ssg76
g658
sg69
(lp665
S''
asbasbasbag62
(g78
g64
NtRp666
(dp667
g67
(dp668
sg76
g642
sg69
(lp669
g62
(g83
g64
NtRp670
(dp671
g67
(dp672
g87
g88
ssg76
g666
sg69
(lp673
g297
asbag62
(g83
g64
NtRp674
(dp675
g67
(dp676
g94
g95
ssg76
g666
sg69
(lp677
S':'
asbag62
(g83
g64
NtRp678
(dp679
g67
(dp680
sg76
g666
sg69
(lp681
g62
(g63
g64
NtRp682
(dp683
g67
(dp684
g75
I3
ssg76
g678
sg69
(lp685
S''
asbasbasbag62
(g78
g64
NtRp686
(dp687
g67
(dp688
sg76
g642
sg69
(lp689
g62
(g83
g64
NtRp690
(dp691
g67
(dp692
g87
g88
ssg76
g686
sg69
(lp693
g318
asbag62
(g83
g64
NtRp694
(dp695
g67
(dp696
g94
g95
ssg76
g686
sg69
(lp697
S':'
asbag62
(g83
g64
NtRp698
(dp699
g67
(dp700
sg76
g686
sg69
(lp701
g62
(g63
g64
NtRp702
(dp703
g67
(dp704
g75
I3
ssg76
g698
sg69
(lp705
S''
asbasbasbag62
(g78
g64
NtRp706
(dp707
g67
(dp708
sg76
g642
sg69
(lp709
g62
(g83
g64
NtRp710
(dp711
g67
(dp712
g87
g88
ssg76
g706
sg69
(lp713
g339
asbag62
(g83
g64
NtRp714
(dp715
g67
(dp716
g94
g95
ssg76
g706
sg69
(lp717
S':'
asbag62
(g83
g64
NtRp718
(dp719
g67
(dp720
sg76
g706
sg69
(lp721
g62
(g63
g64
NtRp722
(dp723
g67
(dp724
g75
I3
ssg76
g718
sg69
(lp725
S''
asbasbasbag62
(g78
g64
NtRp726
(dp727
g67
(dp728
sg76
g642
sg69
(lp729
g62
(g83
g64
NtRp730
(dp731
g67
(dp732
g87
g88
ssg76
g726
sg69
(lp733
g360
asbag62
(g83
g64
NtRp734
(dp735
g67
(dp736
g94
g95
ssg76
g726
sg69
(lp737
S':'
asbag62
(g83
g64
NtRp738
(dp739
g67
(dp740
sg76
g726
sg69
(lp741
g62
(g63
g64
NtRp742
(dp743
g67
(dp744
g75
I3
ssg76
g738
sg69
(lp745
S''
asbasbasbag62
(g78
g64
NtRp746
(dp747
g67
(dp748
sg76
g642
sg69
(lp749
g62
(g83
g64
NtRp750
(dp751
g67
(dp752
g87
g88
ssg76
g746
sg69
(lp753
g381
asbag62
(g83
g64
NtRp754
(dp755
g67
(dp756
g94
g95
ssg76
g746
sg69
(lp757
S':'
asbag62
(g83
g64
NtRp758
(dp759
g67
(dp760
sg76
g746
sg69
(lp761
g62
(g63
g64
NtRp762
(dp763
g67
(dp764
g75
I3
ssg76
g758
sg69
(lp765
S''
asbasbasbag62
(g78
g64
NtRp766
(dp767
g67
(dp768
sg76
g642
sg69
(lp769
g62
(g83
g64
NtRp770
(dp771
g67
(dp772
g87
g88
ssg76
g766
sg69
(lp773
g402
asbag62
(g83
g64
NtRp774
(dp775
g67
(dp776
g94
g95
ssg76
g766
sg69
(lp777
S':'
asbag62
(g83
g64
NtRp778
(dp779
g67
(dp780
sg76
g766
sg69
(lp781
g62
(g63
g64
NtRp782
(dp783
g67
(dp784
g75
I3
ssg76
g778
sg69
(lp785
S''
asbasbasbag62
(g78
g64
NtRp786
(dp787
g67
(dp788
sg76
g642
sg69
(lp789
g62
(g83
g64
NtRp790
(dp791
g67
(dp792
g87
g88
ssg76
g786
sg69
(lp793
g423
asbag62
(g83
g64
NtRp794
(dp795
g67
(dp796
g94
g95
ssg76
g786
sg69
(lp797
S':'
asbag62
(g83
g64
NtRp798
(dp799
g67
(dp800
sg76
g786
sg69
(lp801
g62
(g63
g64
NtRp802
(dp803
g67
(dp804
g75
I3
ssg76
g798
sg69
(lp805
S''
asbasbasbasbasbasbasbasbasbasbasbag62
(g78
g64
NtRp806
(dp807
g67
(dp808
sg76
g72
sg69
(lp809
g62
(g83
g64
NtRp810
(dp811
g67
(dp812
g87
g88
ssg76
g806
sg69
(lp813
S'env'
p814
asbag62
(g83
g64
NtRp815
(dp816
g67
(dp817
g94
g95
ssg76
g806
sg69
(lp818
S':'
asbag62
(g83
g64
NtRp819
(dp820
g67
(dp821
sg76
g806
sg69
(lp822
g62
(g63
g64
NtRp823
(dp824
g67
(dp825
g75
I5
ssg76
g819
sg69
(lp826
g62
(g71
g64
NtRp827
(dp828
g67
(dp829
g75
I4
ssg76
Nsg69
(lp830
g62
(g78
g64
NtRp831
(dp832
g67
(dp833
sg76
g827
sg69
(lp834
g62
(g83
g64
NtRp835
(dp836
g67
(dp837
g87
g88
ssg76
g831
sg69
(lp838
S'app_folders'
p839
asbag62
(g83
g64
NtRp840
(dp841
g67
(dp842
g94
g95
ssg76
g831
sg69
(lp843
S':'
asbag62
(g83
g64
NtRp844
(dp845
g67
(dp846
sg76
g831
sg69
(lp847
g62
(g63
g64
NtRp848
(dp849
g67
(dp850
g75
I4
ssg76
g844
sg69
(lp851
S"set(['/home/hduser/web2py/applications/admin/', '/home/hduser/web2py/applications/welcome/', '/home/hduser/web2py/applications/Hadoop/'])"
p852
asbasbasbag62
(g78
g64
NtRp853
(dp854
g67
(dp855
sg76
g827
sg69
(lp856
g62
(g83
g64
NtRp857
(dp858
g67
(dp859
g87
g88
ssg76
g853
sg69
(lp860
S'applications_parent'
p861
asbag62
(g83
g64
NtRp862
(dp863
g67
(dp864
g94
g95
ssg76
g853
sg69
(lp865
S':'
asbag62
(g83
g64
NtRp866
(dp867
g67
(dp868
sg76
g853
sg69
(lp869
g62
(g63
g64
NtRp870
(dp871
g67
(dp872
g75
I4
ssg76
g866
sg69
(lp873
S'/home/hduser/web2py'
p874
asbasbasbag62
(g78
g64
NtRp875
(dp876
g67
(dp877
sg76
g827
sg69
(lp878
g62
(g83
g64
NtRp879
(dp880
g67
(dp881
g87
g88
ssg76
g875
sg69
(lp882
S'cmd_args'
p883
asbag62
(g83
g64
NtRp884
(dp885
g67
(dp886
g94
g95
ssg76
g875
sg69
(lp887
S':'
asbag62
(g83
g64
NtRp888
(dp889
g67
(dp890
sg76
g875
sg69
(lp891
g62
(g63
g64
NtRp892
(dp893
g67
(dp894
g75
I4
ssg76
g888
sg69
(lp895
g62
(g71
g64
NtRp896
(dp897
g67
(dp898
g75
I3
ssg76
Nsg69
(lp899
sbasbasbasbag62
(g78
g64
NtRp900
(dp901
g67
(dp902
sg76
g827
sg69
(lp903
g62
(g83
g64
NtRp904
(dp905
g67
(dp906
g87
g88
ssg76
g900
sg69
(lp907
S'cmd_options'
p908
asbag62
(g83
g64
NtRp909
(dp910
g67
(dp911
g94
g95
ssg76
g900
sg69
(lp912
S':'
asbag62
(g83
g64
NtRp913
(dp914
g67
(dp915
sg76
g900
sg69
(lp916
g62
(g63
g64
NtRp917
(dp918
g67
(dp919
g75
I4
ssg76
g913
sg69
(lp920
S"<Values at 0x2733248: {'verbose': False, 'ip': '127.0.0.1', 'shutdown_timeout': 5, 'taskbar': False, 'port': 8000, 'maxthreads': None, 'softcron': False, 'server_name': 'Dell-XPS', 'bpython': False, 'nogui': False, 'nocron': False, 'extcron': False, 'debuglevel': 30, 'test': None, 'folder': '/home/hduser/web2py', 'config': '', 'import_models': False, 'winservice': '', 'shell': None, 'run': '', 'log_filename': 'httpserver.log', 'args': [''], 'socket_timeout': 1, 'profiler_filename': None, 'ssl_private_key': '', 'password': '<ask>', 'request_queue_size': 5, 'ssl_certificate': '', 'cronjob': False, 'plain': False, 'quiet': False, 'interfaces': None, 'minthreads': None, 'timeout': 10, 'numthreads': None, 'nobanner': False, 'pid_filename': 'httpserver.pid'}>"
p921
asbasbasbag62
(g78
g64
NtRp922
(dp923
g67
(dp924
sg76
g827
sg69
(lp925
g62
(g83
g64
NtRp926
(dp927
g67
(dp928
g87
g88
ssg76
g922
sg69
(lp929
S'content_length'
p930
asbag62
(g83
g64
NtRp931
(dp932
g67
(dp933
g94
g95
ssg76
g922
sg69
(lp934
S':'
asbag62
(g83
g64
NtRp935
(dp936
g67
(dp937
sg76
g922
sg69
(lp938
g62
(g63
g64
NtRp939
(dp940
g67
(dp941
g75
I4
ssg76
g935
sg69
(lp942
S'2287'
p943
asbasbasbag62
(g78
g64
NtRp944
(dp945
g67
(dp946
sg76
g827
sg69
(lp947
g62
(g83
g64
NtRp948
(dp949
g67
(dp950
g87
g88
ssg76
g944
sg69
(lp951
S'content_type'
p952
asbag62
(g83
g64
NtRp953
(dp954
g67
(dp955
g94
g95
ssg76
g944
sg69
(lp956
S':'
asbag62
(g83
g64
NtRp957
(dp958
g67
(dp959
sg76
g944
sg69
(lp960
g62
(g63
g64
NtRp961
(dp962
g67
(dp963
g75
I4
ssg76
g957
sg69
(lp964
S'multipart/form-data; boundary=----WebKitFormBoundaryAD4hTTZFESU5K8Kx'
p965
asbasbasbag62
(g78
g64
NtRp966
(dp967
g67
(dp968
sg76
g827
sg69
(lp969
g62
(g83
g64
NtRp970
(dp971
g67
(dp972
g87
g88
ssg76
g966
sg69
(lp973
S'db_sessions'
p974
asbag62
(g83
g64
NtRp975
(dp976
g67
(dp977
g94
g95
ssg76
g966
sg69
(lp978
S':'
asbag62
(g83
g64
NtRp979
(dp980
g67
(dp981
sg76
g966
sg69
(lp982
g62
(g63
g64
NtRp983
(dp984
g67
(dp985
g75
I4
ssg76
g979
sg69
(lp986
S'set([])'
p987
asbasbasbag62
(g78
g64
NtRp988
(dp989
g67
(dp990
sg76
g827
sg69
(lp991
g62
(g83
g64
NtRp992
(dp993
g67
(dp994
g87
g88
ssg76
g988
sg69
(lp995
S'debugging'
p996
asbag62
(g83
g64
NtRp997
(dp998
g67
(dp999
g94
g95
ssg76
g988
sg69
(lp1000
S':'
asbag62
(g83
g64
NtRp1001
(dp1002
g67
(dp1003
sg76
g988
sg69
(lp1004
g62
(g63
g64
NtRp1005
(dp1006
g67
(dp1007
g75
I4
ssg76
g1001
sg69
(lp1008
g105
asbasbasbag62
(g78
g64
NtRp1009
(dp1010
g67
(dp1011
sg76
g827
sg69
(lp1012
g62
(g83
g64
NtRp1013
(dp1014
g67
(dp1015
g87
g88
ssg76
g1009
sg69
(lp1016
S'gluon_parent'
p1017
asbag62
(g83
g64
NtRp1018
(dp1019
g67
(dp1020
g94
g95
ssg76
g1009
sg69
(lp1021
S':'
asbag62
(g83
g64
NtRp1022
(dp1023
g67
(dp1024
sg76
g1009
sg69
(lp1025
g62
(g63
g64
NtRp1026
(dp1027
g67
(dp1028
g75
I4
ssg76
g1022
sg69
(lp1029
S'/usr/share/web2py'
p1030
asbasbasbag62
(g78
g64
NtRp1031
(dp1032
g67
(dp1033
sg76
g827
sg69
(lp1034
g62
(g83
g64
NtRp1035
(dp1036
g67
(dp1037
g87
g88
ssg76
g1031
sg69
(lp1038
S'http_accept'
p1039
asbag62
(g83
g64
NtRp1040
(dp1041
g67
(dp1042
g94
g95
ssg76
g1031
sg69
(lp1043
S':'
asbag62
(g83
g64
NtRp1044
(dp1045
g67
(dp1046
sg76
g1031
sg69
(lp1047
g62
(g63
g64
NtRp1048
(dp1049
g67
(dp1050
g75
I4
ssg76
g1044
sg69
(lp1051
S'text/html,application/xhtml+xml,application/xml;q=0.9,image/webp,*/*;q=0.8'
p1052
asbasbasbag62
(g78
g64
NtRp1053
(dp1054
g67
(dp1055
sg76
g827
sg69
(lp1056
g62
(g83
g64
NtRp1057
(dp1058
g67
(dp1059
g87
g88
ssg76
g1053
sg69
(lp1060
S'http_accept_encoding'
p1061
asbag62
(g83
g64
NtRp1062
(dp1063
g67
(dp1064
g94
g95
ssg76
g1053
sg69
(lp1065
S':'
asbag62
(g83
g64
NtRp1066
(dp1067
g67
(dp1068
sg76
g1053
sg69
(lp1069
g62
(g63
g64
NtRp1070
(dp1071
g67
(dp1072
g75
I4
ssg76
g1066
sg69
(lp1073
S'gzip,deflate,sdch'
p1074
asbasbasbag62
(g78
g64
NtRp1075
(dp1076
g67
(dp1077
sg76
g827
sg69
(lp1078
g62
(g83
g64
NtRp1079
(dp1080
g67
(dp1081
g87
g88
ssg76
g1075
sg69
(lp1082
S'http_accept_language'
p1083
asbag62
(g83
g64
NtRp1084
(dp1085
g67
(dp1086
g94
g95
ssg76
g1075
sg69
(lp1087
S':'
asbag62
(g83
g64
NtRp1088
(dp1089
g67
(dp1090
sg76
g1075
sg69
(lp1091
g62
(g63
g64
NtRp1092
(dp1093
g67
(dp1094
g75
I4
ssg76
g1088
sg69
(lp1095
S'en-US,en;q=0.8'
p1096
asbasbasbag62
(g78
g64
NtRp1097
(dp1098
g67
(dp1099
sg76
g827
sg69
(lp1100
g62
(g83
g64
NtRp1101
(dp1102
g67
(dp1103
g87
g88
ssg76
g1097
sg69
(lp1104
S'http_cache_control'
p1105
asbag62
(g83
g64
NtRp1106
(dp1107
g67
(dp1108
g94
g95
ssg76
g1097
sg69
(lp1109
S':'
asbag62
(g83
g64
NtRp1110
(dp1111
g67
(dp1112
sg76
g1097
sg69
(lp1113
g62
(g63
g64
NtRp1114
(dp1115
g67
(dp1116
g75
I4
ssg76
g1110
sg69
(lp1117
S'max-age=0'
p1118
asbasbasbag62
(g78
g64
NtRp1119
(dp1120
g67
(dp1121
sg76
g827
sg69
(lp1122
g62
(g83
g64
NtRp1123
(dp1124
g67
(dp1125
g87
g88
ssg76
g1119
sg69
(lp1126
S'http_connection'
p1127
asbag62
(g83
g64
NtRp1128
(dp1129
g67
(dp1130
g94
g95
ssg76
g1119
sg69
(lp1131
S':'
asbag62
(g83
g64
NtRp1132
(dp1133
g67
(dp1134
sg76
g1119
sg69
(lp1135
g62
(g63
g64
NtRp1136
(dp1137
g67
(dp1138
g75
I4
ssg76
g1132
sg69
(lp1139
S'keep-alive'
p1140
asbasbasbag62
(g78
g64
NtRp1141
(dp1142
g67
(dp1143
sg76
g827
sg69
(lp1144
g62
(g83
g64
NtRp1145
(dp1146
g67
(dp1147
g87
g88
ssg76
g1141
sg69
(lp1148
S'http_content_length'
p1149
asbag62
(g83
g64
NtRp1150
(dp1151
g67
(dp1152
g94
g95
ssg76
g1141
sg69
(lp1153
S':'
asbag62
(g83
g64
NtRp1154
(dp1155
g67
(dp1156
sg76
g1141
sg69
(lp1157
g62
(g63
g64
NtRp1158
(dp1159
g67
(dp1160
g75
I4
ssg76
g1154
sg69
(lp1161
g943
asbasbasbag62
(g78
g64
NtRp1162
(dp1163
g67
(dp1164
sg76
g827
sg69
(lp1165
g62
(g83
g64
NtRp1166
(dp1167
g67
(dp1168
g87
g88
ssg76
g1162
sg69
(lp1169
S'http_content_type'
p1170
asbag62
(g83
g64
NtRp1171
(dp1172
g67
(dp1173
g94
g95
ssg76
g1162
sg69
(lp1174
S':'
asbag62
(g83
g64
NtRp1175
(dp1176
g67
(dp1177
sg76
g1162
sg69
(lp1178
g62
(g63
g64
NtRp1179
(dp1180
g67
(dp1181
g75
I4
ssg76
g1175
sg69
(lp1182
g965
asbasbasbag62
(g78
g64
NtRp1183
(dp1184
g67
(dp1185
sg76
g827
sg69
(lp1186
g62
(g83
g64
NtRp1187
(dp1188
g67
(dp1189
g87
g88
ssg76
g1183
sg69
(lp1190
S'http_cookie'
p1191
asbag62
(g83
g64
NtRp1192
(dp1193
g67
(dp1194
g94
g95
ssg76
g1183
sg69
(lp1195
S':'
asbag62
(g83
g64
NtRp1196
(dp1197
g67
(dp1198
sg76
g1183
sg69
(lp1199
g62
(g63
g64
NtRp1200
(dp1201
g67
(dp1202
g75
I4
ssg76
g1196
sg69
(lp1203
S'session_id_welcome=127.0.0.1-b9be2f52-d944-4053-b520-69fc0b8f570b; session_id_hadoop=127.0.0.1-14c1fe88-67c4-4303-84f0-ddc89284b85a; session_id_admin=127.0.0.1-b6c8b043-6af2-4567-9943-aa9f6606f575'
p1204
asbasbasbag62
(g78
g64
NtRp1205
(dp1206
g67
(dp1207
sg76
g827
sg69
(lp1208
g62
(g83
g64
NtRp1209
(dp1210
g67
(dp1211
g87
g88
ssg76
g1205
sg69
(lp1212
S'http_host'
p1213
asbag62
(g83
g64
NtRp1214
(dp1215
g67
(dp1216
g94
g95
ssg76
g1205
sg69
(lp1217
S':'
asbag62
(g83
g64
NtRp1218
(dp1219
g67
(dp1220
sg76
g1205
sg69
(lp1221
g62
(g63
g64
NtRp1222
(dp1223
g67
(dp1224
g75
I4
ssg76
g1218
sg69
(lp1225
S'127.0.0.1:8000'
p1226
asbasbasbag62
(g78
g64
NtRp1227
(dp1228
g67
(dp1229
sg76
g827
sg69
(lp1230
g62
(g83
g64
NtRp1231
(dp1232
g67
(dp1233
g87
g88
ssg76
g1227
sg69
(lp1234
S'http_origin'
p1235
asbag62
(g83
g64
NtRp1236
(dp1237
g67
(dp1238
g94
g95
ssg76
g1227
sg69
(lp1239
S':'
asbag62
(g83
g64
NtRp1240
(dp1241
g67
(dp1242
sg76
g1227
sg69
(lp1243
g62
(g63
g64
NtRp1244
(dp1245
g67
(dp1246
g75
I4
ssg76
g1240
sg69
(lp1247
S'http://127.0.0.1:8000'
p1248
asbasbasbag62
(g78
g64
NtRp1249
(dp1250
g67
(dp1251
sg76
g827
sg69
(lp1252
g62
(g83
g64
NtRp1253
(dp1254
g67
(dp1255
g87
g88
ssg76
g1249
sg69
(lp1256
S'http_referer'
p1257
asbag62
(g83
g64
NtRp1258
(dp1259
g67
(dp1260
g94
g95
ssg76
g1249
sg69
(lp1261
S':'
asbag62
(g83
g64
NtRp1262
(dp1263
g67
(dp1264
sg76
g1249
sg69
(lp1265
g62
(g63
g64
NtRp1266
(dp1267
g67
(dp1268
g75
I4
ssg76
g1262
sg69
(lp1269
S'http://127.0.0.1:8000/Hadoop/default/main'
p1270
asbasbasbag62
(g78
g64
NtRp1271
(dp1272
g67
(dp1273
sg76
g827
sg69
(lp1274
g62
(g83
g64
NtRp1275
(dp1276
g67
(dp1277
g87
g88
ssg76
g1271
sg69
(lp1278
S'http_user_agent'
p1279
asbag62
(g83
g64
NtRp1280
(dp1281
g67
(dp1282
g94
g95
ssg76
g1271
sg69
(lp1283
S':'
asbag62
(g83
g64
NtRp1284
(dp1285
g67
(dp1286
sg76
g1271
sg69
(lp1287
g62
(g63
g64
NtRp1288
(dp1289
g67
(dp1290
g75
I4
ssg76
g1284
sg69
(lp1291
S'Mozilla/5.0 (X11; Linux x86_64) AppleWebKit/537.36 (KHTML, like Gecko) Chrome/32.0.1700.77 Safari/537.36'
p1292
asbasbasbag62
(g78
g64
NtRp1293
(dp1294
g67
(dp1295
sg76
g827
sg69
(lp1296
g62
(g83
g64
NtRp1297
(dp1298
g67
(dp1299
g87
g88
ssg76
g1293
sg69
(lp1300
S'is_jython'
p1301
asbag62
(g83
g64
NtRp1302
(dp1303
g67
(dp1304
g94
g95
ssg76
g1293
sg69
(lp1305
S':'
asbag62
(g83
g64
NtRp1306
(dp1307
g67
(dp1308
sg76
g1293
sg69
(lp1309
g62
(g63
g64
NtRp1310
(dp1311
g67
(dp1312
g75
I4
ssg76
g1306
sg69
(lp1313
g105
asbasbasbag62
(g78
g64
NtRp1314
(dp1315
g67
(dp1316
sg76
g827
sg69
(lp1317
g62
(g83
g64
NtRp1318
(dp1319
g67
(dp1320
g87
g88
ssg76
g1314
sg69
(lp1321
S'is_pypy'
p1322
asbag62
(g83
g64
NtRp1323
(dp1324
g67
(dp1325
g94
g95
ssg76
g1314
sg69
(lp1326
S':'
asbag62
(g83
g64
NtRp1327
(dp1328
g67
(dp1329
sg76
g1314
sg69
(lp1330
g62
(g63
g64
NtRp1331
(dp1332
g67
(dp1333
g75
I4
ssg76
g1327
sg69
(lp1334
g105
asbasbasbag62
(g78
g64
NtRp1335
(dp1336
g67
(dp1337
sg76
g827
sg69
(lp1338
g62
(g83
g64
NtRp1339
(dp1340
g67
(dp1341
g87
g88
ssg76
g1335
sg69
(lp1342
S'path_info'
p1343
asbag62
(g83
g64
NtRp1344
(dp1345
g67
(dp1346
g94
g95
ssg76
g1335
sg69
(lp1347
S':'
asbag62
(g83
g64
NtRp1348
(dp1349
g67
(dp1350
sg76
g1335
sg69
(lp1351
g62
(g63
g64
NtRp1352
(dp1353
g67
(dp1354
g75
I4
ssg76
g1348
sg69
(lp1355
S'/Hadoop/default/action'
p1356
asbasbasbag62
(g78
g64
NtRp1357
(dp1358
g67
(dp1359
sg76
g827
sg69
(lp1360
g62
(g83
g64
NtRp1361
(dp1362
g67
(dp1363
g87
g88
ssg76
g1357
sg69
(lp1364
S'query_string'
p1365
asbag62
(g83
g64
NtRp1366
(dp1367
g67
(dp1368
g94
g95
ssg76
g1357
sg69
(lp1369
S':'
asbag62
(g83
g64
NtRp1370
(dp1371
g67
(dp1372
sg76
g1357
sg69
(lp1373
g62
(g63
g64
NtRp1374
(dp1375
g67
(dp1376
g75
I4
ssg76
g1370
sg69
(lp1377
S''
asbasbasbag62
(g78
g64
NtRp1378
(dp1379
g67
(dp1380
sg76
g827
sg69
(lp1381
g62
(g83
g64
NtRp1382
(dp1383
g67
(dp1384
g87
g88
ssg76
g1378
sg69
(lp1385
S'remote_addr'
p1386
asbag62
(g83
g64
NtRp1387
(dp1388
g67
(dp1389
g94
g95
ssg76
g1378
sg69
(lp1390
S':'
asbag62
(g83
g64
NtRp1391
(dp1392
g67
(dp1393
sg76
g1378
sg69
(lp1394
g62
(g63
g64
NtRp1395
(dp1396
g67
(dp1397
g75
I4
ssg76
g1391
sg69
(lp1398
g195
asbasbasbag62
(g78
g64
NtRp1399
(dp1400
g67
(dp1401
sg76
g827
sg69
(lp1402
g62
(g83
g64
NtRp1403
(dp1404
g67
(dp1405
g87
g88
ssg76
g1399
sg69
(lp1406
S'remote_port'
p1407
asbag62
(g83
g64
NtRp1408
(dp1409
g67
(dp1410
g94
g95
ssg76
g1399
sg69
(lp1411
S':'
asbag62
(g83
g64
NtRp1412
(dp1413
g67
(dp1414
sg76
g1399
sg69
(lp1415
g62
(g63
g64
NtRp1416
(dp1417
g67
(dp1418
g75
I4
ssg76
g1412
sg69
(lp1419
S'54384'
p1420
asbasbasbag62
(g78
g64
NtRp1421
(dp1422
g67
(dp1423
sg76
g827
sg69
(lp1424
g62
(g83
g64
NtRp1425
(dp1426
g67
(dp1427
g87
g88
ssg76
g1421
sg69
(lp1428
S'request_method'
p1429
asbag62
(g83
g64
NtRp1430
(dp1431
g67
(dp1432
g94
g95
ssg76
g1421
sg69
(lp1433
S':'
asbag62
(g83
g64
NtRp1434
(dp1435
g67
(dp1436
sg76
g1421
sg69
(lp1437
g62
(g63
g64
NtRp1438
(dp1439
g67
(dp1440
g75
I4
ssg76
g1434
sg69
(lp1441
S'POST'
p1442
asbasbasbag62
(g78
g64
NtRp1443
(dp1444
g67
(dp1445
sg76
g827
sg69
(lp1446
g62
(g83
g64
NtRp1447
(dp1448
g67
(dp1449
g87
g88
ssg76
g1443
sg69
(lp1450
S'script_name'
p1451
asbag62
(g83
g64
NtRp1452
(dp1453
g67
(dp1454
g94
g95
ssg76
g1443
sg69
(lp1455
S':'
asbag62
(g83
g64
NtRp1456
(dp1457
g67
(dp1458
sg76
g1443
sg69
(lp1459
g62
(g63
g64
NtRp1460
(dp1461
g67
(dp1462
g75
I4
ssg76
g1456
sg69
(lp1463
S''
asbasbasbag62
(g78
g64
NtRp1464
(dp1465
g67
(dp1466
sg76
g827
sg69
(lp1467
g62
(g83
g64
NtRp1468
(dp1469
g67
(dp1470
g87
g88
ssg76
g1464
sg69
(lp1471
S'server_name'
p1472
asbag62
(g83
g64
NtRp1473
(dp1474
g67
(dp1475
g94
g95
ssg76
g1464
sg69
(lp1476
S':'
asbag62
(g83
g64
NtRp1477
(dp1478
g67
(dp1479
sg76
g1464
sg69
(lp1480
g62
(g63
g64
NtRp1481
(dp1482
g67
(dp1483
g75
I4
ssg76
g1477
sg69
(lp1484
S'Dell-XPS'
p1485
asbasbasbag62
(g78
g64
NtRp1486
(dp1487
g67
(dp1488
sg76
g827
sg69
(lp1489
g62
(g83
g64
NtRp1490
(dp1491
g67
(dp1492
g87
g88
ssg76
g1486
sg69
(lp1493
S'server_port'
p1494
asbag62
(g83
g64
NtRp1495
(dp1496
g67
(dp1497
g94
g95
ssg76
g1486
sg69
(lp1498
S':'
asbag62
(g83
g64
NtRp1499
(dp1500
g67
(dp1501
sg76
g1486
sg69
(lp1502
g62
(g63
g64
NtRp1503
(dp1504
g67
(dp1505
g75
I4
ssg76
g1499
sg69
(lp1506
S'8000'
p1507
asbasbasbag62
(g78
g64
NtRp1508
(dp1509
g67
(dp1510
sg76
g827
sg69
(lp1511
g62
(g83
g64
NtRp1512
(dp1513
g67
(dp1514
g87
g88
ssg76
g1508
sg69
(lp1515
S'server_protocol'
p1516
asbag62
(g83
g64
NtRp1517
(dp1518
g67
(dp1519
g94
g95
ssg76
g1508
sg69
(lp1520
S':'
asbag62
(g83
g64
NtRp1521
(dp1522
g67
(dp1523
sg76
g1508
sg69
(lp1524
g62
(g63
g64
NtRp1525
(dp1526
g67
(dp1527
g75
I4
ssg76
g1521
sg69
(lp1528
S'HTTP/1.1'
p1529
asbasbasbag62
(g78
g64
NtRp1530
(dp1531
g67
(dp1532
sg76
g827
sg69
(lp1533
g62
(g83
g64
NtRp1534
(dp1535
g67
(dp1536
g87
g88
ssg76
g1530
sg69
(lp1537
S'server_software'
p1538
asbag62
(g83
g64
NtRp1539
(dp1540
g67
(dp1541
g94
g95
ssg76
g1530
sg69
(lp1542
S':'
asbag62
(g83
g64
NtRp1543
(dp1544
g67
(dp1545
sg76
g1530
sg69
(lp1546
g62
(g63
g64
NtRp1547
(dp1548
g67
(dp1549
g75
I4
ssg76
g1543
sg69
(lp1550
S'Rocket 1.2.4'
p1551
asbasbasbag62
(g78
g64
NtRp1552
(dp1553
g67
(dp1554
sg76
g827
sg69
(lp1555
g62
(g83
g64
NtRp1556
(dp1557
g67
(dp1558
g87
g88
ssg76
g1552
sg69
(lp1559
S'web2py_crontype'
p1560
asbag62
(g83
g64
NtRp1561
(dp1562
g67
(dp1563
g94
g95
ssg76
g1552
sg69
(lp1564
S':'
asbag62
(g83
g64
NtRp1565
(dp1566
g67
(dp1567
sg76
g1552
sg69
(lp1568
g62
(g63
g64
NtRp1569
(dp1570
g67
(dp1571
g75
I4
ssg76
g1565
sg69
(lp1572
S'hard'
p1573
asbasbasbag62
(g78
g64
NtRp1574
(dp1575
g67
(dp1576
sg76
g827
sg69
(lp1577
g62
(g83
g64
NtRp1578
(dp1579
g67
(dp1580
g87
g88
ssg76
g1574
sg69
(lp1581
S'web2py_path'
p1582
asbag62
(g83
g64
NtRp1583
(dp1584
g67
(dp1585
g94
g95
ssg76
g1574
sg69
(lp1586
S':'
asbag62
(g83
g64
NtRp1587
(dp1588
g67
(dp1589
sg76
g1574
sg69
(lp1590
g62
(g63
g64
NtRp1591
(dp1592
g67
(dp1593
g75
I4
ssg76
g1587
sg69
(lp1594
g874
asbasbasbag62
(g78
g64
NtRp1595
(dp1596
g67
(dp1597
sg76
g827
sg69
(lp1598
g62
(g83
g64
NtRp1599
(dp1600
g67
(dp1601
g87
g88
ssg76
g1595
sg69
(lp1602
S'web2py_version'
p1603
asbag62
(g83
g64
NtRp1604
(dp1605
g67
(dp1606
g94
g95
ssg76
g1595
sg69
(lp1607
S':'
asbag62
(g83
g64
NtRp1608
(dp1609
g67
(dp1610
sg76
g1595
sg69
(lp1611
g62
(g63
g64
NtRp1612
(dp1613
g67
(dp1614
g75
I4
ssg76
g1608
sg69
(lp1615
g62
(g71
g64
NtRp1616
(dp1617
g67
(dp1618
g75
I3
ssg76
Nsg69
(lp1619
g62
(g78
g64
NtRp1620
(dp1621
g67
(dp1622
sg76
g1616
sg69
(lp1623
g62
(g83
g64
NtRp1624
(dp1625
g67
(dp1626
sg76
g1620
sg69
(lp1627
g62
(g63
g64
NtRp1628
(dp1629
g67
(dp1630
g75
I3
ssg76
g1624
sg69
(lp1631
S'1'
asbasbasbag62
(g78
g64
NtRp1632
(dp1633
g67
(dp1634
sg76
g1616
sg69
(lp1635
g62
(g83
g64
NtRp1636
(dp1637
g67
(dp1638
sg76
g1632
sg69
(lp1639
g62
(g63
g64
NtRp1640
(dp1641
g67
(dp1642
g75
I3
ssg76
g1636
sg69
(lp1643
S'99'
p1644
asbasbasbag62
(g78
g64
NtRp1645
(dp1646
g67
(dp1647
sg76
g1616
sg69
(lp1648
g62
(g83
g64
NtRp1649
(dp1650
g67
(dp1651
sg76
g1645
sg69
(lp1652
g62
(g63
g64
NtRp1653
(dp1654
g67
(dp1655
g75
I3
ssg76
g1649
sg69
(lp1656
S'4'
asbasbasbag62
(g78
g64
NtRp1657
(dp1658
g67
(dp1659
sg76
g1616
sg69
(lp1660
g62
(g83
g64
NtRp1661
(dp1662
g67
(dp1663
sg76
g1657
sg69
(lp1664
g62
(g63
g64
NtRp1665
(dp1666
g67
(dp1667
g75
I3
ssg76
g1661
sg69
(lp1668
S'datetime.datetime(2011, 12, 14, 14, 46, 14)'
p1669
asbasbasbag62
(g78
g64
NtRp1670
(dp1671
g67
(dp1672
sg76
g1616
sg69
(lp1673
g62
(g83
g64
NtRp1674
(dp1675
g67
(dp1676
sg76
g1670
sg69
(lp1677
g62
(g63
g64
NtRp1678
(dp1679
g67
(dp1680
g75
I3
ssg76
g1674
sg69
(lp1681
S'stable'
p1682
asbasbasbasbasbasbasbag62
(g78
g64
NtRp1683
(dp1684
g67
(dp1685
sg76
g827
sg69
(lp1686
g62
(g83
g64
NtRp1687
(dp1688
g67
(dp1689
g87
g88
ssg76
g1683
sg69
(lp1690
S'wsgi_errors'
p1691
asbag62
(g83
g64
NtRp1692
(dp1693
g67
(dp1694
g94
g95
ssg76
g1683
sg69
(lp1695
S':'
asbag62
(g83
g64
NtRp1696
(dp1697
g67
(dp1698
sg76
g1683
sg69
(lp1699
g62
(g63
g64
NtRp1700
(dp1701
g67
(dp1702
g75
I4
ssg76
g1696
sg69
(lp1703
S"<open file '<stderr>', mode 'w' at 0x7f9dc369f270>"
p1704
asbasbasbag62
(g78
g64
NtRp1705
(dp1706
g67
(dp1707
sg76
g827
sg69
(lp1708
g62
(g83
g64
NtRp1709
(dp1710
g67
(dp1711
g87
g88
ssg76
g1705
sg69
(lp1712
S'wsgi_file_wrapper'
p1713
asbag62
(g83
g64
NtRp1714
(dp1715
g67
(dp1716
g94
g95
ssg76
g1705
sg69
(lp1717
S':'
asbag62
(g83
g64
NtRp1718
(dp1719
g67
(dp1720
sg76
g1705
sg69
(lp1721
g62
(g63
g64
NtRp1722
(dp1723
g67
(dp1724
g75
I4
ssg76
g1718
sg69
(lp1725
S'<class wsgiref.util.FileWrapper at 0x267a1f0>'
p1726
asbasbasbag62
(g78
g64
NtRp1727
(dp1728
g67
(dp1729
sg76
g827
sg69
(lp1730
g62
(g83
g64
NtRp1731
(dp1732
g67
(dp1733
g87
g88
ssg76
g1727
sg69
(lp1734
S'wsgi_input'
p1735
asbag62
(g83
g64
NtRp1736
(dp1737
g67
(dp1738
g94
g95
ssg76
g1727
sg69
(lp1739
S':'
asbag62
(g83
g64
NtRp1740
(dp1741
g67
(dp1742
sg76
g1727
sg69
(lp1743
g62
(g63
g64
NtRp1744
(dp1745
g67
(dp1746
g75
I4
ssg76
g1740
sg69
(lp1747
S'<socket._fileobject object at 0x7f9d7c2ed150>'
p1748
asbasbasbag62
(g78
g64
NtRp1749
(dp1750
g67
(dp1751
sg76
g827
sg69
(lp1752
g62
(g83
g64
NtRp1753
(dp1754
g67
(dp1755
g87
g88
ssg76
g1749
sg69
(lp1756
S'wsgi_multiprocess'
p1757
asbag62
(g83
g64
NtRp1758
(dp1759
g67
(dp1760
g94
g95
ssg76
g1749
sg69
(lp1761
S':'
asbag62
(g83
g64
NtRp1762
(dp1763
g67
(dp1764
sg76
g1749
sg69
(lp1765
g62
(g63
g64
NtRp1766
(dp1767
g67
(dp1768
g75
I4
ssg76
g1762
sg69
(lp1769
g105
asbasbasbag62
(g78
g64
NtRp1770
(dp1771
g67
(dp1772
sg76
g827
sg69
(lp1773
g62
(g83
g64
NtRp1774
(dp1775
g67
(dp1776
g87
g88
ssg76
g1770
sg69
(lp1777
S'wsgi_multithread'
p1778
asbag62
(g83
g64
NtRp1779
(dp1780
g67
(dp1781
g94
g95
ssg76
g1770
sg69
(lp1782
S':'
asbag62
(g83
g64
NtRp1783
(dp1784
g67
(dp1785
sg76
g1770
sg69
(lp1786
g62
(g63
g64
NtRp1787
(dp1788
g67
(dp1789
g75
I4
ssg76
g1783
sg69
(lp1790
S'True'
p1791
asbasbasbag62
(g78
g64
NtRp1792
(dp1793
g67
(dp1794
sg76
g827
sg69
(lp1795
g62
(g83
g64
NtRp1796
(dp1797
g67
(dp1798
g87
g88
ssg76
g1792
sg69
(lp1799
S'wsgi_run_once'
p1800
asbag62
(g83
g64
NtRp1801
(dp1802
g67
(dp1803
g94
g95
ssg76
g1792
sg69
(lp1804
S':'
asbag62
(g83
g64
NtRp1805
(dp1806
g67
(dp1807
sg76
g1792
sg69
(lp1808
g62
(g63
g64
NtRp1809
(dp1810
g67
(dp1811
g75
I4
ssg76
g1805
sg69
(lp1812
g105
asbasbasbag62
(g78
g64
NtRp1813
(dp1814
g67
(dp1815
sg76
g827
sg69
(lp1816
g62
(g83
g64
NtRp1817
(dp1818
g67
(dp1819
g87
g88
ssg76
g1813
sg69
(lp1820
S'wsgi_url_scheme'
p1821
asbag62
(g83
g64
NtRp1822
(dp1823
g67
(dp1824
g94
g95
ssg76
g1813
sg69
(lp1825
S':'
asbag62
(g83
g64
NtRp1826
(dp1827
g67
(dp1828
sg76
g1813
sg69
(lp1829
g62
(g63
g64
NtRp1830
(dp1831
g67
(dp1832
g75
I4
ssg76
g1826
sg69
(lp1833
S'http'
p1834
asbasbasbag62
(g78
g64
NtRp1835
(dp1836
g67
(dp1837
sg76
g827
sg69
(lp1838
g62
(g83
g64
NtRp1839
(dp1840
g67
(dp1841
g87
g88
ssg76
g1835
sg69
(lp1842
S'wsgi_version'
p1843
asbag62
(g83
g64
NtRp1844
(dp1845
g67
(dp1846
g94
g95
ssg76
g1835
sg69
(lp1847
S':'
asbag62
(g83
g64
NtRp1848
(dp1849
g67
(dp1850
sg76
g1835
sg69
(lp1851
g62
(g63
g64
NtRp1852
(dp1853
g67
(dp1854
g75
I4
ssg76
g1848
sg69
(lp1855
g62
(g71
g64
NtRp1856
(dp1857
g67
(dp1858
g75
I3
ssg76
Nsg69
(lp1859
g62
(g78
g64
NtRp1860
(dp1861
g67
(dp1862
sg76
g1856
sg69
(lp1863
g62
(g83
g64
NtRp1864
(dp1865
g67
(dp1866
sg76
g1860
sg69
(lp1867
g62
(g63
g64
NtRp1868
(dp1869
g67
(dp1870
g75
I3
ssg76
g1864
sg69
(lp1871
S'1'
asbasbasbag62
(g78
g64
NtRp1872
(dp1873
g67
(dp1874
sg76
g1856
sg69
(lp1875
g62
(g83
g64
NtRp1876
(dp1877
g67
(dp1878
sg76
g1872
sg69
(lp1879
g62
(g63
g64
NtRp1880
(dp1881
g67
(dp1882
g75
I3
ssg76
g1876
sg69
(lp1883
S'0'
asbasbasbasbasbasbasbasbasbasbasbag62
(g78
g64
NtRp1884
(dp1885
g67
(dp1886
sg76
g72
sg69
(lp1887
g62
(g83
g64
NtRp1888
(dp1889
g67
(dp1890
g87
g88
ssg76
g1884
sg69
(lp1891
S'extension'
p1892
asbag62
(g83
g64
NtRp1893
(dp1894
g67
(dp1895
g94
g95
ssg76
g1884
sg69
(lp1896
S':'
asbag62
(g83
g64
NtRp1897
(dp1898
g67
(dp1899
sg76
g1884
sg69
(lp1900
g62
(g63
g64
NtRp1901
(dp1902
g67
(dp1903
g75
I5
ssg76
g1897
sg69
(lp1904
S'html'
p1905
asbasbasbag62
(g78
g64
NtRp1906
(dp1907
g67
(dp1908
sg76
g72
sg69
(lp1909
g62
(g83
g64
NtRp1910
(dp1911
g67
(dp1912
g87
g88
ssg76
g1906
sg69
(lp1913
S'folder'
p1914
asbag62
(g83
g64
NtRp1915
(dp1916
g67
(dp1917
g94
g95
ssg76
g1906
sg69
(lp1918
S':'
asbag62
(g83
g64
NtRp1919
(dp1920
g67
(dp1921
sg76
g1906
sg69
(lp1922
g62
(g63
g64
NtRp1923
(dp1924
g67
(dp1925
g75
I5
ssg76
g1919
sg69
(lp1926
S'/home/hduser/web2py/applications/Hadoop/'
p1927
asbasbasbag62
(g78
g64
NtRp1928
(dp1929
g67
(dp1930
sg76
g72
sg69
(lp1931
g62
(g83
g64
NtRp1932
(dp1933
g67
(dp1934
g87
g88
ssg76
g1928
sg69
(lp1935
S'function'
p1936
asbag62
(g83
g64
NtRp1937
(dp1938
g67
(dp1939
g94
g95
ssg76
g1928
sg69
(lp1940
S':'
asbag62
(g83
g64
NtRp1941
(dp1942
g67
(dp1943
sg76
g1928
sg69
(lp1944
g62
(g63
g64
NtRp1945
(dp1946
g67
(dp1947
g75
I5
ssg76
g1941
sg69
(lp1948
S'action'
p1949
asbasbasbag62
(g78
g64
NtRp1950
(dp1951
g67
(dp1952
sg76
g72
sg69
(lp1953
g62
(g83
g64
NtRp1954
(dp1955
g67
(dp1956
g87
g88
ssg76
g1950
sg69
(lp1957
S'get_vars'
p1958
asbag62
(g83
g64
NtRp1959
(dp1960
g67
(dp1961
g94
g95
ssg76
g1950
sg69
(lp1962
S':'
asbag62
(g83
g64
NtRp1963
(dp1964
g67
(dp1965
sg76
g1950
sg69
(lp1966
g62
(g63
g64
NtRp1967
(dp1968
g67
(dp1969
g75
I5
ssg76
g1963
sg69
(lp1970
g62
(g71
g64
NtRp1971
(dp1972
g67
(dp1973
g75
I4
ssg76
Nsg69
(lp1974
sbasbasbasbag62
(g78
g64
NtRp1975
(dp1976
g67
(dp1977
sg76
g72
sg69
(lp1978
g62
(g83
g64
NtRp1979
(dp1980
g67
(dp1981
g87
g88
ssg76
g1975
sg69
(lp1982
S'global_settings'
p1983
asbag62
(g83
g64
NtRp1984
(dp1985
g67
(dp1986
g94
g95
ssg76
g1975
sg69
(lp1987
S':'
asbag62
(g83
g64
NtRp1988
(dp1989
g67
(dp1990
sg76
g1975
sg69
(lp1991
g62
(g63
g64
NtRp1992
(dp1993
g67
(dp1994
g75
I5
ssg76
g1988
sg69
(lp1995
g62
(g71
g64
NtRp1996
(dp1997
g67
(dp1998
g75
I4
ssg76
Nsg69
(lp1999
g62
(g78
g64
NtRp2000
(dp2001
g67
(dp2002
sg76
g1996
sg69
(lp2003
g62
(g83
g64
NtRp2004
(dp2005
g67
(dp2006
g87
g88
ssg76
g2000
sg69
(lp2007
g839
asbag62
(g83
g64
NtRp2008
(dp2009
g67
(dp2010
g94
g95
ssg76
g2000
sg69
(lp2011
S':'
asbag62
(g83
g64
NtRp2012
(dp2013
g67
(dp2014
sg76
g2000
sg69
(lp2015
g62
(g63
g64
NtRp2016
(dp2017
g67
(dp2018
g75
I4
ssg76
g2012
sg69
(lp2019
S"set(['/home/hduser/web2py/applications/admin/', '/home/hduser/web2py/applications/welcome/', '/home/hduser/web2py/applications/Hadoop/'])"
p2020
asbasbasbag62
(g78
g64
NtRp2021
(dp2022
g67
(dp2023
sg76
g1996
sg69
(lp2024
g62
(g83
g64
NtRp2025
(dp2026
g67
(dp2027
g87
g88
ssg76
g2021
sg69
(lp2028
g861
asbag62
(g83
g64
NtRp2029
(dp2030
g67
(dp2031
g94
g95
ssg76
g2021
sg69
(lp2032
S':'
asbag62
(g83
g64
NtRp2033
(dp2034
g67
(dp2035
sg76
g2021
sg69
(lp2036
g62
(g63
g64
NtRp2037
(dp2038
g67
(dp2039
g75
I4
ssg76
g2033
sg69
(lp2040
g874
asbasbasbag62
(g78
g64
NtRp2041
(dp2042
g67
(dp2043
sg76
g1996
sg69
(lp2044
g62
(g83
g64
NtRp2045
(dp2046
g67
(dp2047
g87
g88
ssg76
g2041
sg69
(lp2048
g883
asbag62
(g83
g64
NtRp2049
(dp2050
g67
(dp2051
g94
g95
ssg76
g2041
sg69
(lp2052
S':'
asbag62
(g83
g64
NtRp2053
(dp2054
g67
(dp2055
sg76
g2041
sg69
(lp2056
g62
(g63
g64
NtRp2057
(dp2058
g67
(dp2059
g75
I4
ssg76
g2053
sg69
(lp2060
g62
(g71
g64
NtRp2061
(dp2062
g67
(dp2063
g75
I3
ssg76
Nsg69
(lp2064
sbasbasbasbag62
(g78
g64
NtRp2065
(dp2066
g67
(dp2067
sg76
g1996
sg69
(lp2068
g62
(g83
g64
NtRp2069
(dp2070
g67
(dp2071
g87
g88
ssg76
g2065
sg69
(lp2072
g908
asbag62
(g83
g64
NtRp2073
(dp2074
g67
(dp2075
g94
g95
ssg76
g2065
sg69
(lp2076
S':'
asbag62
(g83
g64
NtRp2077
(dp2078
g67
(dp2079
sg76
g2065
sg69
(lp2080
g62
(g63
g64
NtRp2081
(dp2082
g67
(dp2083
g75
I4
ssg76
g2077
sg69
(lp2084
S"<Values at 0x2733248: {'verbose': False, 'ip': '127.0.0.1', 'shutdown_timeout': 5, 'taskbar': False, 'port': 8000, 'maxthreads': None, 'softcron': False, 'server_name': 'Dell-XPS', 'bpython': False, 'nogui': False, 'nocron': False, 'extcron': False, 'debuglevel': 30, 'test': None, 'folder': '/home/hduser/web2py', 'config': '', 'import_models': False, 'winservice': '', 'shell': None, 'run': '', 'log_filename': 'httpserver.log', 'args': [''], 'socket_timeout': 1, 'profiler_filename': None, 'ssl_private_key': '', 'password': '<ask>', 'request_queue_size': 5, 'ssl_certificate': '', 'cronjob': False, 'plain': False, 'quiet': False, 'interfaces': None, 'minthreads': None, 'timeout': 10, 'numthreads': None, 'nobanner': False, 'pid_filename': 'httpserver.pid'}>"
p2085
asbasbasbag62
(g78
g64
NtRp2086
(dp2087
g67
(dp2088
sg76
g1996
sg69
(lp2089
g62
(g83
g64
NtRp2090
(dp2091
g67
(dp2092
g87
g88
ssg76
g2086
sg69
(lp2093
g974
asbag62
(g83
g64
NtRp2094
(dp2095
g67
(dp2096
g94
g95
ssg76
g2086
sg69
(lp2097
S':'
asbag62
(g83
g64
NtRp2098
(dp2099
g67
(dp2100
sg76
g2086
sg69
(lp2101
g62
(g63
g64
NtRp2102
(dp2103
g67
(dp2104
g75
I4
ssg76
g2098
sg69
(lp2105
S'set([])'
p2106
asbasbasbag62
(g78
g64
NtRp2107
(dp2108
g67
(dp2109
sg76
g1996
sg69
(lp2110
g62
(g83
g64
NtRp2111
(dp2112
g67
(dp2113
g87
g88
ssg76
g2107
sg69
(lp2114
g996
asbag62
(g83
g64
NtRp2115
(dp2116
g67
(dp2117
g94
g95
ssg76
g2107
sg69
(lp2118
S':'
asbag62
(g83
g64
NtRp2119
(dp2120
g67
(dp2121
sg76
g2107
sg69
(lp2122
g62
(g63
g64
NtRp2123
(dp2124
g67
(dp2125
g75
I4
ssg76
g2119
sg69
(lp2126
g105
asbasbasbag62
(g78
g64
NtRp2127
(dp2128
g67
(dp2129
sg76
g1996
sg69
(lp2130
g62
(g83
g64
NtRp2131
(dp2132
g67
(dp2133
g87
g88
ssg76
g2127
sg69
(lp2134
g1017
asbag62
(g83
g64
NtRp2135
(dp2136
g67
(dp2137
g94
g95
ssg76
g2127
sg69
(lp2138
S':'
asbag62
(g83
g64
NtRp2139
(dp2140
g67
(dp2141
sg76
g2127
sg69
(lp2142
g62
(g63
g64
NtRp2143
(dp2144
g67
(dp2145
g75
I4
ssg76
g2139
sg69
(lp2146
g1030
asbasbasbag62
(g78
g64
NtRp2147
(dp2148
g67
(dp2149
sg76
g1996
sg69
(lp2150
g62
(g83
g64
NtRp2151
(dp2152
g67
(dp2153
g87
g88
ssg76
g2147
sg69
(lp2154
g1301
asbag62
(g83
g64
NtRp2155
(dp2156
g67
(dp2157
g94
g95
ssg76
g2147
sg69
(lp2158
S':'
asbag62
(g83
g64
NtRp2159
(dp2160
g67
(dp2161
sg76
g2147
sg69
(lp2162
g62
(g63
g64
NtRp2163
(dp2164
g67
(dp2165
g75
I4
ssg76
g2159
sg69
(lp2166
g105
asbasbasbag62
(g78
g64
NtRp2167
(dp2168
g67
(dp2169
sg76
g1996
sg69
(lp2170
g62
(g83
g64
NtRp2171
(dp2172
g67
(dp2173
g87
g88
ssg76
g2167
sg69
(lp2174
g1322
asbag62
(g83
g64
NtRp2175
(dp2176
g67
(dp2177
g94
g95
ssg76
g2167
sg69
(lp2178
S':'
asbag62
(g83
g64
NtRp2179
(dp2180
g67
(dp2181
sg76
g2167
sg69
(lp2182
g62
(g63
g64
NtRp2183
(dp2184
g67
(dp2185
g75
I4
ssg76
g2179
sg69
(lp2186
g105
asbasbasbag62
(g78
g64
NtRp2187
(dp2188
g67
(dp2189
sg76
g1996
sg69
(lp2190
g62
(g83
g64
NtRp2191
(dp2192
g67
(dp2193
g87
g88
ssg76
g2187
sg69
(lp2194
g1560
asbag62
(g83
g64
NtRp2195
(dp2196
g67
(dp2197
g94
g95
ssg76
g2187
sg69
(lp2198
S':'
asbag62
(g83
g64
NtRp2199
(dp2200
g67
(dp2201
sg76
g2187
sg69
(lp2202
g62
(g63
g64
NtRp2203
(dp2204
g67
(dp2205
g75
I4
ssg76
g2199
sg69
(lp2206
g1573
asbasbasbag62
(g78
g64
NtRp2207
(dp2208
g67
(dp2209
sg76
g1996
sg69
(lp2210
g62
(g83
g64
NtRp2211
(dp2212
g67
(dp2213
g87
g88
ssg76
g2207
sg69
(lp2214
g1603
asbag62
(g83
g64
NtRp2215
(dp2216
g67
(dp2217
g94
g95
ssg76
g2207
sg69
(lp2218
S':'
asbag62
(g83
g64
NtRp2219
(dp2220
g67
(dp2221
sg76
g2207
sg69
(lp2222
g62
(g63
g64
NtRp2223
(dp2224
g67
(dp2225
g75
I4
ssg76
g2219
sg69
(lp2226
g62
(g71
g64
NtRp2227
(dp2228
g67
(dp2229
g75
I3
ssg76
Nsg69
(lp2230
g62
(g78
g64
NtRp2231
(dp2232
g67
(dp2233
sg76
g2227
sg69
(lp2234
g62
(g83
g64
NtRp2235
(dp2236
g67
(dp2237
sg76
g2231
sg69
(lp2238
g62
(g63
g64
NtRp2239
(dp2240
g67
(dp2241
g75
I3
ssg76
g2235
sg69
(lp2242
S'1'
asbasbasbag62
(g78
g64
NtRp2243
(dp2244
g67
(dp2245
sg76
g2227
sg69
(lp2246
g62
(g83
g64
NtRp2247
(dp2248
g67
(dp2249
sg76
g2243
sg69
(lp2250
g62
(g63
g64
NtRp2251
(dp2252
g67
(dp2253
g75
I3
ssg76
g2247
sg69
(lp2254
S'99'
p2255
asbasbasbag62
(g78
g64
NtRp2256
(dp2257
g67
(dp2258
sg76
g2227
sg69
(lp2259
g62
(g83
g64
NtRp2260
(dp2261
g67
(dp2262
sg76
g2256
sg69
(lp2263
g62
(g63
g64
NtRp2264
(dp2265
g67
(dp2266
g75
I3
ssg76
g2260
sg69
(lp2267
S'4'
asbasbasbag62
(g78
g64
NtRp2268
(dp2269
g67
(dp2270
sg76
g2227
sg69
(lp2271
g62
(g83
g64
NtRp2272
(dp2273
g67
(dp2274
sg76
g2268
sg69
(lp2275
g62
(g63
g64
NtRp2276
(dp2277
g67
(dp2278
g75
I3
ssg76
g2272
sg69
(lp2279
S'datetime.datetime(2011, 12, 14, 14, 46, 14)'
p2280
asbasbasbag62
(g78
g64
NtRp2281
(dp2282
g67
(dp2283
sg76
g2227
sg69
(lp2284
g62
(g83
g64
NtRp2285
(dp2286
g67
(dp2287
sg76
g2281
sg69
(lp2288
g62
(g63
g64
NtRp2289
(dp2290
g67
(dp2291
g75
I3
ssg76
g2285
sg69
(lp2292
g1682
asbasbasbasbasbasbasbasbasbasbasbag62
(g78
g64
NtRp2293
(dp2294
g67
(dp2295
sg76
g72
sg69
(lp2296
g62
(g83
g64
NtRp2297
(dp2298
g67
(dp2299
g87
g88
ssg76
g2293
sg69
(lp2300
S'is_https'
p2301
asbag62
(g83
g64
NtRp2302
(dp2303
g67
(dp2304
g94
g95
ssg76
g2293
sg69
(lp2305
S':'
asbag62
(g83
g64
NtRp2306
(dp2307
g67
(dp2308
sg76
g2293
sg69
(lp2309
g62
(g63
g64
NtRp2310
(dp2311
g67
(dp2312
g75
I5
ssg76
g2306
sg69
(lp2313
g105
asbasbasbag62
(g78
g64
NtRp2314
(dp2315
g67
(dp2316
sg76
g72
sg69
(lp2317
g62
(g83
g64
NtRp2318
(dp2319
g67
(dp2320
g87
g88
ssg76
g2314
sg69
(lp2321
S'is_local'
p2322
asbag62
(g83
g64
NtRp2323
(dp2324
g67
(dp2325
g94
g95
ssg76
g2314
sg69
(lp2326
S':'
asbag62
(g83
g64
NtRp2327
(dp2328
g67
(dp2329
sg76
g2314
sg69
(lp2330
g62
(g63
g64
NtRp2331
(dp2332
g67
(dp2333
g75
I5
ssg76
g2327
sg69
(lp2334
g1791
asbasbasbag62
(g78
g64
NtRp2335
(dp2336
g67
(dp2337
sg76
g72
sg69
(lp2338
g62
(g83
g64
NtRp2339
(dp2340
g67
(dp2341
g87
g88
ssg76
g2335
sg69
(lp2342
S'is_restful'
p2343
asbag62
(g83
g64
NtRp2344
(dp2345
g67
(dp2346
g94
g95
ssg76
g2335
sg69
(lp2347
S':'
asbag62
(g83
g64
NtRp2348
(dp2349
g67
(dp2350
sg76
g2335
sg69
(lp2351
g62
(g63
g64
NtRp2352
(dp2353
g67
(dp2354
g75
I5
ssg76
g2348
sg69
(lp2355
g105
asbasbasbag62
(g78
g64
NtRp2356
(dp2357
g67
(dp2358
sg76
g72
sg69
(lp2359
g62
(g83
g64
NtRp2360
(dp2361
g67
(dp2362
g87
g88
ssg76
g2356
sg69
(lp2363
S'now'
p2364
asbag62
(g83
g64
NtRp2365
(dp2366
g67
(dp2367
g94
g95
ssg76
g2356
sg69
(lp2368
S':'
asbag62
(g83
g64
NtRp2369
(dp2370
g67
(dp2371
sg76
g2356
sg69
(lp2372
g62
(g63
g64
NtRp2373
(dp2374
g67
(dp2375
g75
I5
ssg76
g2369
sg69
(lp2376
S'datetime.datetime(2014, 1, 23, 11, 8, 34, 250016)'
p2377
asbasbasbag62
(g78
g64
NtRp2378
(dp2379
g67
(dp2380
sg76
g72
sg69
(lp2381
g62
(g83
g64
NtRp2382
(dp2383
g67
(dp2384
g87
g88
ssg76
g2378
sg69
(lp2385
S'post_vars'
p2386
asbag62
(g83
g64
NtRp2387
(dp2388
g67
(dp2389
g94
g95
ssg76
g2378
sg69
(lp2390
S':'
asbag62
(g83
g64
NtRp2391
(dp2392
g67
(dp2393
sg76
g2378
sg69
(lp2394
g62
(g63
g64
NtRp2395
(dp2396
g67
(dp2397
g75
I5
ssg76
g2391
sg69
(lp2398
g62
(g71
g64
NtRp2399
(dp2400
g67
(dp2401
g75
I4
ssg76
Nsg69
(lp2402
g62
(g78
g64
NtRp2403
(dp2404
g67
(dp2405
sg76
g2399
sg69
(lp2406
g62
(g83
g64
NtRp2407
(dp2408
g67
(dp2409
g87
g88
ssg76
g2403
sg69
(lp2410
S'columns'
p2411
asbag62
(g83
g64
NtRp2412
(dp2413
g67
(dp2414
g94
g95
ssg76
g2403
sg69
(lp2415
S':'
asbag62
(g83
g64
NtRp2416
(dp2417
g67
(dp2418
sg76
g2403
sg69
(lp2419
g62
(g63
g64
NtRp2420
(dp2421
g67
(dp2422
g75
I4
ssg76
g2416
sg69
(lp2423
S'username,password'
p2424
asbasbasbag62
(g78
g64
NtRp2425
(dp2426
g67
(dp2427
sg76
g2399
sg69
(lp2428
g62
(g83
g64
NtRp2429
(dp2430
g67
(dp2431
g87
g88
ssg76
g2425
sg69
(lp2432
S'configtext'
p2433
asbag62
(g83
g64
NtRp2434
(dp2435
g67
(dp2436
g94
g95
ssg76
g2425
sg69
(lp2437
S':'
asbag62
(g83
g64
NtRp2438
(dp2439
g67
(dp2440
sg76
g2425
sg69
(lp2441
g62
(g63
g64
NtRp2442
(dp2443
g67
(dp2444
g75
I4
ssg76
g2438
sg69
(lp2445
S''
asbasbasbag62
(g78
g64
NtRp2446
(dp2447
g67
(dp2448
sg76
g2399
sg69
(lp2449
g62
(g83
g64
NtRp2450
(dp2451
g67
(dp2452
g87
g88
ssg76
g2446
sg69
(lp2453
S'database_name'
p2454
asbag62
(g83
g64
NtRp2455
(dp2456
g67
(dp2457
g94
g95
ssg76
g2446
sg69
(lp2458
S':'
asbag62
(g83
g64
NtRp2459
(dp2460
g67
(dp2461
sg76
g2446
sg69
(lp2462
g62
(g63
g64
NtRp2463
(dp2464
g67
(dp2465
g75
I4
ssg76
g2459
sg69
(lp2466
S'hadoop'
p2467
asbasbasbag62
(g78
g64
NtRp2468
(dp2469
g67
(dp2470
sg76
g2399
sg69
(lp2471
g62
(g83
g64
NtRp2472
(dp2473
g67
(dp2474
g87
g88
ssg76
g2468
sg69
(lp2475
S'db_username'
p2476
asbag62
(g83
g64
NtRp2477
(dp2478
g67
(dp2479
g94
g95
ssg76
g2468
sg69
(lp2480
S':'
asbag62
(g83
g64
NtRp2481
(dp2482
g67
(dp2483
sg76
g2468
sg69
(lp2484
g62
(g63
g64
NtRp2485
(dp2486
g67
(dp2487
g75
I4
ssg76
g2481
sg69
(lp2488
S'root'
p2489
asbasbasbag62
(g78
g64
NtRp2490
(dp2491
g67
(dp2492
sg76
g2399
sg69
(lp2493
g62
(g83
g64
NtRp2494
(dp2495
g67
(dp2496
g87
g88
ssg76
g2490
sg69
(lp2497
S'deckey'
p2498
asbag62
(g83
g64
NtRp2499
(dp2500
g67
(dp2501
g94
g95
ssg76
g2490
sg69
(lp2502
S':'
asbag62
(g83
g64
NtRp2503
(dp2504
g67
(dp2505
sg76
g2490
sg69
(lp2506
g62
(g63
g64
NtRp2507
(dp2508
g67
(dp2509
g75
I4
ssg76
g2503
sg69
(lp2510
S''
asbasbasbag62
(g78
g64
NtRp2511
(dp2512
g67
(dp2513
sg76
g2399
sg69
(lp2514
g62
(g83
g64
NtRp2515
(dp2516
g67
(dp2517
g87
g88
ssg76
g2511
sg69
(lp2518
S'decrypt_columns'
p2519
asbag62
(g83
g64
NtRp2520
(dp2521
g67
(dp2522
g94
g95
ssg76
g2511
sg69
(lp2523
S':'
asbag62
(g83
g64
NtRp2524
(dp2525
g67
(dp2526
sg76
g2511
sg69
(lp2527
g62
(g63
g64
NtRp2528
(dp2529
g67
(dp2530
g75
I4
ssg76
g2524
sg69
(lp2531
S'username,password'
p2532
asbasbasbag62
(g78
g64
NtRp2533
(dp2534
g67
(dp2535
sg76
g2399
sg69
(lp2536
g62
(g83
g64
NtRp2537
(dp2538
g67
(dp2539
g87
g88
ssg76
g2533
sg69
(lp2540
S'enckey'
p2541
asbag62
(g83
g64
NtRp2542
(dp2543
g67
(dp2544
g94
g95
ssg76
g2533
sg69
(lp2545
S':'
asbag62
(g83
g64
NtRp2546
(dp2547
g67
(dp2548
sg76
g2533
sg69
(lp2549
g62
(g63
g64
NtRp2550
(dp2551
g67
(dp2552
g75
I4
ssg76
g2546
sg69
(lp2553
S''
asbasbasbag62
(g78
g64
NtRp2554
(dp2555
g67
(dp2556
sg76
g2399
sg69
(lp2557
g62
(g83
g64
NtRp2558
(dp2559
g67
(dp2560
g87
g88
ssg76
g2554
sg69
(lp2561
S'enclosingchar'
p2562
asbag62
(g83
g64
NtRp2563
(dp2564
g67
(dp2565
g94
g95
ssg76
g2554
sg69
(lp2566
S':'
asbag62
(g83
g64
NtRp2567
(dp2568
g67
(dp2569
sg76
g2554
sg69
(lp2570
g62
(g63
g64
NtRp2571
(dp2572
g67
(dp2573
g75
I4
ssg76
g2567
sg69
(lp2574
S''
asbasbasbag62
(g78
g64
NtRp2575
(dp2576
g67
(dp2577
sg76
g2399
sg69
(lp2578
g62
(g83
g64
NtRp2579
(dp2580
g67
(dp2581
g87
g88
ssg76
g2575
sg69
(lp2582
S'encrypt'
p2583
asbag62
(g83
g64
NtRp2584
(dp2585
g67
(dp2586
g94
g95
ssg76
g2575
sg69
(lp2587
S':'
asbag62
(g83
g64
NtRp2588
(dp2589
g67
(dp2590
sg76
g2575
sg69
(lp2591
g62
(g63
g64
NtRp2592
(dp2593
g67
(dp2594
g75
I4
ssg76
g2588
sg69
(lp2595
S'yes'
p2596
asbasbasbag62
(g78
g64
NtRp2597
(dp2598
g67
(dp2599
sg76
g2399
sg69
(lp2600
g62
(g83
g64
NtRp2601
(dp2602
g67
(dp2603
g87
g88
ssg76
g2597
sg69
(lp2604
S'encrypt_columns'
p2605
asbag62
(g83
g64
NtRp2606
(dp2607
g67
(dp2608
g94
g95
ssg76
g2597
sg69
(lp2609
S':'
asbag62
(g83
g64
NtRp2610
(dp2611
g67
(dp2612
sg76
g2597
sg69
(lp2613
g62
(g63
g64
NtRp2614
(dp2615
g67
(dp2616
g75
I4
ssg76
g2610
sg69
(lp2617
S'username,password'
p2618
asbasbasbag62
(g78
g64
NtRp2619
(dp2620
g67
(dp2621
sg76
g2399
sg69
(lp2622
g62
(g83
g64
NtRp2623
(dp2624
g67
(dp2625
g87
g88
ssg76
g2619
sg69
(lp2626
S'field_delim'
p2627
asbag62
(g83
g64
NtRp2628
(dp2629
g67
(dp2630
g94
g95
ssg76
g2619
sg69
(lp2631
S':'
asbag62
(g83
g64
NtRp2632
(dp2633
g67
(dp2634
sg76
g2619
sg69
(lp2635
g62
(g63
g64
NtRp2636
(dp2637
g67
(dp2638
g75
I4
ssg76
g2632
sg69
(lp2639
S''
asbasbasbag62
(g78
g64
NtRp2640
(dp2641
g67
(dp2642
sg76
g2399
sg69
(lp2643
g62
(g83
g64
NtRp2644
(dp2645
g67
(dp2646
g87
g88
ssg76
g2640
sg69
(lp2647
S'file'
p2648
asbag62
(g83
g64
NtRp2649
(dp2650
g67
(dp2651
g94
g95
ssg76
g2640
sg69
(lp2652
S':'
asbag62
(g83
g64
NtRp2653
(dp2654
g67
(dp2655
sg76
g2640
sg69
(lp2656
g62
(g63
g64
NtRp2657
(dp2658
g67
(dp2659
g75
I4
ssg76
g2653
sg69
(lp2660
S''
asbasbasbag62
(g78
g64
NtRp2661
(dp2662
g67
(dp2663
sg76
g2399
sg69
(lp2664
g62
(g83
g64
NtRp2665
(dp2666
g67
(dp2667
g87
g88
ssg76
g2661
sg69
(lp2668
S'line_delim'
p2669
asbag62
(g83
g64
NtRp2670
(dp2671
g67
(dp2672
g94
g95
ssg76
g2661
sg69
(lp2673
S':'
asbag62
(g83
g64
NtRp2674
(dp2675
g67
(dp2676
sg76
g2661
sg69
(lp2677
g62
(g63
g64
NtRp2678
(dp2679
g67
(dp2680
g75
I4
ssg76
g2674
sg69
(lp2681
S''
asbasbasbag62
(g78
g64
NtRp2682
(dp2683
g67
(dp2684
sg76
g2399
sg69
(lp2685
g62
(g83
g64
NtRp2686
(dp2687
g67
(dp2688
g87
g88
ssg76
g2682
sg69
(lp2689
S'machine'
p2690
asbag62
(g83
g64
NtRp2691
(dp2692
g67
(dp2693
g94
g95
ssg76
g2682
sg69
(lp2694
S':'
asbag62
(g83
g64
NtRp2695
(dp2696
g67
(dp2697
sg76
g2682
sg69
(lp2698
g62
(g63
g64
NtRp2699
(dp2700
g67
(dp2701
g75
I4
ssg76
g2695
sg69
(lp2702
S'localhost'
p2703
asbasbasbag62
(g78
g64
NtRp2704
(dp2705
g67
(dp2706
sg76
g2399
sg69
(lp2707
g62
(g83
g64
NtRp2708
(dp2709
g67
(dp2710
g87
g88
ssg76
g2704
sg69
(lp2711
S'mytable'
p2712
asbag62
(g83
g64
NtRp2713
(dp2714
g67
(dp2715
g94
g95
ssg76
g2704
sg69
(lp2716
S':'
asbag62
(g83
g64
NtRp2717
(dp2718
g67
(dp2719
sg76
g2704
sg69
(lp2720
g62
(g63
g64
NtRp2721
(dp2722
g67
(dp2723
g75
I4
ssg76
g2717
sg69
(lp2724
S'login'
p2725
asbasbasbag62
(g78
g64
NtRp2726
(dp2727
g67
(dp2728
sg76
g2399
sg69
(lp2729
g62
(g83
g64
NtRp2730
(dp2731
g67
(dp2732
g87
g88
ssg76
g2726
sg69
(lp2733
S'op'
p2734
asbag62
(g83
g64
NtRp2735
(dp2736
g67
(dp2737
g94
g95
ssg76
g2726
sg69
(lp2738
S':'
asbag62
(g83
g64
NtRp2739
(dp2740
g67
(dp2741
sg76
g2726
sg69
(lp2742
g62
(g63
g64
NtRp2743
(dp2744
g67
(dp2745
g75
I4
ssg76
g2739
sg69
(lp2746
S'import'
p2747
asbasbasbag62
(g78
g64
NtRp2748
(dp2749
g67
(dp2750
sg76
g2399
sg69
(lp2751
g62
(g83
g64
NtRp2752
(dp2753
g67
(dp2754
g87
g88
ssg76
g2748
sg69
(lp2755
S'parallel'
p2756
asbag62
(g83
g64
NtRp2757
(dp2758
g67
(dp2759
g94
g95
ssg76
g2748
sg69
(lp2760
S':'
asbag62
(g83
g64
NtRp2761
(dp2762
g67
(dp2763
sg76
g2748
sg69
(lp2764
g62
(g63
g64
NtRp2765
(dp2766
g67
(dp2767
g75
I4
ssg76
g2761
sg69
(lp2768
S'5'
asbasbasbag62
(g78
g64
NtRp2769
(dp2770
g67
(dp2771
sg76
g2399
sg69
(lp2772
g62
(g83
g64
NtRp2773
(dp2774
g67
(dp2775
g87
g88
ssg76
g2769
sg69
(lp2776
S'password'
p2777
asbag62
(g83
g64
NtRp2778
(dp2779
g67
(dp2780
g94
g95
ssg76
g2769
sg69
(lp2781
S':'
asbag62
(g83
g64
NtRp2782
(dp2783
g67
(dp2784
sg76
g2769
sg69
(lp2785
g62
(g63
g64
NtRp2786
(dp2787
g67
(dp2788
g75
I4
ssg76
g2782
sg69
(lp2789
S''
asbasbasbag62
(g78
g64
NtRp2790
(dp2791
g67
(dp2792
sg76
g2399
sg69
(lp2793
g62
(g83
g64
NtRp2794
(dp2795
g67
(dp2796
g87
g88
ssg76
g2790
sg69
(lp2797
S'refcol'
p2798
asbag62
(g83
g64
NtRp2799
(dp2800
g67
(dp2801
g94
g95
ssg76
g2790
sg69
(lp2802
S':'
asbag62
(g83
g64
NtRp2803
(dp2804
g67
(dp2805
sg76
g2790
sg69
(lp2806
g62
(g63
g64
NtRp2807
(dp2808
g67
(dp2809
g75
I4
ssg76
g2803
sg69
(lp2810
S'id'
p2811
asbasbasbag62
(g78
g64
NtRp2812
(dp2813
g67
(dp2814
sg76
g2399
sg69
(lp2815
g62
(g83
g64
NtRp2816
(dp2817
g67
(dp2818
g87
g88
ssg76
g2812
sg69
(lp2819
S'sourcedir'
p2820
asbag62
(g83
g64
NtRp2821
(dp2822
g67
(dp2823
g94
g95
ssg76
g2812
sg69
(lp2824
S':'
asbag62
(g83
g64
NtRp2825
(dp2826
g67
(dp2827
sg76
g2812
sg69
(lp2828
g62
(g63
g64
NtRp2829
(dp2830
g67
(dp2831
g75
I4
ssg76
g2825
sg69
(lp2832
S''
asbasbasbag62
(g78
g64
NtRp2833
(dp2834
g67
(dp2835
sg76
g2399
sg69
(lp2836
g62
(g83
g64
NtRp2837
(dp2838
g67
(dp2839
g87
g88
ssg76
g2833
sg69
(lp2840
S'targetdir'
p2841
asbag62
(g83
g64
NtRp2842
(dp2843
g67
(dp2844
g94
g95
ssg76
g2833
sg69
(lp2845
S':'
asbag62
(g83
g64
NtRp2846
(dp2847
g67
(dp2848
sg76
g2833
sg69
(lp2849
g62
(g63
g64
NtRp2850
(dp2851
g67
(dp2852
g75
I4
ssg76
g2846
sg69
(lp2853
S''
asbasbasbag62
(g78
g64
NtRp2854
(dp2855
g67
(dp2856
sg76
g2399
sg69
(lp2857
g62
(g83
g64
NtRp2858
(dp2859
g67
(dp2860
g87
g88
ssg76
g2854
sg69
(lp2861
S'where'
p2862
asbag62
(g83
g64
NtRp2863
(dp2864
g67
(dp2865
g94
g95
ssg76
g2854
sg69
(lp2866
S':'
asbag62
(g83
g64
NtRp2867
(dp2868
g67
(dp2869
sg76
g2854
sg69
(lp2870
g62
(g63
g64
NtRp2871
(dp2872
g67
(dp2873
g75
I4
ssg76
g2867
sg69
(lp2874
S''
asbasbasbasbasbasbasbag62
(g78
g64
NtRp2875
(dp2876
g67
(dp2877
sg76
g72
sg69
(lp2878
g62
(g83
g64
NtRp2879
(dp2880
g67
(dp2881
g87
g88
ssg76
g2875
sg69
(lp2882
S'url'
p2883
asbag62
(g83
g64
NtRp2884
(dp2885
g67
(dp2886
g94
g95
ssg76
g2875
sg69
(lp2887
S':'
asbag62
(g83
g64
NtRp2888
(dp2889
g67
(dp2890
sg76
g2875
sg69
(lp2891
g62
(g63
g64
NtRp2892
(dp2893
g67
(dp2894
g75
I5
ssg76
g2888
sg69
(lp2895
S'/Hadoop/default/action'
p2896
asbasbasbag62
(g78
g64
NtRp2897
(dp2898
g67
(dp2899
sg76
g72
sg69
(lp2900
g62
(g83
g64
NtRp2901
(dp2902
g67
(dp2903
g87
g88
ssg76
g2897
sg69
(lp2904
S'utcnow'
p2905
asbag62
(g83
g64
NtRp2906
(dp2907
g67
(dp2908
g94
g95
ssg76
g2897
sg69
(lp2909
S':'
asbag62
(g83
g64
NtRp2910
(dp2911
g67
(dp2912
sg76
g2897
sg69
(lp2913
g62
(g63
g64
NtRp2914
(dp2915
g67
(dp2916
g75
I5
ssg76
g2910
sg69
(lp2917
S'datetime.datetime(2014, 1, 23, 5, 38, 34, 250043)'
p2918
asbasbasbag62
(g78
g64
NtRp2919
(dp2920
g67
(dp2921
sg76
g72
sg69
(lp2922
g62
(g83
g64
NtRp2923
(dp2924
g67
(dp2925
g87
g88
ssg76
g2919
sg69
(lp2926
S'uuid'
p2927
asbag62
(g83
g64
NtRp2928
(dp2929
g67
(dp2930
g94
g95
ssg76
g2919
sg69
(lp2931
S':'
asbag62
(g83
g64
NtRp2932
(dp2933
g67
(dp2934
sg76
g2919
sg69
(lp2935
g62
(g63
g64
NtRp2936
(dp2937
g67
(dp2938
g75
I5
ssg76
g2932
sg69
(lp2939
S'Hadoop/127.0.0.1.2014-01-23.11-08-34.2dfeebf2-8435-4586-8194-db04034a558c'
p2940
asbasbasbag62
(g78
g64
NtRp2941
(dp2942
g67
(dp2943
sg76
g72
sg69
(lp2944
g62
(g83
g64
NtRp2945
(dp2946
g67
(dp2947
g87
g88
ssg76
g2941
sg69
(lp2948
S'vars'
p2949
asbag62
(g83
g64
NtRp2950
(dp2951
g67
(dp2952
g94
g95
ssg76
g2941
sg69
(lp2953
S':'
asbag62
(g83
g64
NtRp2954
(dp2955
g67
(dp2956
sg76
g2941
sg69
(lp2957
g62
(g63
g64
NtRp2958
(dp2959
g67
(dp2960
g75
I5
ssg76
g2954
sg69
(lp2961
g62
(g71
g64
NtRp2962
(dp2963
g67
(dp2964
g75
I4
ssg76
Nsg69
(lp2965
g62
(g78
g64
NtRp2966
(dp2967
g67
(dp2968
sg76
g2962
sg69
(lp2969
g62
(g83
g64
NtRp2970
(dp2971
g67
(dp2972
g87
g88
ssg76
g2966
sg69
(lp2973
g2411
asbag62
(g83
g64
NtRp2974
(dp2975
g67
(dp2976
g94
g95
ssg76
g2966
sg69
(lp2977
S':'
asbag62
(g83
g64
NtRp2978
(dp2979
g67
(dp2980
sg76
g2966
sg69
(lp2981
g62
(g63
g64
NtRp2982
(dp2983
g67
(dp2984
g75
I4
ssg76
g2978
sg69
(lp2985
g2424
asbasbasbag62
(g78
g64
NtRp2986
(dp2987
g67
(dp2988
sg76
g2962
sg69
(lp2989
g62
(g83
g64
NtRp2990
(dp2991
g67
(dp2992
g87
g88
ssg76
g2986
sg69
(lp2993
g2433
asbag62
(g83
g64
NtRp2994
(dp2995
g67
(dp2996
g94
g95
ssg76
g2986
sg69
(lp2997
S':'
asbag62
(g83
g64
NtRp2998
(dp2999
g67
(dp3000
sg76
g2986
sg69
(lp3001
g62
(g63
g64
NtRp3002
(dp3003
g67
(dp3004
g75
I4
ssg76
g2998
sg69
(lp3005
S''
asbasbasbag62
(g78
g64
NtRp3006
(dp3007
g67
(dp3008
sg76
g2962
sg69
(lp3009
g62
(g83
g64
NtRp3010
(dp3011
g67
(dp3012
g87
g88
ssg76
g3006
sg69
(lp3013
g2454
asbag62
(g83
g64
NtRp3014
(dp3015
g67
(dp3016
g94
g95
ssg76
g3006
sg69
(lp3017
S':'
asbag62
(g83
g64
NtRp3018
(dp3019
g67
(dp3020
sg76
g3006
sg69
(lp3021
g62
(g63
g64
NtRp3022
(dp3023
g67
(dp3024
g75
I4
ssg76
g3018
sg69
(lp3025
g2467
asbasbasbag62
(g78
g64
NtRp3026
(dp3027
g67
(dp3028
sg76
g2962
sg69
(lp3029
g62
(g83
g64
NtRp3030
(dp3031
g67
(dp3032
g87
g88
ssg76
g3026
sg69
(lp3033
g2476
asbag62
(g83
g64
NtRp3034
(dp3035
g67
(dp3036
g94
g95
ssg76
g3026
sg69
(lp3037
S':'
asbag62
(g83
g64
NtRp3038
(dp3039
g67
(dp3040
sg76
g3026
sg69
(lp3041
g62
(g63
g64
NtRp3042
(dp3043
g67
(dp3044
g75
I4
ssg76
g3038
sg69
(lp3045
g2489
asbasbasbag62
(g78
g64
NtRp3046
(dp3047
g67
(dp3048
sg76
g2962
sg69
(lp3049
g62
(g83
g64
NtRp3050
(dp3051
g67
(dp3052
g87
g88
ssg76
g3046
sg69
(lp3053
g2498
asbag62
(g83
g64
NtRp3054
(dp3055
g67
(dp3056
g94
g95
ssg76
g3046
sg69
(lp3057
S':'
asbag62
(g83
g64
NtRp3058
(dp3059
g67
(dp3060
sg76
g3046
sg69
(lp3061
g62
(g63
g64
NtRp3062
(dp3063
g67
(dp3064
g75
I4
ssg76
g3058
sg69
(lp3065
S''
asbasbasbag62
(g78
g64
NtRp3066
(dp3067
g67
(dp3068
sg76
g2962
sg69
(lp3069
g62
(g83
g64
NtRp3070
(dp3071
g67
(dp3072
g87
g88
ssg76
g3066
sg69
(lp3073
g2519
asbag62
(g83
g64
NtRp3074
(dp3075
g67
(dp3076
g94
g95
ssg76
g3066
sg69
(lp3077
S':'
asbag62
(g83
g64
NtRp3078
(dp3079
g67
(dp3080
sg76
g3066
sg69
(lp3081
g62
(g63
g64
NtRp3082
(dp3083
g67
(dp3084
g75
I4
ssg76
g3078
sg69
(lp3085
g2532
asbasbasbag62
(g78
g64
NtRp3086
(dp3087
g67
(dp3088
sg76
g2962
sg69
(lp3089
g62
(g83
g64
NtRp3090
(dp3091
g67
(dp3092
g87
g88
ssg76
g3086
sg69
(lp3093
g2541
asbag62
(g83
g64
NtRp3094
(dp3095
g67
(dp3096
g94
g95
ssg76
g3086
sg69
(lp3097
S':'
asbag62
(g83
g64
NtRp3098
(dp3099
g67
(dp3100
sg76
g3086
sg69
(lp3101
g62
(g63
g64
NtRp3102
(dp3103
g67
(dp3104
g75
I4
ssg76
g3098
sg69
(lp3105
S''
asbasbasbag62
(g78
g64
NtRp3106
(dp3107
g67
(dp3108
sg76
g2962
sg69
(lp3109
g62
(g83
g64
NtRp3110
(dp3111
g67
(dp3112
g87
g88
ssg76
g3106
sg69
(lp3113
g2562
asbag62
(g83
g64
NtRp3114
(dp3115
g67
(dp3116
g94
g95
ssg76
g3106
sg69
(lp3117
S':'
asbag62
(g83
g64
NtRp3118
(dp3119
g67
(dp3120
sg76
g3106
sg69
(lp3121
g62
(g63
g64
NtRp3122
(dp3123
g67
(dp3124
g75
I4
ssg76
g3118
sg69
(lp3125
S''
asbasbasbag62
(g78
g64
NtRp3126
(dp3127
g67
(dp3128
sg76
g2962
sg69
(lp3129
g62
(g83
g64
NtRp3130
(dp3131
g67
(dp3132
g87
g88
ssg76
g3126
sg69
(lp3133
g2583
asbag62
(g83
g64
NtRp3134
(dp3135
g67
(dp3136
g94
g95
ssg76
g3126
sg69
(lp3137
S':'
asbag62
(g83
g64
NtRp3138
(dp3139
g67
(dp3140
sg76
g3126
sg69
(lp3141
g62
(g63
g64
NtRp3142
(dp3143
g67
(dp3144
g75
I4
ssg76
g3138
sg69
(lp3145
g2596
asbasbasbag62
(g78
g64
NtRp3146
(dp3147
g67
(dp3148
sg76
g2962
sg69
(lp3149
g62
(g83
g64
NtRp3150
(dp3151
g67
(dp3152
g87
g88
ssg76
g3146
sg69
(lp3153
g2605
asbag62
(g83
g64
NtRp3154
(dp3155
g67
(dp3156
g94
g95
ssg76
g3146
sg69
(lp3157
S':'
asbag62
(g83
g64
NtRp3158
(dp3159
g67
(dp3160
sg76
g3146
sg69
(lp3161
g62
(g63
g64
NtRp3162
(dp3163
g67
(dp3164
g75
I4
ssg76
g3158
sg69
(lp3165
g2618
asbasbasbag62
(g78
g64
NtRp3166
(dp3167
g67
(dp3168
sg76
g2962
sg69
(lp3169
g62
(g83
g64
NtRp3170
(dp3171
g67
(dp3172
g87
g88
ssg76
g3166
sg69
(lp3173
g2627
asbag62
(g83
g64
NtRp3174
(dp3175
g67
(dp3176
g94
g95
ssg76
g3166
sg69
(lp3177
S':'
asbag62
(g83
g64
NtRp3178
(dp3179
g67
(dp3180
sg76
g3166
sg69
(lp3181
g62
(g63
g64
NtRp3182
(dp3183
g67
(dp3184
g75
I4
ssg76
g3178
sg69
(lp3185
S''
asbasbasbag62
(g78
g64
NtRp3186
(dp3187
g67
(dp3188
sg76
g2962
sg69
(lp3189
g62
(g83
g64
NtRp3190
(dp3191
g67
(dp3192
g87
g88
ssg76
g3186
sg69
(lp3193
g2648
asbag62
(g83
g64
NtRp3194
(dp3195
g67
(dp3196
g94
g95
ssg76
g3186
sg69
(lp3197
S':'
asbag62
(g83
g64
NtRp3198
(dp3199
g67
(dp3200
sg76
g3186
sg69
(lp3201
g62
(g63
g64
NtRp3202
(dp3203
g67
(dp3204
g75
I4
ssg76
g3198
sg69
(lp3205
S''
asbasbasbag62
(g78
g64
NtRp3206
(dp3207
g67
(dp3208
sg76
g2962
sg69
(lp3209
g62
(g83
g64
NtRp3210
(dp3211
g67
(dp3212
g87
g88
ssg76
g3206
sg69
(lp3213
g2669
asbag62
(g83
g64
NtRp3214
(dp3215
g67
(dp3216
g94
g95
ssg76
g3206
sg69
(lp3217
S':'
asbag62
(g83
g64
NtRp3218
(dp3219
g67
(dp3220
sg76
g3206
sg69
(lp3221
g62
(g63
g64
NtRp3222
(dp3223
g67
(dp3224
g75
I4
ssg76
g3218
sg69
(lp3225
S''
asbasbasbag62
(g78
g64
NtRp3226
(dp3227
g67
(dp3228
sg76
g2962
sg69
(lp3229
g62
(g83
g64
NtRp3230
(dp3231
g67
(dp3232
g87
g88
ssg76
g3226
sg69
(lp3233
g2690
asbag62
(g83
g64
NtRp3234
(dp3235
g67
(dp3236
g94
g95
ssg76
g3226
sg69
(lp3237
S':'
asbag62
(g83
g64
NtRp3238
(dp3239
g67
(dp3240
sg76
g3226
sg69
(lp3241
g62
(g63
g64
NtRp3242
(dp3243
g67
(dp3244
g75
I4
ssg76
g3238
sg69
(lp3245
g2703
asbasbasbag62
(g78
g64
NtRp3246
(dp3247
g67
(dp3248
sg76
g2962
sg69
(lp3249
g62
(g83
g64
NtRp3250
(dp3251
g67
(dp3252
g87
g88
ssg76
g3246
sg69
(lp3253
g2712
asbag62
(g83
g64
NtRp3254
(dp3255
g67
(dp3256
g94
g95
ssg76
g3246
sg69
(lp3257
S':'
asbag62
(g83
g64
NtRp3258
(dp3259
g67
(dp3260
sg76
g3246
sg69
(lp3261
g62
(g63
g64
NtRp3262
(dp3263
g67
(dp3264
g75
I4
ssg76
g3258
sg69
(lp3265
g2725
asbasbasbag62
(g78
g64
NtRp3266
(dp3267
g67
(dp3268
sg76
g2962
sg69
(lp3269
g62
(g83
g64
NtRp3270
(dp3271
g67
(dp3272
g87
g88
ssg76
g3266
sg69
(lp3273
g2734
asbag62
(g83
g64
NtRp3274
(dp3275
g67
(dp3276
g94
g95
ssg76
g3266
sg69
(lp3277
S':'
asbag62
(g83
g64
NtRp3278
(dp3279
g67
(dp3280
sg76
g3266
sg69
(lp3281
g62
(g63
g64
NtRp3282
(dp3283
g67
(dp3284
g75
I4
ssg76
g3278
sg69
(lp3285
g2747
asbasbasbag62
(g78
g64
NtRp3286
(dp3287
g67
(dp3288
sg76
g2962
sg69
(lp3289
g62
(g83
g64
NtRp3290
(dp3291
g67
(dp3292
g87
g88
ssg76
g3286
sg69
(lp3293
g2756
asbag62
(g83
g64
NtRp3294
(dp3295
g67
(dp3296
g94
g95
ssg76
g3286
sg69
(lp3297
S':'
asbag62
(g83
g64
NtRp3298
(dp3299
g67
(dp3300
sg76
g3286
sg69
(lp3301
g62
(g63
g64
NtRp3302
(dp3303
g67
(dp3304
g75
I4
ssg76
g3298
sg69
(lp3305
S'5'
asbasbasbag62
(g78
g64
NtRp3306
(dp3307
g67
(dp3308
sg76
g2962
sg69
(lp3309
g62
(g83
g64
NtRp3310
(dp3311
g67
(dp3312
g87
g88
ssg76
g3306
sg69
(lp3313
g2777
asbag62
(g83
g64
NtRp3314
(dp3315
g67
(dp3316
g94
g95
ssg76
g3306
sg69
(lp3317
S':'
asbag62
(g83
g64
NtRp3318
(dp3319
g67
(dp3320
sg76
g3306
sg69
(lp3321
g62
(g63
g64
NtRp3322
(dp3323
g67
(dp3324
g75
I4
ssg76
g3318
sg69
(lp3325
S''
asbasbasbag62
(g78
g64
NtRp3326
(dp3327
g67
(dp3328
sg76
g2962
sg69
(lp3329
g62
(g83
g64
NtRp3330
(dp3331
g67
(dp3332
g87
g88
ssg76
g3326
sg69
(lp3333
g2798
asbag62
(g83
g64
NtRp3334
(dp3335
g67
(dp3336
g94
g95
ssg76
g3326
sg69
(lp3337
S':'
asbag62
(g83
g64
NtRp3338
(dp3339
g67
(dp3340
sg76
g3326
sg69
(lp3341
g62
(g63
g64
NtRp3342
(dp3343
g67
(dp3344
g75
I4
ssg76
g3338
sg69
(lp3345
g2811
asbasbasbag62
(g78
g64
NtRp3346
(dp3347
g67
(dp3348
sg76
g2962
sg69
(lp3349
g62
(g83
g64
NtRp3350
(dp3351
g67
(dp3352
g87
g88
ssg76
g3346
sg69
(lp3353
g2820
asbag62
(g83
g64
NtRp3354
(dp3355
g67
(dp3356
g94
g95
ssg76
g3346
sg69
(lp3357
S':'
asbag62
(g83
g64
NtRp3358
(dp3359
g67
(dp3360
sg76
g3346
sg69
(lp3361
g62
(g63
g64
NtRp3362
(dp3363
g67
(dp3364
g75
I4
ssg76
g3358
sg69
(lp3365
S''
asbasbasbag62
(g78
g64
NtRp3366
(dp3367
g67
(dp3368
sg76
g2962
sg69
(lp3369
g62
(g83
g64
NtRp3370
(dp3371
g67
(dp3372
g87
g88
ssg76
g3366
sg69
(lp3373
g2841
asbag62
(g83
g64
NtRp3374
(dp3375
g67
(dp3376
g94
g95
ssg76
g3366
sg69
(lp3377
S':'
asbag62
(g83
g64
NtRp3378
(dp3379
g67
(dp3380
sg76
g3366
sg69
(lp3381
g62
(g63
g64
NtRp3382
(dp3383
g67
(dp3384
g75
I4
ssg76
g3378
sg69
(lp3385
S''
asbasbasbag62
(g78
g64
NtRp3386
(dp3387
g67
(dp3388
sg76
g2962
sg69
(lp3389
g62
(g83
g64
NtRp3390
(dp3391
g67
(dp3392
g87
g88
ssg76
g3386
sg69
(lp3393
g2862
asbag62
(g83
g64
NtRp3394
(dp3395
g67
(dp3396
g94
g95
ssg76
g3386
sg69
(lp3397
S':'
asbag62
(g83
g64
NtRp3398
(dp3399
g67
(dp3400
sg76
g3386
sg69
(lp3401
g62
(g63
g64
NtRp3402
(dp3403
g67
(dp3404
g75
I4
ssg76
g3398
sg69
(lp3405
S''
asbasbasbasbasbasbasbag62
(g78
g64
NtRp3406
(dp3407
g67
(dp3408
sg76
g72
sg69
(lp3409
g62
(g83
g64
NtRp3410
(dp3411
g67
(dp3412
g87
g88
ssg76
g3406
sg69
(lp3413
S'wsgi'
p3414
asbag62
(g83
g64
NtRp3415
(dp3416
g67
(dp3417
g94
g95
ssg76
g3406
sg69
(lp3418
S':'
asbag62
(g83
g64
NtRp3419
(dp3420
g67
(dp3421
sg76
g3406
sg69
(lp3422
g62
(g63
g64
NtRp3423
(dp3424
g67
(dp3425
g75
I5
ssg76
g3419
sg69
(lp3426
g62
(g71
g64
NtRp3427
(dp3428
g67
(dp3429
g75
I4
ssg76
Nsg69
(lp3430
g62
(g78
g64
NtRp3431
(dp3432
g67
(dp3433
sg76
g3427
sg69
(lp3434
g62
(g83
g64
NtRp3435
(dp3436
g67
(dp3437
g87
g88
ssg76
g3431
sg69
(lp3438
S'environ'
p3439
asbag62
(g83
g64
NtRp3440
(dp3441
g67
(dp3442
g94
g95
ssg76
g3431
sg69
(lp3443
S':'
asbag62
(g83
g64
NtRp3444
(dp3445
g67
(dp3446
sg76
g3431
sg69
(lp3447
g62
(g63
g64
NtRp3448
(dp3449
g67
(dp3450
g75
I4
ssg76
g3444
sg69
(lp3451
g62
(g71
g64
NtRp3452
(dp3453
g67
(dp3454
g75
I3
ssg76
Nsg69
(lp3455
g62
(g78
g64
NtRp3456
(dp3457
g67
(dp3458
sg76
g3452
sg69
(lp3459
g62
(g83
g64
NtRp3460
(dp3461
g67
(dp3462
g87
g88
ssg76
g3456
sg69
(lp3463
S'CONTENT_LENGTH'
p3464
asbag62
(g83
g64
NtRp3465
(dp3466
g67
(dp3467
g94
g95
ssg76
g3456
sg69
(lp3468
S':'
asbag62
(g83
g64
NtRp3469
(dp3470
g67
(dp3471
sg76
g3456
sg69
(lp3472
g62
(g63
g64
NtRp3473
(dp3474
g67
(dp3475
g75
I3
ssg76
g3469
sg69
(lp3476
g943
asbasbasbag62
(g78
g64
NtRp3477
(dp3478
g67
(dp3479
sg76
g3452
sg69
(lp3480
g62
(g83
g64
NtRp3481
(dp3482
g67
(dp3483
g87
g88
ssg76
g3477
sg69
(lp3484
S'CONTENT_TYPE'
p3485
asbag62
(g83
g64
NtRp3486
(dp3487
g67
(dp3488
g94
g95
ssg76
g3477
sg69
(lp3489
S':'
asbag62
(g83
g64
NtRp3490
(dp3491
g67
(dp3492
sg76
g3477
sg69
(lp3493
g62
(g63
g64
NtRp3494
(dp3495
g67
(dp3496
g75
I3
ssg76
g3490
sg69
(lp3497
g965
asbasbasbag62
(g78
g64
NtRp3498
(dp3499
g67
(dp3500
sg76
g3452
sg69
(lp3501
g62
(g83
g64
NtRp3502
(dp3503
g67
(dp3504
g87
g88
ssg76
g3498
sg69
(lp3505
S'HTTP_ACCEPT'
p3506
asbag62
(g83
g64
NtRp3507
(dp3508
g67
(dp3509
g94
g95
ssg76
g3498
sg69
(lp3510
S':'
asbag62
(g83
g64
NtRp3511
(dp3512
g67
(dp3513
sg76
g3498
sg69
(lp3514
g62
(g63
g64
NtRp3515
(dp3516
g67
(dp3517
g75
I3
ssg76
g3511
sg69
(lp3518
g1052
asbasbasbag62
(g78
g64
NtRp3519
(dp3520
g67
(dp3521
sg76
g3452
sg69
(lp3522
g62
(g83
g64
NtRp3523
(dp3524
g67
(dp3525
g87
g88
ssg76
g3519
sg69
(lp3526
S'HTTP_ACCEPT_ENCODING'
p3527
asbag62
(g83
g64
NtRp3528
(dp3529
g67
(dp3530
g94
g95
ssg76
g3519
sg69
(lp3531
S':'
asbag62
(g83
g64
NtRp3532
(dp3533
g67
(dp3534
sg76
g3519
sg69
(lp3535
g62
(g63
g64
NtRp3536
(dp3537
g67
(dp3538
g75
I3
ssg76
g3532
sg69
(lp3539
g1074
asbasbasbag62
(g78
g64
NtRp3540
(dp3541
g67
(dp3542
sg76
g3452
sg69
(lp3543
g62
(g83
g64
NtRp3544
(dp3545
g67
(dp3546
g87
g88
ssg76
g3540
sg69
(lp3547
S'HTTP_ACCEPT_LANGUAGE'
p3548
asbag62
(g83
g64
NtRp3549
(dp3550
g67
(dp3551
g94
g95
ssg76
g3540
sg69
(lp3552
S':'
asbag62
(g83
g64
NtRp3553
(dp3554
g67
(dp3555
sg76
g3540
sg69
(lp3556
g62
(g63
g64
NtRp3557
(dp3558
g67
(dp3559
g75
I3
ssg76
g3553
sg69
(lp3560
g1096
asbasbasbag62
(g78
g64
NtRp3561
(dp3562
g67
(dp3563
sg76
g3452
sg69
(lp3564
g62
(g83
g64
NtRp3565
(dp3566
g67
(dp3567
g87
g88
ssg76
g3561
sg69
(lp3568
S'HTTP_CACHE_CONTROL'
p3569
asbag62
(g83
g64
NtRp3570
(dp3571
g67
(dp3572
g94
g95
ssg76
g3561
sg69
(lp3573
S':'
asbag62
(g83
g64
NtRp3574
(dp3575
g67
(dp3576
sg76
g3561
sg69
(lp3577
g62
(g63
g64
NtRp3578
(dp3579
g67
(dp3580
g75
I3
ssg76
g3574
sg69
(lp3581
g1118
asbasbasbag62
(g78
g64
NtRp3582
(dp3583
g67
(dp3584
sg76
g3452
sg69
(lp3585
g62
(g83
g64
NtRp3586
(dp3587
g67
(dp3588
g87
g88
ssg76
g3582
sg69
(lp3589
S'HTTP_CONNECTION'
p3590
asbag62
(g83
g64
NtRp3591
(dp3592
g67
(dp3593
g94
g95
ssg76
g3582
sg69
(lp3594
S':'
asbag62
(g83
g64
NtRp3595
(dp3596
g67
(dp3597
sg76
g3582
sg69
(lp3598
g62
(g63
g64
NtRp3599
(dp3600
g67
(dp3601
g75
I3
ssg76
g3595
sg69
(lp3602
g1140
asbasbasbag62
(g78
g64
NtRp3603
(dp3604
g67
(dp3605
sg76
g3452
sg69
(lp3606
g62
(g83
g64
NtRp3607
(dp3608
g67
(dp3609
g87
g88
ssg76
g3603
sg69
(lp3610
S'HTTP_CONTENT_LENGTH'
p3611
asbag62
(g83
g64
NtRp3612
(dp3613
g67
(dp3614
g94
g95
ssg76
g3603
sg69
(lp3615
S':'
asbag62
(g83
g64
NtRp3616
(dp3617
g67
(dp3618
sg76
g3603
sg69
(lp3619
g62
(g63
g64
NtRp3620
(dp3621
g67
(dp3622
g75
I3
ssg76
g3616
sg69
(lp3623
g943
asbasbasbag62
(g78
g64
NtRp3624
(dp3625
g67
(dp3626
sg76
g3452
sg69
(lp3627
g62
(g83
g64
NtRp3628
(dp3629
g67
(dp3630
g87
g88
ssg76
g3624
sg69
(lp3631
S'HTTP_CONTENT_TYPE'
p3632
asbag62
(g83
g64
NtRp3633
(dp3634
g67
(dp3635
g94
g95
ssg76
g3624
sg69
(lp3636
S':'
asbag62
(g83
g64
NtRp3637
(dp3638
g67
(dp3639
sg76
g3624
sg69
(lp3640
g62
(g63
g64
NtRp3641
(dp3642
g67
(dp3643
g75
I3
ssg76
g3637
sg69
(lp3644
g965
asbasbasbag62
(g78
g64
NtRp3645
(dp3646
g67
(dp3647
sg76
g3452
sg69
(lp3648
g62
(g83
g64
NtRp3649
(dp3650
g67
(dp3651
g87
g88
ssg76
g3645
sg69
(lp3652
S'HTTP_COOKIE'
p3653
asbag62
(g83
g64
NtRp3654
(dp3655
g67
(dp3656
g94
g95
ssg76
g3645
sg69
(lp3657
S':'
asbag62
(g83
g64
NtRp3658
(dp3659
g67
(dp3660
sg76
g3645
sg69
(lp3661
g62
(g63
g64
NtRp3662
(dp3663
g67
(dp3664
g75
I3
ssg76
g3658
sg69
(lp3665
g1204
asbasbasbag62
(g78
g64
NtRp3666
(dp3667
g67
(dp3668
sg76
g3452
sg69
(lp3669
g62
(g83
g64
NtRp3670
(dp3671
g67
(dp3672
g87
g88
ssg76
g3666
sg69
(lp3673
S'HTTP_HOST'
p3674
asbag62
(g83
g64
NtRp3675
(dp3676
g67
(dp3677
g94
g95
ssg76
g3666
sg69
(lp3678
S':'
asbag62
(g83
g64
NtRp3679
(dp3680
g67
(dp3681
sg76
g3666
sg69
(lp3682
g62
(g63
g64
NtRp3683
(dp3684
g67
(dp3685
g75
I3
ssg76
g3679
sg69
(lp3686
g1226
asbasbasbag62
(g78
g64
NtRp3687
(dp3688
g67
(dp3689
sg76
g3452
sg69
(lp3690
g62
(g83
g64
NtRp3691
(dp3692
g67
(dp3693
g87
g88
ssg76
g3687
sg69
(lp3694
S'HTTP_ORIGIN'
p3695
asbag62
(g83
g64
NtRp3696
(dp3697
g67
(dp3698
g94
g95
ssg76
g3687
sg69
(lp3699
S':'
asbag62
(g83
g64
NtRp3700
(dp3701
g67
(dp3702
sg76
g3687
sg69
(lp3703
g62
(g63
g64
NtRp3704
(dp3705
g67
(dp3706
g75
I3
ssg76
g3700
sg69
(lp3707
g1248
asbasbasbag62
(g78
g64
NtRp3708
(dp3709
g67
(dp3710
sg76
g3452
sg69
(lp3711
g62
(g83
g64
NtRp3712
(dp3713
g67
(dp3714
g87
g88
ssg76
g3708
sg69
(lp3715
S'HTTP_REFERER'
p3716
asbag62
(g83
g64
NtRp3717
(dp3718
g67
(dp3719
g94
g95
ssg76
g3708
sg69
(lp3720
S':'
asbag62
(g83
g64
NtRp3721
(dp3722
g67
(dp3723
sg76
g3708
sg69
(lp3724
g62
(g63
g64
NtRp3725
(dp3726
g67
(dp3727
g75
I3
ssg76
g3721
sg69
(lp3728
g1270
asbasbasbag62
(g78
g64
NtRp3729
(dp3730
g67
(dp3731
sg76
g3452
sg69
(lp3732
g62
(g83
g64
NtRp3733
(dp3734
g67
(dp3735
g87
g88
ssg76
g3729
sg69
(lp3736
S'HTTP_USER_AGENT'
p3737
asbag62
(g83
g64
NtRp3738
(dp3739
g67
(dp3740
g94
g95
ssg76
g3729
sg69
(lp3741
S':'
asbag62
(g83
g64
NtRp3742
(dp3743
g67
(dp3744
sg76
g3729
sg69
(lp3745
g62
(g63
g64
NtRp3746
(dp3747
g67
(dp3748
g75
I3
ssg76
g3742
sg69
(lp3749
g1292
asbasbasbag62
(g78
g64
NtRp3750
(dp3751
g67
(dp3752
sg76
g3452
sg69
(lp3753
g62
(g83
g64
NtRp3754
(dp3755
g67
(dp3756
g87
g88
ssg76
g3750
sg69
(lp3757
S'PATH_INFO'
p3758
asbag62
(g83
g64
NtRp3759
(dp3760
g67
(dp3761
g94
g95
ssg76
g3750
sg69
(lp3762
S':'
asbag62
(g83
g64
NtRp3763
(dp3764
g67
(dp3765
sg76
g3750
sg69
(lp3766
g62
(g63
g64
NtRp3767
(dp3768
g67
(dp3769
g75
I3
ssg76
g3763
sg69
(lp3770
g1356
asbasbasbag62
(g78
g64
NtRp3771
(dp3772
g67
(dp3773
sg76
g3452
sg69
(lp3774
g62
(g83
g64
NtRp3775
(dp3776
g67
(dp3777
g87
g88
ssg76
g3771
sg69
(lp3778
S'QUERY_STRING'
p3779
asbag62
(g83
g64
NtRp3780
(dp3781
g67
(dp3782
g94
g95
ssg76
g3771
sg69
(lp3783
S':'
asbag62
(g83
g64
NtRp3784
(dp3785
g67
(dp3786
sg76
g3771
sg69
(lp3787
g62
(g63
g64
NtRp3788
(dp3789
g67
(dp3790
g75
I3
ssg76
g3784
sg69
(lp3791
S''
asbasbasbag62
(g78
g64
NtRp3792
(dp3793
g67
(dp3794
sg76
g3452
sg69
(lp3795
g62
(g83
g64
NtRp3796
(dp3797
g67
(dp3798
g87
g88
ssg76
g3792
sg69
(lp3799
S'REMOTE_ADDR'
p3800
asbag62
(g83
g64
NtRp3801
(dp3802
g67
(dp3803
g94
g95
ssg76
g3792
sg69
(lp3804
S':'
asbag62
(g83
g64
NtRp3805
(dp3806
g67
(dp3807
sg76
g3792
sg69
(lp3808
g62
(g63
g64
NtRp3809
(dp3810
g67
(dp3811
g75
I3
ssg76
g3805
sg69
(lp3812
g195
asbasbasbag62
(g78
g64
NtRp3813
(dp3814
g67
(dp3815
sg76
g3452
sg69
(lp3816
g62
(g83
g64
NtRp3817
(dp3818
g67
(dp3819
g87
g88
ssg76
g3813
sg69
(lp3820
S'REMOTE_PORT'
p3821
asbag62
(g83
g64
NtRp3822
(dp3823
g67
(dp3824
g94
g95
ssg76
g3813
sg69
(lp3825
S':'
asbag62
(g83
g64
NtRp3826
(dp3827
g67
(dp3828
sg76
g3813
sg69
(lp3829
g62
(g63
g64
NtRp3830
(dp3831
g67
(dp3832
g75
I3
ssg76
g3826
sg69
(lp3833
g1420
asbasbasbag62
(g78
g64
NtRp3834
(dp3835
g67
(dp3836
sg76
g3452
sg69
(lp3837
g62
(g83
g64
NtRp3838
(dp3839
g67
(dp3840
g87
g88
ssg76
g3834
sg69
(lp3841
S'REQUEST_METHOD'
p3842
asbag62
(g83
g64
NtRp3843
(dp3844
g67
(dp3845
g94
g95
ssg76
g3834
sg69
(lp3846
S':'
asbag62
(g83
g64
NtRp3847
(dp3848
g67
(dp3849
sg76
g3834
sg69
(lp3850
g62
(g63
g64
NtRp3851
(dp3852
g67
(dp3853
g75
I3
ssg76
g3847
sg69
(lp3854
g1442
asbasbasbag62
(g78
g64
NtRp3855
(dp3856
g67
(dp3857
sg76
g3452
sg69
(lp3858
g62
(g83
g64
NtRp3859
(dp3860
g67
(dp3861
g87
g88
ssg76
g3855
sg69
(lp3862
S'SCRIPT_NAME'
p3863
asbag62
(g83
g64
NtRp3864
(dp3865
g67
(dp3866
g94
g95
ssg76
g3855
sg69
(lp3867
S':'
asbag62
(g83
g64
NtRp3868
(dp3869
g67
(dp3870
sg76
g3855
sg69
(lp3871
g62
(g63
g64
NtRp3872
(dp3873
g67
(dp3874
g75
I3
ssg76
g3868
sg69
(lp3875
S''
asbasbasbag62
(g78
g64
NtRp3876
(dp3877
g67
(dp3878
sg76
g3452
sg69
(lp3879
g62
(g83
g64
NtRp3880
(dp3881
g67
(dp3882
g87
g88
ssg76
g3876
sg69
(lp3883
S'SERVER_NAME'
p3884
asbag62
(g83
g64
NtRp3885
(dp3886
g67
(dp3887
g94
g95
ssg76
g3876
sg69
(lp3888
S':'
asbag62
(g83
g64
NtRp3889
(dp3890
g67
(dp3891
sg76
g3876
sg69
(lp3892
g62
(g63
g64
NtRp3893
(dp3894
g67
(dp3895
g75
I3
ssg76
g3889
sg69
(lp3896
g1485
asbasbasbag62
(g78
g64
NtRp3897
(dp3898
g67
(dp3899
sg76
g3452
sg69
(lp3900
g62
(g83
g64
NtRp3901
(dp3902
g67
(dp3903
g87
g88
ssg76
g3897
sg69
(lp3904
S'SERVER_PORT'
p3905
asbag62
(g83
g64
NtRp3906
(dp3907
g67
(dp3908
g94
g95
ssg76
g3897
sg69
(lp3909
S':'
asbag62
(g83
g64
NtRp3910
(dp3911
g67
(dp3912
sg76
g3897
sg69
(lp3913
g62
(g63
g64
NtRp3914
(dp3915
g67
(dp3916
g75
I3
ssg76
g3910
sg69
(lp3917
g1507
asbasbasbag62
(g78
g64
NtRp3918
(dp3919
g67
(dp3920
sg76
g3452
sg69
(lp3921
g62
(g83
g64
NtRp3922
(dp3923
g67
(dp3924
g87
g88
ssg76
g3918
sg69
(lp3925
S'SERVER_PROTOCOL'
p3926
asbag62
(g83
g64
NtRp3927
(dp3928
g67
(dp3929
g94
g95
ssg76
g3918
sg69
(lp3930
S':'
asbag62
(g83
g64
NtRp3931
(dp3932
g67
(dp3933
sg76
g3918
sg69
(lp3934
g62
(g63
g64
NtRp3935
(dp3936
g67
(dp3937
g75
I3
ssg76
g3931
sg69
(lp3938
g1529
asbasbasbag62
(g78
g64
NtRp3939
(dp3940
g67
(dp3941
sg76
g3452
sg69
(lp3942
g62
(g83
g64
NtRp3943
(dp3944
g67
(dp3945
g87
g88
ssg76
g3939
sg69
(lp3946
S'SERVER_SOFTWARE'
p3947
asbag62
(g83
g64
NtRp3948
(dp3949
g67
(dp3950
g94
g95
ssg76
g3939
sg69
(lp3951
S':'
asbag62
(g83
g64
NtRp3952
(dp3953
g67
(dp3954
sg76
g3939
sg69
(lp3955
g62
(g63
g64
NtRp3956
(dp3957
g67
(dp3958
g75
I3
ssg76
g3952
sg69
(lp3959
g1551
asbasbasbag62
(g78
g64
NtRp3960
(dp3961
g67
(dp3962
sg76
g3452
sg69
(lp3963
g62
(g83
g64
NtRp3964
(dp3965
g67
(dp3966
g87
g88
ssg76
g3960
sg69
(lp3967
S'wsgi.errors'
p3968
asbag62
(g83
g64
NtRp3969
(dp3970
g67
(dp3971
g94
g95
ssg76
g3960
sg69
(lp3972
S':'
asbag62
(g83
g64
NtRp3973
(dp3974
g67
(dp3975
sg76
g3960
sg69
(lp3976
g62
(g63
g64
NtRp3977
(dp3978
g67
(dp3979
g75
I3
ssg76
g3973
sg69
(lp3980
S"<open file '<stderr>', mode 'w' at 0x7f9dc369f270>"
p3981
asbasbasbag62
(g78
g64
NtRp3982
(dp3983
g67
(dp3984
sg76
g3452
sg69
(lp3985
g62
(g83
g64
NtRp3986
(dp3987
g67
(dp3988
g87
g88
ssg76
g3982
sg69
(lp3989
S'wsgi.file_wrapper'
p3990
asbag62
(g83
g64
NtRp3991
(dp3992
g67
(dp3993
g94
g95
ssg76
g3982
sg69
(lp3994
S':'
asbag62
(g83
g64
NtRp3995
(dp3996
g67
(dp3997
sg76
g3982
sg69
(lp3998
g62
(g63
g64
NtRp3999
(dp4000
g67
(dp4001
g75
I3
ssg76
g3995
sg69
(lp4002
S'<class wsgiref.util.FileWrapper at 0x267a1f0>'
p4003
asbasbasbag62
(g78
g64
NtRp4004
(dp4005
g67
(dp4006
sg76
g3452
sg69
(lp4007
g62
(g83
g64
NtRp4008
(dp4009
g67
(dp4010
g87
g88
ssg76
g4004
sg69
(lp4011
S'wsgi.input'
p4012
asbag62
(g83
g64
NtRp4013
(dp4014
g67
(dp4015
g94
g95
ssg76
g4004
sg69
(lp4016
S':'
asbag62
(g83
g64
NtRp4017
(dp4018
g67
(dp4019
sg76
g4004
sg69
(lp4020
g62
(g63
g64
NtRp4021
(dp4022
g67
(dp4023
g75
I3
ssg76
g4017
sg69
(lp4024
S"<open file '<fdopen>', mode 'w+b' at 0x7f9d7c2cc150>"
p4025
asbasbasbag62
(g78
g64
NtRp4026
(dp4027
g67
(dp4028
sg76
g3452
sg69
(lp4029
g62
(g83
g64
NtRp4030
(dp4031
g67
(dp4032
g87
g88
ssg76
g4026
sg69
(lp4033
S'wsgi.multiprocess'
p4034
asbag62
(g83
g64
NtRp4035
(dp4036
g67
(dp4037
g94
g95
ssg76
g4026
sg69
(lp4038
S':'
asbag62
(g83
g64
NtRp4039
(dp4040
g67
(dp4041
sg76
g4026
sg69
(lp4042
g62
(g63
g64
NtRp4043
(dp4044
g67
(dp4045
g75
I3
ssg76
g4039
sg69
(lp4046
g105
asbasbasbag62
(g78
g64
NtRp4047
(dp4048
g67
(dp4049
sg76
g3452
sg69
(lp4050
g62
(g83
g64
NtRp4051
(dp4052
g67
(dp4053
g87
g88
ssg76
g4047
sg69
(lp4054
S'wsgi.multithread'
p4055
asbag62
(g83
g64
NtRp4056
(dp4057
g67
(dp4058
g94
g95
ssg76
g4047
sg69
(lp4059
S':'
asbag62
(g83
g64
NtRp4060
(dp4061
g67
(dp4062
sg76
g4047
sg69
(lp4063
g62
(g63
g64
NtRp4064
(dp4065
g67
(dp4066
g75
I3
ssg76
g4060
sg69
(lp4067
g1791
asbasbasbag62
(g78
g64
NtRp4068
(dp4069
g67
(dp4070
sg76
g3452
sg69
(lp4071
g62
(g83
g64
NtRp4072
(dp4073
g67
(dp4074
g87
g88
ssg76
g4068
sg69
(lp4075
S'wsgi.run_once'
p4076
asbag62
(g83
g64
NtRp4077
(dp4078
g67
(dp4079
g94
g95
ssg76
g4068
sg69
(lp4080
S':'
asbag62
(g83
g64
NtRp4081
(dp4082
g67
(dp4083
sg76
g4068
sg69
(lp4084
g62
(g63
g64
NtRp4085
(dp4086
g67
(dp4087
g75
I3
ssg76
g4081
sg69
(lp4088
g105
asbasbasbag62
(g78
g64
NtRp4089
(dp4090
g67
(dp4091
sg76
g3452
sg69
(lp4092
g62
(g83
g64
NtRp4093
(dp4094
g67
(dp4095
g87
g88
ssg76
g4089
sg69
(lp4096
S'wsgi.url_scheme'
p4097
asbag62
(g83
g64
NtRp4098
(dp4099
g67
(dp4100
g94
g95
ssg76
g4089
sg69
(lp4101
S':'
asbag62
(g83
g64
NtRp4102
(dp4103
g67
(dp4104
sg76
g4089
sg69
(lp4105
g62
(g63
g64
NtRp4106
(dp4107
g67
(dp4108
g75
I3
ssg76
g4102
sg69
(lp4109
g1834
asbasbasbag62
(g78
g64
NtRp4110
(dp4111
g67
(dp4112
sg76
g3452
sg69
(lp4113
g62
(g83
g64
NtRp4114
(dp4115
g67
(dp4116
g87
g88
ssg76
g4110
sg69
(lp4117
S'wsgi.version'
p4118
asbag62
(g83
g64
NtRp4119
(dp4120
g67
(dp4121
g94
g95
ssg76
g4110
sg69
(lp4122
S':'
asbag62
(g83
g64
NtRp4123
(dp4124
g67
(dp4125
sg76
g4110
sg69
(lp4126
g62
(g63
g64
NtRp4127
(dp4128
g67
(dp4129
g75
I3
ssg76
g4123
sg69
(lp4130
S'1'
asbasbasbasbasbasbasbasbasbasbasbasbasbsS'frames'
p4131
(lp4132
(dp4133
S'file'
p4134
S'/usr/lib/pymodules/python2.7/gluon/restricted.py'
p4135
sS'dump'
p4136
(dp4137
S'environment'
p4138
S"{'A': <class 'gluon.html.A'>, 'Auth': <class 'gluon.tools.Auth'>, 'B': <class 'gluon.html.B'>, 'BEAUTIFY': <class 'gluon.html.BEAUTIFY'>, 'BODY': <class 'gluon.html.BODY'>, 'BR': <class 'gluon.html.BR'>, 'BUTTON': <class 'gluon.html.BUTTON'>, 'CAT': <class 'gluon.html.CAT'>, 'CENTER': <class 'gluon.html.CENTER'>, 'CLEANUP': <class 'gluon.validators.CLEANUP'>, ...}"
p4139
sS'ccode'
p4140
S'<code object <module> at 0x7f9d741f24b0, file "/...lications/Hadoop/controllers/default.py", line 3>'
p4141
ssS'lnum'
p4142
I204
sS'lines'
p4143
(dp4144
I199
S'    try:'
p4145
sI200
S'        if type(code) == types.CodeType:'
p4146
sI201
S'            ccode = code'
p4147
sI202
S'        else:'
p4148
sI203
S'            ccode = compile2(code,layer)'
p4149
sI204
S'        exec ccode in environment'
p4150
sI205
S'    except HTTP:'
p4151
sI206
S'        raise'
p4152
sI207
S'    except RestrictedError:'
p4153
sI208
S'        # do not encapsulate (obfuscate) the original RestrictedError'
p4154
ssS'call'
p4155
S"(code='# coding: utf8\\n# try something like\\nimport os\\nim...tion();\\n\\nresponse._vars=response._caller(action)\\n', environment={'A': <class 'gluon.html.A'>, 'Auth': <class 'gluon.tools.Auth'>, 'B': <class 'gluon.html.B'>, 'BEAUTIFY': <class 'gluon.html.BEAUTIFY'>, 'BODY': <class 'gluon.html.BODY'>, 'BR': <class 'gluon.html.BR'>, 'BUTTON': <class 'gluon.html.BUTTON'>, 'CAT': <class 'gluon.html.CAT'>, 'CENTER': <class 'gluon.html.CENTER'>, 'CLEANUP': <class 'gluon.validators.CLEANUP'>, ...}, layer='/home/hduser/web2py/applications/Hadoop/controllers/default.py')"
p4156
sS'func'
p4157
S'restricted'
p4158
sa(dp4159
g4134
S'/home/hduser/web2py/applications/Hadoop/controllers/default.py'
p4160
sg4136
(dp4161
sg4142
I208
sg4143
(dp4162
I197
S'            return dict(message = "Failed!",val = val);'
p4163
sI198
S''
sI199
S''
sI200
S''
sI201
S'    return dict(posvars = request.post_vars);'
p4164
sI202
S''
sI203
S''
sI204
S''
sI205
S'#aa = main();'
p4165
sI206
S'#bb=action();'
p4166
ssg4155
S'()'
p4167
sg4157
S'<module>'
p4168
sa(dp4169
g4134
S'/usr/lib/pymodules/python2.7/gluon/globals.py'
p4170
sg4136
(dp4171
S'self'
p4172
S'undefined'
p4173
sS'f'
S'<function action>'
p4174
ssg4142
I172
sg4143
(dp4175
I167
S'        self.meta = Storage()      # used by web2py_ajax.html'
p4176
sI168
S'        self.menu = []             # used by the default view layout'
p4177
sI169
S'        self.files = []            # used by web2py_ajax.html'
p4178
sI170
S'        self.generic_patterns = [] # patterns to allow generic views'
p4179
sI171
S'        self._vars = None'
p4180
sI172
S'        self._caller = lambda f: f()'
p4181
sI173
S'        self._view_environment = None'
p4182
sI174
S'        self._custom_commit = None'
p4183
sI175
S'        self._custom_rollback = None'
p4184
sI176
S''
ssg4155
S'(f=<function action>)'
p4185
sg4157
S'<lambda>'
p4186
sa(dp4187
g4134
S'/home/hduser/web2py/applications/Hadoop/controllers/default.py'
p4188
sg4136
(dp4189
S'global codegen'
p4190
S'<function codegen>'
p4191
ssg4142
I137
sg4143
(dp4192
I132
S''
sI133
S'    elif posvars[\'op\'] == "import":'
p4193
sI134
S''
sI135
S'        imp="";'
p4194
sI136
S"        if 'encrypt' in posvars:"
p4195
sI137
S'            codegen();'
p4196
sI138
S'            array=posvars[\'encrypt_columns\'].split(\',\');#explode(",",$_POST[\'encrypt_columns\']);'
p4197
sI139
S'            #print_r($array);'
p4198
sI140
S'            #change_import($TABLE.".java",$array,$_POST[\'enckey\']);'
p4199
sI141
S'            compile();'
p4200
ssg4155
S'()'
p4201
sg4157
S'action'
p4202
sa(dp4203
g4134
S'/home/hduser/web2py/applications/Hadoop/controllers/default.py'
p4204
sg4136
(dp4205
S'global Table'
p4206
S"'login'"
p4207
sS'global os'
p4208
S"<module 'os' from '/usr/lib/python2.7/os.pyc'>"
p4209
sS'os.remove'
p4210
S'<built-in function remove>'
p4211
ssg4142
I21
sg4143
(dp4212
I16
S'#    //codegen:          generate import-export code without performing actual import/export, modify the gnerated java file, compile it to jar, give it to sqoop.'
p4213
sI17
S'#    global $TABLE,$machine,$password,$db_username,$database_name;'
p4214
sI18
S'    codegen="";'
p4215
sI19
S'    if str=="":'
p4216
sI20
S'        os.remove(Table+".java");'
p4217
sI21
S'        os.remove(Table+".jar");'
p4218
sI22
S'        os.remove(Table+".class");'
p4219
sI23
S''
sI24
S'        codegen= "/home/hduser/sqoop/bin/sqoop codegen --connect jdbc:mysql://"+machine+"/"+database_name+" --username "+db_username+" --password \'"+password+"\' --table "+Table;'
p4220
sI25
S''
ssg4155
S"(str='', table='')"
p4221
sg4157
S'codegen'
p4222
sasS'pyver'
p4223
S'Python 2.7.3: /usr/bin/python'
p4224
sS'session'
p4225
g62
(g63
g64
NtRp4226
(dp4227
g67
(dp4228
sg69
(lp4229
g62
(g71
g64
NtRp4230
(dp4231
g67
(dp4232
g75
I5
ssg76
Nsg69
(lp4233
sbasbsS'etype'
p4234
S"<type 'exceptions.OSError'>"
p4235
sS'date'
p4236
S'Thu Jan 23 11:08:34 2014'
p4237
sS'response'
p4238
g62
(g63
g64
NtRp4239
(dp4240
g67
(dp4241
sg69
(lp4242
g62
(g71
g64
NtRp4243
(dp4244
g67
(dp4245
g75
I5
ssg76
Nsg69
(lp4246
g62
(g78
g64
NtRp4247
(dp4248
g67
(dp4249
sg76
g4243
sg69
(lp4250
g62
(g83
g64
NtRp4251
(dp4252
g67
(dp4253
g87
g88
ssg76
g4247
sg69
(lp4254
g160
asbag62
(g83
g64
NtRp4255
(dp4256
g67
(dp4257
g94
g95
ssg76
g4247
sg69
(lp4258
S':'
asbag62
(g83
g64
NtRp4259
(dp4260
g67
(dp4261
sg76
g4247
sg69
(lp4262
g62
(g63
g64
NtRp4263
(dp4264
g67
(dp4265
g75
I5
ssg76
g4259
sg69
(lp4266
S'<cStringIO.StringO object at 0x7f9d801ce5e0>'
p4267
asbasbasbag62
(g78
g64
NtRp4268
(dp4269
g67
(dp4270
sg76
g4243
sg69
(lp4271
g62
(g83
g64
NtRp4272
(dp4273
g67
(dp4274
g87
g88
ssg76
g4268
sg69
(lp4275
g226
asbag62
(g83
g64
NtRp4276
(dp4277
g67
(dp4278
g94
g95
ssg76
g4268
sg69
(lp4279
S':'
asbag62
(g83
g64
NtRp4280
(dp4281
g67
(dp4282
sg76
g4268
sg69
(lp4283
g62
(g63
g64
NtRp4284
(dp4285
g67
(dp4286
g75
I5
ssg76
g4280
sg69
(lp4287
g62
(g71
g64
NtRp4288
(dp4289
g67
(dp4290
g75
I4
ssg76
Nsg69
(lp4291
g62
(g78
g64
NtRp4292
(dp4293
g67
(dp4294
sg76
g4288
sg69
(lp4295
g62
(g83
g64
NtRp4296
(dp4297
g67
(dp4298
g87
g88
ssg76
g4292
sg69
(lp4299
S'session_id_hadoop'
p4300
asbag62
(g83
g64
NtRp4301
(dp4302
g67
(dp4303
g94
g95
ssg76
g4292
sg69
(lp4304
S':'
asbag62
(g83
g64
NtRp4305
(dp4306
g67
(dp4307
sg76
g4292
sg69
(lp4308
g62
(g63
g64
NtRp4309
(dp4310
g67
(dp4311
g75
I4
ssg76
g4305
sg69
(lp4312
g62
(g71
g64
NtRp4313
(dp4314
g67
(dp4315
g75
I3
ssg76
Nsg69
(lp4316
g62
(g78
g64
NtRp4317
(dp4318
g67
(dp4319
sg76
g4313
sg69
(lp4320
g62
(g83
g64
NtRp4321
(dp4322
g67
(dp4323
g87
g88
ssg76
g4317
sg69
(lp4324
g276
asbag62
(g83
g64
NtRp4325
(dp4326
g67
(dp4327
g94
g95
ssg76
g4317
sg69
(lp4328
S':'
asbag62
(g83
g64
NtRp4329
(dp4330
g67
(dp4331
sg76
g4317
sg69
(lp4332
g62
(g63
g64
NtRp4333
(dp4334
g67
(dp4335
g75
I3
ssg76
g4329
sg69
(lp4336
S''
asbasbasbag62
(g78
g64
NtRp4337
(dp4338
g67
(dp4339
sg76
g4313
sg69
(lp4340
g62
(g83
g64
NtRp4341
(dp4342
g67
(dp4343
g87
g88
ssg76
g4337
sg69
(lp4344
g297
asbag62
(g83
g64
NtRp4345
(dp4346
g67
(dp4347
g94
g95
ssg76
g4337
sg69
(lp4348
S':'
asbag62
(g83
g64
NtRp4349
(dp4350
g67
(dp4351
sg76
g4337
sg69
(lp4352
g62
(g63
g64
NtRp4353
(dp4354
g67
(dp4355
g75
I3
ssg76
g4349
sg69
(lp4356
S''
asbasbasbag62
(g78
g64
NtRp4357
(dp4358
g67
(dp4359
sg76
g4313
sg69
(lp4360
g62
(g83
g64
NtRp4361
(dp4362
g67
(dp4363
g87
g88
ssg76
g4357
sg69
(lp4364
g318
asbag62
(g83
g64
NtRp4365
(dp4366
g67
(dp4367
g94
g95
ssg76
g4357
sg69
(lp4368
S':'
asbag62
(g83
g64
NtRp4369
(dp4370
g67
(dp4371
sg76
g4357
sg69
(lp4372
g62
(g63
g64
NtRp4373
(dp4374
g67
(dp4375
g75
I3
ssg76
g4369
sg69
(lp4376
S''
asbasbasbag62
(g78
g64
NtRp4377
(dp4378
g67
(dp4379
sg76
g4313
sg69
(lp4380
g62
(g83
g64
NtRp4381
(dp4382
g67
(dp4383
g87
g88
ssg76
g4377
sg69
(lp4384
g339
asbag62
(g83
g64
NtRp4385
(dp4386
g67
(dp4387
g94
g95
ssg76
g4377
sg69
(lp4388
S':'
asbag62
(g83
g64
NtRp4389
(dp4390
g67
(dp4391
sg76
g4377
sg69
(lp4392
g62
(g63
g64
NtRp4393
(dp4394
g67
(dp4395
g75
I3
ssg76
g4389
sg69
(lp4396
S''
asbasbasbag62
(g78
g64
NtRp4397
(dp4398
g67
(dp4399
sg76
g4313
sg69
(lp4400
g62
(g83
g64
NtRp4401
(dp4402
g67
(dp4403
g87
g88
ssg76
g4397
sg69
(lp4404
g360
asbag62
(g83
g64
NtRp4405
(dp4406
g67
(dp4407
g94
g95
ssg76
g4397
sg69
(lp4408
S':'
asbag62
(g83
g64
NtRp4409
(dp4410
g67
(dp4411
sg76
g4397
sg69
(lp4412
g62
(g63
g64
NtRp4413
(dp4414
g67
(dp4415
g75
I3
ssg76
g4409
sg69
(lp4416
S''
asbasbasbag62
(g78
g64
NtRp4417
(dp4418
g67
(dp4419
sg76
g4313
sg69
(lp4420
g62
(g83
g64
NtRp4421
(dp4422
g67
(dp4423
g87
g88
ssg76
g4417
sg69
(lp4424
g381
asbag62
(g83
g64
NtRp4425
(dp4426
g67
(dp4427
g94
g95
ssg76
g4417
sg69
(lp4428
S':'
asbag62
(g83
g64
NtRp4429
(dp4430
g67
(dp4431
sg76
g4417
sg69
(lp4432
g62
(g63
g64
NtRp4433
(dp4434
g67
(dp4435
g75
I3
ssg76
g4429
sg69
(lp4436
S'/'
asbasbasbag62
(g78
g64
NtRp4437
(dp4438
g67
(dp4439
sg76
g4313
sg69
(lp4440
g62
(g83
g64
NtRp4441
(dp4442
g67
(dp4443
g87
g88
ssg76
g4437
sg69
(lp4444
g402
asbag62
(g83
g64
NtRp4445
(dp4446
g67
(dp4447
g94
g95
ssg76
g4437
sg69
(lp4448
S':'
asbag62
(g83
g64
NtRp4449
(dp4450
g67
(dp4451
sg76
g4437
sg69
(lp4452
g62
(g63
g64
NtRp4453
(dp4454
g67
(dp4455
g75
I3
ssg76
g4449
sg69
(lp4456
S''
asbasbasbag62
(g78
g64
NtRp4457
(dp4458
g67
(dp4459
sg76
g4313
sg69
(lp4460
g62
(g83
g64
NtRp4461
(dp4462
g67
(dp4463
g87
g88
ssg76
g4457
sg69
(lp4464
g423
asbag62
(g83
g64
NtRp4465
(dp4466
g67
(dp4467
g94
g95
ssg76
g4457
sg69
(lp4468
S':'
asbag62
(g83
g64
NtRp4469
(dp4470
g67
(dp4471
sg76
g4457
sg69
(lp4472
g62
(g63
g64
NtRp4473
(dp4474
g67
(dp4475
g75
I3
ssg76
g4469
sg69
(lp4476
S''
asbasbasbasbasbasbasbasbasbasbasbag62
(g78
g64
NtRp4477
(dp4478
g67
(dp4479
sg76
g4243
sg69
(lp4480
g62
(g83
g64
NtRp4481
(dp4482
g67
(dp4483
g87
g88
ssg76
g4477
sg69
(lp4484
S'files'
p4485
asbag62
(g83
g64
NtRp4486
(dp4487
g67
(dp4488
g94
g95
ssg76
g4477
sg69
(lp4489
S':'
asbag62
(g83
g64
NtRp4490
(dp4491
g67
(dp4492
sg76
g4477
sg69
(lp4493
g62
(g63
g64
NtRp4494
(dp4495
g67
(dp4496
g75
I5
ssg76
g4490
sg69
(lp4497
g62
(g71
g64
NtRp4498
(dp4499
g67
(dp4500
g75
I4
ssg76
Nsg69
(lp4501
sbasbasbasbag62
(g78
g64
NtRp4502
(dp4503
g67
(dp4504
sg76
g4243
sg69
(lp4505
g62
(g83
g64
NtRp4506
(dp4507
g67
(dp4508
g87
g88
ssg76
g4502
sg69
(lp4509
S'flash'
p4510
asbag62
(g83
g64
NtRp4511
(dp4512
g67
(dp4513
g94
g95
ssg76
g4502
sg69
(lp4514
S':'
asbag62
(g83
g64
NtRp4515
(dp4516
g67
(dp4517
sg76
g4502
sg69
(lp4518
g62
(g63
g64
NtRp4519
(dp4520
g67
(dp4521
g75
I5
ssg76
g4515
sg69
(lp4522
S''
asbasbasbag62
(g78
g64
NtRp4523
(dp4524
g67
(dp4525
sg76
g4243
sg69
(lp4526
g62
(g83
g64
NtRp4527
(dp4528
g67
(dp4529
g87
g88
ssg76
g4523
sg69
(lp4530
S'generic_patterns'
p4531
asbag62
(g83
g64
NtRp4532
(dp4533
g67
(dp4534
g94
g95
ssg76
g4523
sg69
(lp4535
S':'
asbag62
(g83
g64
NtRp4536
(dp4537
g67
(dp4538
sg76
g4523
sg69
(lp4539
g62
(g63
g64
NtRp4540
(dp4541
g67
(dp4542
g75
I5
ssg76
g4536
sg69
(lp4543
g62
(g71
g64
NtRp4544
(dp4545
g67
(dp4546
g75
I4
ssg76
Nsg69
(lp4547
g62
(g78
g64
NtRp4548
(dp4549
g67
(dp4550
sg76
g4544
sg69
(lp4551
g62
(g83
g64
NtRp4552
(dp4553
g67
(dp4554
sg76
g4548
sg69
(lp4555
g62
(g63
g64
NtRp4556
(dp4557
g67
(dp4558
g75
I4
ssg76
g4552
sg69
(lp4559
S'*'
asbasbasbasbasbasbasbag62
(g78
g64
NtRp4560
(dp4561
g67
(dp4562
sg76
g4243
sg69
(lp4563
g62
(g83
g64
NtRp4564
(dp4565
g67
(dp4566
g87
g88
ssg76
g4560
sg69
(lp4567
S'headers'
p4568
asbag62
(g83
g64
NtRp4569
(dp4570
g67
(dp4571
g94
g95
ssg76
g4560
sg69
(lp4572
S':'
asbag62
(g83
g64
NtRp4573
(dp4574
g67
(dp4575
sg76
g4560
sg69
(lp4576
g62
(g63
g64
NtRp4577
(dp4578
g67
(dp4579
g75
I5
ssg76
g4573
sg69
(lp4580
g62
(g71
g64
NtRp4581
(dp4582
g67
(dp4583
g75
I4
ssg76
Nsg69
(lp4584
g62
(g78
g64
NtRp4585
(dp4586
g67
(dp4587
sg76
g4581
sg69
(lp4588
g62
(g83
g64
NtRp4589
(dp4590
g67
(dp4591
g87
g88
ssg76
g4585
sg69
(lp4592
S'Cache-Control'
p4593
asbag62
(g83
g64
NtRp4594
(dp4595
g67
(dp4596
g94
g95
ssg76
g4585
sg69
(lp4597
S':'
asbag62
(g83
g64
NtRp4598
(dp4599
g67
(dp4600
sg76
g4585
sg69
(lp4601
g62
(g63
g64
NtRp4602
(dp4603
g67
(dp4604
g75
I4
ssg76
g4598
sg69
(lp4605
S'no-store, no-cache, must-revalidate, post-check=0, pre-check=0'
p4606
asbasbasbag62
(g78
g64
NtRp4607
(dp4608
g67
(dp4609
sg76
g4581
sg69
(lp4610
g62
(g83
g64
NtRp4611
(dp4612
g67
(dp4613
g87
g88
ssg76
g4607
sg69
(lp4614
S'Content-Type'
p4615
asbag62
(g83
g64
NtRp4616
(dp4617
g67
(dp4618
g94
g95
ssg76
g4607
sg69
(lp4619
S':'
asbag62
(g83
g64
NtRp4620
(dp4621
g67
(dp4622
sg76
g4607
sg69
(lp4623
g62
(g63
g64
NtRp4624
(dp4625
g67
(dp4626
g75
I4
ssg76
g4620
sg69
(lp4627
S'text/html; charset=utf-8'
p4628
asbasbasbag62
(g78
g64
NtRp4629
(dp4630
g67
(dp4631
sg76
g4581
sg69
(lp4632
g62
(g83
g64
NtRp4633
(dp4634
g67
(dp4635
g87
g88
ssg76
g4629
sg69
(lp4636
S'Expires'
p4637
asbag62
(g83
g64
NtRp4638
(dp4639
g67
(dp4640
g94
g95
ssg76
g4629
sg69
(lp4641
S':'
asbag62
(g83
g64
NtRp4642
(dp4643
g67
(dp4644
sg76
g4629
sg69
(lp4645
g62
(g63
g64
NtRp4646
(dp4647
g67
(dp4648
g75
I4
ssg76
g4642
sg69
(lp4649
S'Thu, 23 Jan 2014 05:38:34 GMT'
p4650
asbasbasbag62
(g78
g64
NtRp4651
(dp4652
g67
(dp4653
sg76
g4581
sg69
(lp4654
g62
(g83
g64
NtRp4655
(dp4656
g67
(dp4657
g87
g88
ssg76
g4651
sg69
(lp4658
S'Pragma'
p4659
asbag62
(g83
g64
NtRp4660
(dp4661
g67
(dp4662
g94
g95
ssg76
g4651
sg69
(lp4663
S':'
asbag62
(g83
g64
NtRp4664
(dp4665
g67
(dp4666
sg76
g4651
sg69
(lp4667
g62
(g63
g64
NtRp4668
(dp4669
g67
(dp4670
g75
I4
ssg76
g4664
sg69
(lp4671
S'no-cache'
p4672
asbasbasbag62
(g78
g64
NtRp4673
(dp4674
g67
(dp4675
sg76
g4581
sg69
(lp4676
g62
(g83
g64
NtRp4677
(dp4678
g67
(dp4679
g87
g88
ssg76
g4673
sg69
(lp4680
S'X-Powered-By'
p4681
asbag62
(g83
g64
NtRp4682
(dp4683
g67
(dp4684
g94
g95
ssg76
g4673
sg69
(lp4685
S':'
asbag62
(g83
g64
NtRp4686
(dp4687
g67
(dp4688
sg76
g4673
sg69
(lp4689
g62
(g63
g64
NtRp4690
(dp4691
g67
(dp4692
g75
I4
ssg76
g4686
sg69
(lp4693
S'web2py'
p4694
asbasbasbasbasbasbasbag62
(g78
g64
NtRp4695
(dp4696
g67
(dp4697
sg76
g4243
sg69
(lp4698
g62
(g83
g64
NtRp4699
(dp4700
g67
(dp4701
g87
g88
ssg76
g4695
sg69
(lp4702
S'menu'
p4703
asbag62
(g83
g64
NtRp4704
(dp4705
g67
(dp4706
g94
g95
ssg76
g4695
sg69
(lp4707
S':'
asbag62
(g83
g64
NtRp4708
(dp4709
g67
(dp4710
sg76
g4695
sg69
(lp4711
g62
(g63
g64
NtRp4712
(dp4713
g67
(dp4714
g75
I5
ssg76
g4708
sg69
(lp4715
g62
(g71
g64
NtRp4716
(dp4717
g67
(dp4718
g75
I4
ssg76
Nsg69
(lp4719
g62
(g78
g64
NtRp4720
(dp4721
g67
(dp4722
sg76
g4716
sg69
(lp4723
g62
(g83
g64
NtRp4724
(dp4725
g67
(dp4726
sg76
g4720
sg69
(lp4727
g62
(g63
g64
NtRp4728
(dp4729
g67
(dp4730
g75
I4
ssg76
g4724
sg69
(lp4731
g62
(g71
g64
NtRp4732
(dp4733
g67
(dp4734
g75
I3
ssg76
Nsg69
(lp4735
g62
(g78
g64
NtRp4736
(dp4737
g67
(dp4738
sg76
g4732
sg69
(lp4739
g62
(g83
g64
NtRp4740
(dp4741
g67
(dp4742
sg76
g4736
sg69
(lp4743
g62
(g63
g64
NtRp4744
(dp4745
g67
(dp4746
g75
I3
ssg76
g4740
sg69
(lp4747
cgluon.languages
lazyT_unpickle
p4748
(S't\x04\x00\x00\x00Home'
tRp4749
asbasbasbag62
(g78
g64
NtRp4750
(dp4751
g67
(dp4752
sg76
g4732
sg69
(lp4753
g62
(g83
g64
NtRp4754
(dp4755
g67
(dp4756
sg76
g4750
sg69
(lp4757
g62
(g63
g64
NtRp4758
(dp4759
g67
(dp4760
g75
I3
ssg76
g4754
sg69
(lp4761
g105
asbasbasbag62
(g78
g64
NtRp4762
(dp4763
g67
(dp4764
sg76
g4732
sg69
(lp4765
g62
(g83
g64
NtRp4766
(dp4767
g67
(dp4768
sg76
g4762
sg69
(lp4769
g62
(g63
g64
NtRp4770
(dp4771
g67
(dp4772
g75
I3
ssg76
g4766
sg69
(lp4773
S'/Hadoop/default/index'
p4774
asbasbasbag62
(g78
g64
NtRp4775
(dp4776
g67
(dp4777
sg76
g4732
sg69
(lp4778
g62
(g83
g64
NtRp4779
(dp4780
g67
(dp4781
sg76
g4775
sg69
(lp4782
g62
(g63
g64
NtRp4783
(dp4784
g67
(dp4785
g75
I3
ssg76
g4779
sg69
(lp4786
g62
(g71
g64
NtRp4787
(dp4788
g67
(dp4789
g75
I2
ssg76
Nsg69
(lp4790
sbasbasbasbasbasbasbasbag62
(g78
g64
NtRp4791
(dp4792
g67
(dp4793
sg76
g4716
sg69
(lp4794
g62
(g83
g64
NtRp4795
(dp4796
g67
(dp4797
sg76
g4791
sg69
(lp4798
g62
(g63
g64
NtRp4799
(dp4800
g67
(dp4801
g75
I4
ssg76
g4795
sg69
(lp4802
g62
(g71
g64
NtRp4803
(dp4804
g67
(dp4805
g75
I3
ssg76
Nsg69
(lp4806
g62
(g78
g64
NtRp4807
(dp4808
g67
(dp4809
sg76
g4803
sg69
(lp4810
g62
(g83
g64
NtRp4811
(dp4812
g67
(dp4813
sg76
g4807
sg69
(lp4814
g62
(g63
g64
NtRp4815
(dp4816
g67
(dp4817
g75
I3
ssg76
g4811
sg69
(lp4818
g62
(cgluon.html
SPAN
p4819
g64
NtRp4820
(dp4821
g67
(dp4822
g87
S'color:yellow'
p4823
ssg76
Nsg69
(lp4824
g4694
asbasbasbasbag62
(g78
g64
NtRp4825
(dp4826
g67
(dp4827
sg76
g4803
sg69
(lp4828
g62
(g83
g64
NtRp4829
(dp4830
g67
(dp4831
sg76
g4825
sg69
(lp4832
g62
(g63
g64
NtRp4833
(dp4834
g67
(dp4835
g75
I3
ssg76
g4829
sg69
(lp4836
g105
asbasbasbag62
(g78
g64
NtRp4837
(dp4838
g67
(dp4839
sg76
g4803
sg69
(lp4840
g62
(g83
g64
NtRp4841
(dp4842
g67
(dp4843
sg76
g4837
sg69
(lp4844
g62
(g63
g64
NtRp4845
(dp4846
g67
(dp4847
g75
I3
ssg76
g4841
sg69
(lp4848
S'None'
p4849
asbasbasbag62
(g78
g64
NtRp4850
(dp4851
g67
(dp4852
sg76
g4803
sg69
(lp4853
g62
(g83
g64
NtRp4854
(dp4855
g67
(dp4856
sg76
g4850
sg69
(lp4857
g62
(g63
g64
NtRp4858
(dp4859
g67
(dp4860
g75
I3
ssg76
g4854
sg69
(lp4861
g62
(g71
g64
NtRp4862
(dp4863
g67
(dp4864
g75
I2
ssg76
Nsg69
(lp4865
g62
(g78
g64
NtRp4866
(dp4867
g67
(dp4868
sg76
g4862
sg69
(lp4869
g62
(g83
g64
NtRp4870
(dp4871
g67
(dp4872
sg76
g4866
sg69
(lp4873
g62
(g63
g64
NtRp4874
(dp4875
g67
(dp4876
g75
I2
ssg76
g4870
sg69
(lp4877
g62
(g71
g64
NtRp4878
(dp4879
g67
(dp4880
g75
I1
ssg76
Nsg69
(lp4881
g62
(g78
g64
NtRp4882
(dp4883
g67
(dp4884
sg76
g4878
sg69
(lp4885
g62
(g83
g64
NtRp4886
(dp4887
g67
(dp4888
sg76
g4882
sg69
(lp4889
g62
(g63
g64
NtRp4890
(dp4891
g67
(dp4892
g75
I1
ssg76
g4886
sg69
(lp4893
g4748
(S's\x08\x00\x00\x00My Sites'
tRp4894
asbasbasbag62
(g78
g64
NtRp4895
(dp4896
g67
(dp4897
sg76
g4878
sg69
(lp4898
g62
(g83
g64
NtRp4899
(dp4900
g67
(dp4901
sg76
g4895
sg69
(lp4902
g62
(g63
g64
NtRp4903
(dp4904
g67
(dp4905
g75
I1
ssg76
g4899
sg69
(lp4906
I00
asbasbasbag62
(g78
g64
NtRp4907
(dp4908
g67
(dp4909
sg76
g4878
sg69
(lp4910
g62
(g83
g64
NtRp4911
(dp4912
g67
(dp4913
sg76
g4907
sg69
(lp4914
g62
(g63
g64
NtRp4915
(dp4916
g67
(dp4917
g75
I1
ssg76
g4911
sg69
(lp4918
S'/admin/default/site'
p4919
asbasbasbasbasbasbasbag62
(g78
g64
NtRp4920
(dp4921
g67
(dp4922
sg76
g4862
sg69
(lp4923
g62
(g83
g64
NtRp4924
(dp4925
g67
(dp4926
sg76
g4920
sg69
(lp4927
g62
(g63
g64
NtRp4928
(dp4929
g67
(dp4930
g75
I2
ssg76
g4924
sg69
(lp4931
g62
(g71
g64
NtRp4932
(dp4933
g67
(dp4934
g75
I1
ssg76
Nsg69
(lp4935
g62
(g78
g64
NtRp4936
(dp4937
g67
(dp4938
sg76
g4932
sg69
(lp4939
g62
(g83
g64
NtRp4940
(dp4941
g67
(dp4942
sg76
g4936
sg69
(lp4943
g62
(g63
g64
NtRp4944
(dp4945
g67
(dp4946
g75
I1
ssg76
g4940
sg69
(lp4947
g4748
(S's\x08\x00\x00\x00This App'
tRp4948
asbasbasbag62
(g78
g64
NtRp4949
(dp4950
g67
(dp4951
sg76
g4932
sg69
(lp4952
g62
(g83
g64
NtRp4953
(dp4954
g67
(dp4955
sg76
g4949
sg69
(lp4956
g62
(g63
g64
NtRp4957
(dp4958
g67
(dp4959
g75
I1
ssg76
g4953
sg69
(lp4960
I00
asbasbasbag62
(g78
g64
NtRp4961
(dp4962
g67
(dp4963
sg76
g4932
sg69
(lp4964
g62
(g83
g64
NtRp4965
(dp4966
g67
(dp4967
sg76
g4961
sg69
(lp4968
g62
(g63
g64
NtRp4969
(dp4970
g67
(dp4971
g75
I1
ssg76
g4965
sg69
(lp4972
S'/admin/default/design/Hadoop'
p4973
asbasbasbag62
(g78
g64
NtRp4974
(dp4975
g67
(dp4976
sg76
g4932
sg69
(lp4977
g62
(g83
g64
NtRp4978
(dp4979
g67
(dp4980
sg76
g4974
sg69
(lp4981
g62
(g63
g64
NtRp4982
(dp4983
g67
(dp4984
g75
I1
ssg76
g4978
sg69
(lp4985
(lp4986
(g4748
(S't\n\x00\x00\x00Controller'
tRp4987
I00
S'/admin/default/edit/Hadoop/controllers/default.py'
tp4988
a(g4748
(S't\x04\x00\x00\x00View'
tRp4989
I00
S'/admin/default/edit/Hadoop/views/default/action.html'
tp4990
a(g4748
(S't\x06\x00\x00\x00Layout'
tRp4991
I00
S'/admin/default/edit/Hadoop/views/layout.html'
tp4992
a(g4748
(S't\n\x00\x00\x00Stylesheet'
tRp4993
I00
S'/admin/default/edit/Hadoop/static/css/web2py.css'
tp4994
a(g4748
(S's\x08\x00\x00\x00DB Model'
tRp4995
I00
S'/admin/default/edit/Hadoop/models/db.py'
tp4996
a(g4748
(S's\n\x00\x00\x00Menu Model'
tRp4997
I00
S'/admin/default/edit/Hadoop/models/menu.py'
tp4998
a(g4748
(S't\x08\x00\x00\x00Database'
tRp4999
I00
S'/Hadoop/appadmin/index'
tp5000
a(g4748
(S't\x06\x00\x00\x00Errors'
tRp5001
I00
S'/admin/default/errors/Hadoop'
tp5002
a(g4748
(S't\x05\x00\x00\x00About'
tRp5003
I00
S'/admin/default/about/Hadoop'
tp5004
aasbasbasbasbasbasbasbag62
(g78
g64
NtRp5005
(dp5006
g67
(dp5007
sg76
g4862
sg69
(lp5008
g62
(g83
g64
NtRp5009
(dp5010
g67
(dp5011
sg76
g5005
sg69
(lp5012
g62
(g63
g64
NtRp5013
(dp5014
g67
(dp5015
g75
I2
ssg76
g5009
sg69
(lp5016
g62
(g71
g64
NtRp5017
(dp5018
g67
(dp5019
g75
I1
ssg76
Nsg69
(lp5020
g62
(g78
g64
NtRp5021
(dp5022
g67
(dp5023
sg76
g5017
sg69
(lp5024
g62
(g83
g64
NtRp5025
(dp5026
g67
(dp5027
sg76
g5021
sg69
(lp5028
g62
(g63
g64
NtRp5029
(dp5030
g67
(dp5031
g75
I1
ssg76
g5025
sg69
(lp5032
S'web2py.com'
p5033
asbasbasbag62
(g78
g64
NtRp5034
(dp5035
g67
(dp5036
sg76
g5017
sg69
(lp5037
g62
(g83
g64
NtRp5038
(dp5039
g67
(dp5040
sg76
g5034
sg69
(lp5041
g62
(g63
g64
NtRp5042
(dp5043
g67
(dp5044
g75
I1
ssg76
g5038
sg69
(lp5045
I00
asbasbasbag62
(g78
g64
NtRp5046
(dp5047
g67
(dp5048
sg76
g5017
sg69
(lp5049
g62
(g83
g64
NtRp5050
(dp5051
g67
(dp5052
sg76
g5046
sg69
(lp5053
g62
(g63
g64
NtRp5054
(dp5055
g67
(dp5056
g75
I1
ssg76
g5050
sg69
(lp5057
S'http://www.web2py.com'
p5058
asbasbasbag62
(g78
g64
NtRp5059
(dp5060
g67
(dp5061
sg76
g5017
sg69
(lp5062
g62
(g83
g64
NtRp5063
(dp5064
g67
(dp5065
sg76
g5059
sg69
(lp5066
g62
(g63
g64
NtRp5067
(dp5068
g67
(dp5069
g75
I1
ssg76
g5063
sg69
(lp5070
(lp5071
(g4748
(S't\x08\x00\x00\x00Download'
tRp5072
I00
S'http://www.web2py.com/examples/default/download'
p5073
tp5074
a(g4748
(S't\x07\x00\x00\x00Support'
tRp5075
I00
S'http://www.web2py.com/examples/default/support'
p5076
tp5077
a(g4748
(S't\x04\x00\x00\x00Demo'
tRp5078
I00
S'http://web2py.com/demo_admin'
p5079
tp5080
a(g4748
(S's\x0e\x00\x00\x00Quick Examples'
tRp5081
I00
S'http://web2py.com/examples/default/examples'
p5082
tp5083
a(g4748
(S't\x03\x00\x00\x00FAQ'
tRp5084
I00
S'http://web2py.com/AlterEgo'
p5085
tp5086
a(g4748
(S't\x06\x00\x00\x00Videos'
tRp5087
I00
S'http://www.web2py.com/examples/default/videos/'
p5088
tp5089
a(g4748
(S's\x11\x00\x00\x00Free Applications'
tRp5090
I00
S'http://web2py.com/appliances'
p5091
tp5092
a(g4748
(S't\x07\x00\x00\x00Plugins'
tRp5093
I00
S'http://web2py.com/plugins'
p5094
tp5095
a(g4748
(S't\x07\x00\x00\x00Layouts'
tRp5096
I00
S'http://web2py.com/layouts'
p5097
tp5098
a(g4748
(S't\x07\x00\x00\x00Recipes'
tRp5099
I00
S'http://web2pyslices.com/'
p5100
tp5101
a(g4748
(S't\x08\x00\x00\x00Semantic'
tRp5102
I00
S'http://web2py.com/semantic'
p5103
tp5104
aasbasbasbasbasbasbasbag62
(g78
g64
NtRp5105
(dp5106
g67
(dp5107
sg76
g4862
sg69
(lp5108
g62
(g83
g64
NtRp5109
(dp5110
g67
(dp5111
sg76
g5105
sg69
(lp5112
g62
(g63
g64
NtRp5113
(dp5114
g67
(dp5115
g75
I2
ssg76
g5109
sg69
(lp5116
g62
(g71
g64
NtRp5117
(dp5118
g67
(dp5119
g75
I1
ssg76
Nsg69
(lp5120
g62
(g78
g64
NtRp5121
(dp5122
g67
(dp5123
sg76
g5117
sg69
(lp5124
g62
(g83
g64
NtRp5125
(dp5126
g67
(dp5127
sg76
g5121
sg69
(lp5128
g62
(g63
g64
NtRp5129
(dp5130
g67
(dp5131
g75
I1
ssg76
g5125
sg69
(lp5132
g4748
(S't\r\x00\x00\x00Documentation'
tRp5133
asbasbasbag62
(g78
g64
NtRp5134
(dp5135
g67
(dp5136
sg76
g5117
sg69
(lp5137
g62
(g83
g64
NtRp5138
(dp5139
g67
(dp5140
sg76
g5134
sg69
(lp5141
g62
(g63
g64
NtRp5142
(dp5143
g67
(dp5144
g75
I1
ssg76
g5138
sg69
(lp5145
I00
asbasbasbag62
(g78
g64
NtRp5146
(dp5147
g67
(dp5148
sg76
g5117
sg69
(lp5149
g62
(g83
g64
NtRp5150
(dp5151
g67
(dp5152
sg76
g5146
sg69
(lp5153
g62
(g63
g64
NtRp5154
(dp5155
g67
(dp5156
g75
I1
ssg76
g5150
sg69
(lp5157
S'http://www.web2py.com/book'
p5158
asbasbasbag62
(g78
g64
NtRp5159
(dp5160
g67
(dp5161
sg76
g5117
sg69
(lp5162
g62
(g83
g64
NtRp5163
(dp5164
g67
(dp5165
sg76
g5159
sg69
(lp5166
g62
(g63
g64
NtRp5167
(dp5168
g67
(dp5169
g75
I1
ssg76
g5163
sg69
(lp5170
(lp5171
(g4748
(S't\x07\x00\x00\x00Preface'
tRp5172
I00
S'http://www.web2py.com/book/default/chapter/00'
p5173
tp5174
a(g4748
(S't\x0c\x00\x00\x00Introduction'
tRp5175
I00
S'http://www.web2py.com/book/default/chapter/01'
p5176
tp5177
a(g4748
(S't\x06\x00\x00\x00Python'
tRp5178
I00
S'http://www.web2py.com/book/default/chapter/02'
p5179
tp5180
a(g4748
(S't\x08\x00\x00\x00Overview'
tRp5181
I00
S'http://www.web2py.com/book/default/chapter/03'
p5182
tp5183
a(g4748
(S's\x08\x00\x00\x00The Core'
tRp5184
I00
S'http://www.web2py.com/book/default/chapter/04'
p5185
tp5186
a(g4748
(S's\t\x00\x00\x00The Views'
tRp5187
I00
S'http://www.web2py.com/book/default/chapter/05'
p5188
tp5189
a(g4748
(S't\x08\x00\x00\x00Database'
tRp5190
I00
S'http://www.web2py.com/book/default/chapter/06'
p5191
tp5192
a(g4748
(S's\x14\x00\x00\x00Forms and Validators'
tRp5193
I00
S'http://www.web2py.com/book/default/chapter/07'
p5194
tp5195
a(g4748
(S's\r\x00\x00\x00Email and SMS'
tRp5196
I00
S'http://www.web2py.com/book/default/chapter/08'
p5197
tp5198
a(g4748
(S's\x0e\x00\x00\x00Access Control'
tRp5199
I00
S'http://www.web2py.com/book/default/chapter/09'
p5200
tp5201
a(g4748
(S't\x08\x00\x00\x00Services'
tRp5202
I00
S'http://www.web2py.com/book/default/chapter/10'
p5203
tp5204
a(g4748
(S's\x0c\x00\x00\x00Ajax Recipes'
tRp5205
I00
S'http://www.web2py.com/book/default/chapter/11'
p5206
tp5207
a(g4748
(S's\x16\x00\x00\x00Components and Plugins'
tRp5208
I00
S'http://www.web2py.com/book/default/chapter/12'
p5209
tp5210
a(g4748
(S's\x12\x00\x00\x00Deployment Recipes'
tRp5211
I00
S'http://www.web2py.com/book/default/chapter/13'
p5212
tp5213
a(g4748
(S's\r\x00\x00\x00Other Recipes'
tRp5214
I00
S'http://www.web2py.com/book/default/chapter/14'
p5215
tp5216
a(g4748
(S's\r\x00\x00\x00Buy this book'
tRp5217
I00
S'http://stores.lulu.com/web2py'
p5218
tp5219
aasbasbasbasbasbasbasbag62
(g78
g64
NtRp5220
(dp5221
g67
(dp5222
sg76
g4862
sg69
(lp5223
g62
(g83
g64
NtRp5224
(dp5225
g67
(dp5226
sg76
g5220
sg69
(lp5227
g62
(g63
g64
NtRp5228
(dp5229
g67
(dp5230
g75
I2
ssg76
g5224
sg69
(lp5231
g62
(g71
g64
NtRp5232
(dp5233
g67
(dp5234
g75
I1
ssg76
Nsg69
(lp5235
g62
(g78
g64
NtRp5236
(dp5237
g67
(dp5238
sg76
g5232
sg69
(lp5239
g62
(g83
g64
NtRp5240
(dp5241
g67
(dp5242
sg76
g5236
sg69
(lp5243
g62
(g63
g64
NtRp5244
(dp5245
g67
(dp5246
g75
I1
ssg76
g5240
sg69
(lp5247
g4748
(S't\t\x00\x00\x00Community'
tRp5248
asbasbasbag62
(g78
g64
NtRp5249
(dp5250
g67
(dp5251
sg76
g5232
sg69
(lp5252
g62
(g83
g64
NtRp5253
(dp5254
g67
(dp5255
sg76
g5249
sg69
(lp5256
g62
(g63
g64
NtRp5257
(dp5258
g67
(dp5259
g75
I1
ssg76
g5253
sg69
(lp5260
I00
asbasbasbag62
(g78
g64
NtRp5261
(dp5262
g67
(dp5263
sg76
g5232
sg69
(lp5264
g62
(g83
g64
NtRp5265
(dp5266
g67
(dp5267
sg76
g5261
sg69
(lp5268
g62
(g63
g64
NtRp5269
(dp5270
g67
(dp5271
g75
I1
ssg76
g5265
sg69
(lp5272
Nasbasbasbag62
(g78
g64
NtRp5273
(dp5274
g67
(dp5275
sg76
g5232
sg69
(lp5276
g62
(g83
g64
NtRp5277
(dp5278
g67
(dp5279
sg76
g5273
sg69
(lp5280
g62
(g63
g64
NtRp5281
(dp5282
g67
(dp5283
g75
I1
ssg76
g5277
sg69
(lp5284
(lp5285
(g4748
(S't\x06\x00\x00\x00Groups'
tRp5286
I00
S'http://www.web2py.com/examples/default/usergroups'
p5287
tp5288
a(g4748
(S't\x07\x00\x00\x00Twitter'
tRp5289
I00
S'http://twitter.com/web2py'
p5290
tp5291
a(g4748
(S's\t\x00\x00\x00Live Chat'
tRp5292
I00
S'http://webchat.freenode.net/?channels=web2py'
p5293
tp5294
aasbasbasbasbasbasbasbag62
(g78
g64
NtRp5295
(dp5296
g67
(dp5297
sg76
g4862
sg69
(lp5298
g62
(g83
g64
NtRp5299
(dp5300
g67
(dp5301
sg76
g5295
sg69
(lp5302
g62
(g63
g64
NtRp5303
(dp5304
g67
(dp5305
g75
I2
ssg76
g5299
sg69
(lp5306
g62
(g71
g64
NtRp5307
(dp5308
g67
(dp5309
g75
I1
ssg76
Nsg69
(lp5310
g62
(g78
g64
NtRp5311
(dp5312
g67
(dp5313
sg76
g5307
sg69
(lp5314
g62
(g83
g64
NtRp5315
(dp5316
g67
(dp5317
sg76
g5311
sg69
(lp5318
g62
(g63
g64
NtRp5319
(dp5320
g67
(dp5321
g75
I1
ssg76
g5315
sg69
(lp5322
g4748
(S't\x07\x00\x00\x00Plugins'
tRp5323
asbasbasbag62
(g78
g64
NtRp5324
(dp5325
g67
(dp5326
sg76
g5307
sg69
(lp5327
g62
(g83
g64
NtRp5328
(dp5329
g67
(dp5330
sg76
g5324
sg69
(lp5331
g62
(g63
g64
NtRp5332
(dp5333
g67
(dp5334
g75
I1
ssg76
g5328
sg69
(lp5335
I00
asbasbasbag62
(g78
g64
NtRp5336
(dp5337
g67
(dp5338
sg76
g5307
sg69
(lp5339
g62
(g83
g64
NtRp5340
(dp5341
g67
(dp5342
sg76
g5336
sg69
(lp5343
g62
(g63
g64
NtRp5344
(dp5345
g67
(dp5346
g75
I1
ssg76
g5340
sg69
(lp5347
Nasbasbasbag62
(g78
g64
NtRp5348
(dp5349
g67
(dp5350
sg76
g5307
sg69
(lp5351
g62
(g83
g64
NtRp5352
(dp5353
g67
(dp5354
sg76
g5348
sg69
(lp5355
g62
(g63
g64
NtRp5356
(dp5357
g67
(dp5358
g75
I1
ssg76
g5352
sg69
(lp5359
(lp5360
(S'plugin_wiki'
p5361
I00
S'http://web2py.com/examples/default/download'
p5362
tp5363
a(g4748
(S's\r\x00\x00\x00Other Plugins'
tRp5364
I00
g5094
tp5365
a(g4748
(S's\x0e\x00\x00\x00Layout Plugins'
tRp5366
I00
g5097
tp5367
aasbasbasbasbasbasbasbasbasbasbasbasbasbasbasbasbasbasbasbag62
(g78
g64
NtRp5368
(dp5369
g67
(dp5370
sg76
g4243
sg69
(lp5371
g62
(g83
g64
NtRp5372
(dp5373
g67
(dp5374
g87
g88
ssg76
g5368
sg69
(lp5375
S'meta'
p5376
asbag62
(g83
g64
NtRp5377
(dp5378
g67
(dp5379
g94
g95
ssg76
g5368
sg69
(lp5380
S':'
asbag62
(g83
g64
NtRp5381
(dp5382
g67
(dp5383
sg76
g5368
sg69
(lp5384
g62
(g63
g64
NtRp5385
(dp5386
g67
(dp5387
g75
I5
ssg76
g5381
sg69
(lp5388
g62
(g71
g64
NtRp5389
(dp5390
g67
(dp5391
g75
I4
ssg76
Nsg69
(lp5392
g62
(g78
g64
NtRp5393
(dp5394
g67
(dp5395
sg76
g5389
sg69
(lp5396
g62
(g83
g64
NtRp5397
(dp5398
g67
(dp5399
g87
g88
ssg76
g5393
sg69
(lp5400
S'author'
p5401
asbag62
(g83
g64
NtRp5402
(dp5403
g67
(dp5404
g94
g95
ssg76
g5393
sg69
(lp5405
S':'
asbag62
(g83
g64
NtRp5406
(dp5407
g67
(dp5408
sg76
g5393
sg69
(lp5409
g62
(g63
g64
NtRp5410
(dp5411
g67
(dp5412
g75
I4
ssg76
g5406
sg69
(lp5413
S'Your Name <you@example.com>'
p5414
asbasbasbag62
(g78
g64
NtRp5415
(dp5416
g67
(dp5417
sg76
g5389
sg69
(lp5418
g62
(g83
g64
NtRp5419
(dp5420
g67
(dp5421
g87
g88
ssg76
g5415
sg69
(lp5422
S'copyright'
p5423
asbag62
(g83
g64
NtRp5424
(dp5425
g67
(dp5426
g94
g95
ssg76
g5415
sg69
(lp5427
S':'
asbag62
(g83
g64
NtRp5428
(dp5429
g67
(dp5430
sg76
g5415
sg69
(lp5431
g62
(g63
g64
NtRp5432
(dp5433
g67
(dp5434
g75
I4
ssg76
g5428
sg69
(lp5435
S'Copyright 2011'
p5436
asbasbasbag62
(g78
g64
NtRp5437
(dp5438
g67
(dp5439
sg76
g5389
sg69
(lp5440
g62
(g83
g64
NtRp5441
(dp5442
g67
(dp5443
g87
g88
ssg76
g5437
sg69
(lp5444
S'description'
p5445
asbag62
(g83
g64
NtRp5446
(dp5447
g67
(dp5448
g94
g95
ssg76
g5437
sg69
(lp5449
S':'
asbag62
(g83
g64
NtRp5450
(dp5451
g67
(dp5452
sg76
g5437
sg69
(lp5453
g62
(g63
g64
NtRp5454
(dp5455
g67
(dp5456
g75
I4
ssg76
g5450
sg69
(lp5457
S'a cool new app'
p5458
asbasbasbag62
(g78
g64
NtRp5459
(dp5460
g67
(dp5461
sg76
g5389
sg69
(lp5462
g62
(g83
g64
NtRp5463
(dp5464
g67
(dp5465
g87
g88
ssg76
g5459
sg69
(lp5466
S'generator'
p5467
asbag62
(g83
g64
NtRp5468
(dp5469
g67
(dp5470
g94
g95
ssg76
g5459
sg69
(lp5471
S':'
asbag62
(g83
g64
NtRp5472
(dp5473
g67
(dp5474
sg76
g5459
sg69
(lp5475
g62
(g63
g64
NtRp5476
(dp5477
g67
(dp5478
g75
I4
ssg76
g5472
sg69
(lp5479
S'Web2py Web Framework'
p5480
asbasbasbag62
(g78
g64
NtRp5481
(dp5482
g67
(dp5483
sg76
g5389
sg69
(lp5484
g62
(g83
g64
NtRp5485
(dp5486
g67
(dp5487
g87
g88
ssg76
g5481
sg69
(lp5488
S'keywords'
p5489
asbag62
(g83
g64
NtRp5490
(dp5491
g67
(dp5492
g94
g95
ssg76
g5481
sg69
(lp5493
S':'
asbag62
(g83
g64
NtRp5494
(dp5495
g67
(dp5496
sg76
g5481
sg69
(lp5497
g62
(g63
g64
NtRp5498
(dp5499
g67
(dp5500
g75
I4
ssg76
g5494
sg69
(lp5501
S'web2py, python, framework'
p5502
asbasbasbasbasbasbasbag62
(g78
g64
NtRp5503
(dp5504
g67
(dp5505
sg76
g4243
sg69
(lp5506
g62
(g83
g64
NtRp5507
(dp5508
g67
(dp5509
g87
g88
ssg76
g5503
sg69
(lp5510
S'postprocessing'
p5511
asbag62
(g83
g64
NtRp5512
(dp5513
g67
(dp5514
g94
g95
ssg76
g5503
sg69
(lp5515
S':'
asbag62
(g83
g64
NtRp5516
(dp5517
g67
(dp5518
sg76
g5503
sg69
(lp5519
g62
(g63
g64
NtRp5520
(dp5521
g67
(dp5522
g75
I5
ssg76
g5516
sg69
(lp5523
g62
(g71
g64
NtRp5524
(dp5525
g67
(dp5526
g75
I4
ssg76
Nsg69
(lp5527
sbasbasbasbag62
(g78
g64
NtRp5528
(dp5529
g67
(dp5530
sg76
g4243
sg69
(lp5531
g62
(g83
g64
NtRp5532
(dp5533
g67
(dp5534
g87
g88
ssg76
g5528
sg69
(lp5535
S'session_filename'
p5536
asbag62
(g83
g64
NtRp5537
(dp5538
g67
(dp5539
g94
g95
ssg76
g5528
sg69
(lp5540
S':'
asbag62
(g83
g64
NtRp5541
(dp5542
g67
(dp5543
sg76
g5528
sg69
(lp5544
g62
(g63
g64
NtRp5545
(dp5546
g67
(dp5547
g75
I5
ssg76
g5541
sg69
(lp5548
S'/home/hduser/web2py/applications/Hadoop/sessions/127.0.0.1-61a5aafb-2481-4939-b884-a6d46db8cf0a'
p5549
asbasbasbag62
(g78
g64
NtRp5550
(dp5551
g67
(dp5552
sg76
g4243
sg69
(lp5553
g62
(g83
g64
NtRp5554
(dp5555
g67
(dp5556
g87
g88
ssg76
g5550
sg69
(lp5557
S'session_id'
p5558
asbag62
(g83
g64
NtRp5559
(dp5560
g67
(dp5561
g94
g95
ssg76
g5550
sg69
(lp5562
S':'
asbag62
(g83
g64
NtRp5563
(dp5564
g67
(dp5565
sg76
g5550
sg69
(lp5566
g62
(g63
g64
NtRp5567
(dp5568
g67
(dp5569
g75
I5
ssg76
g5563
sg69
(lp5570
S'127.0.0.1-61a5aafb-2481-4939-b884-a6d46db8cf0a'
p5571
asbasbasbag62
(g78
g64
NtRp5572
(dp5573
g67
(dp5574
sg76
g4243
sg69
(lp5575
g62
(g83
g64
NtRp5576
(dp5577
g67
(dp5578
g87
g88
ssg76
g5572
sg69
(lp5579
S'session_id_name'
p5580
asbag62
(g83
g64
NtRp5581
(dp5582
g67
(dp5583
g94
g95
ssg76
g5572
sg69
(lp5584
S':'
asbag62
(g83
g64
NtRp5585
(dp5586
g67
(dp5587
sg76
g5572
sg69
(lp5588
g62
(g63
g64
NtRp5589
(dp5590
g67
(dp5591
g75
I5
ssg76
g5585
sg69
(lp5592
g4300
asbasbasbag62
(g78
g64
NtRp5593
(dp5594
g67
(dp5595
sg76
g4243
sg69
(lp5596
g62
(g83
g64
NtRp5597
(dp5598
g67
(dp5599
g87
g88
ssg76
g5593
sg69
(lp5600
S'session_new'
p5601
asbag62
(g83
g64
NtRp5602
(dp5603
g67
(dp5604
g94
g95
ssg76
g5593
sg69
(lp5605
S':'
asbag62
(g83
g64
NtRp5606
(dp5607
g67
(dp5608
sg76
g5593
sg69
(lp5609
g62
(g63
g64
NtRp5610
(dp5611
g67
(dp5612
g75
I5
ssg76
g5606
sg69
(lp5613
g1791
asbasbasbag62
(g78
g64
NtRp5614
(dp5615
g67
(dp5616
sg76
g4243
sg69
(lp5617
g62
(g83
g64
NtRp5618
(dp5619
g67
(dp5620
g87
g88
ssg76
g5614
sg69
(lp5621
S'status'
p5622
asbag62
(g83
g64
NtRp5623
(dp5624
g67
(dp5625
g94
g95
ssg76
g5614
sg69
(lp5626
S':'
asbag62
(g83
g64
NtRp5627
(dp5628
g67
(dp5629
sg76
g5614
sg69
(lp5630
g62
(g63
g64
NtRp5631
(dp5632
g67
(dp5633
g75
I5
ssg76
g5627
sg69
(lp5634
S'200'
p5635
asbasbasbag62
(g78
g64
NtRp5636
(dp5637
g67
(dp5638
sg76
g4243
sg69
(lp5639
g62
(g83
g64
NtRp5640
(dp5641
g67
(dp5642
g87
g88
ssg76
g5636
sg69
(lp5643
S'subtitle'
p5644
asbag62
(g83
g64
NtRp5645
(dp5646
g67
(dp5647
g94
g95
ssg76
g5636
sg69
(lp5648
S':'
asbag62
(g83
g64
NtRp5649
(dp5650
g67
(dp5651
sg76
g5636
sg69
(lp5652
g62
(g63
g64
NtRp5653
(dp5654
g67
(dp5655
g75
I5
ssg76
g5649
sg69
(lp5656
g4748
(S's\r\x00\x00\x00customize me!'
tRp5657
asbasbasbag62
(g78
g64
NtRp5658
(dp5659
g67
(dp5660
sg76
g4243
sg69
(lp5661
g62
(g83
g64
NtRp5662
(dp5663
g67
(dp5664
g87
g88
ssg76
g5658
sg69
(lp5665
S'title'
p5666
asbag62
(g83
g64
NtRp5667
(dp5668
g67
(dp5669
g94
g95
ssg76
g5658
sg69
(lp5670
S':'
asbag62
(g83
g64
NtRp5671
(dp5672
g67
(dp5673
sg76
g5658
sg69
(lp5674
g62
(g63
g64
NtRp5675
(dp5676
g67
(dp5677
g75
I5
ssg76
g5671
sg69
(lp5678
S'Hadoop'
p5679
asbasbasbag62
(g78
g64
NtRp5680
(dp5681
g67
(dp5682
sg76
g4243
sg69
(lp5683
g62
(g83
g64
NtRp5684
(dp5685
g67
(dp5686
g87
g88
ssg76
g5680
sg69
(lp5687
g2927
asbag62
(g83
g64
NtRp5688
(dp5689
g67
(dp5690
g94
g95
ssg76
g5680
sg69
(lp5691
S':'
asbag62
(g83
g64
NtRp5692
(dp5693
g67
(dp5694
sg76
g5680
sg69
(lp5695
g62
(g63
g64
NtRp5696
(dp5697
g67
(dp5698
g75
I5
ssg76
g5692
sg69
(lp5699
g2940
asbasbasbag62
(g78
g64
NtRp5700
(dp5701
g67
(dp5702
sg76
g4243
sg69
(lp5703
g62
(g83
g64
NtRp5704
(dp5705
g67
(dp5706
g87
g88
ssg76
g5700
sg69
(lp5707
S'view'
p5708
asbag62
(g83
g64
NtRp5709
(dp5710
g67
(dp5711
g94
g95
ssg76
g5700
sg69
(lp5712
S':'
asbag62
(g83
g64
NtRp5713
(dp5714
g67
(dp5715
sg76
g5700
sg69
(lp5716
g62
(g63
g64
NtRp5717
(dp5718
g67
(dp5719
g75
I5
ssg76
g5713
sg69
(lp5720
S'default/action.html'
p5721
asbasbasbasbasbsS'locals'
p5722
(dp5723
g4222
S"''"
p5724
sS'table'
p5725
S"''"
p5726
sS'str'
p5727
S"''"
p5728
sssS'traceback'
p5729
S'Traceback (most recent call last):\n  File "/usr/lib/pymodules/python2.7/gluon/restricted.py", line 204, in restricted\n    exec ccode in environment\n  File "/home/hduser/web2py/applications/Hadoop/controllers/default.py", line 208, in <module>\n  File "/usr/lib/pymodules/python2.7/gluon/globals.py", line 172, in <lambda>\n    self._caller = lambda f: f()\n  File "/home/hduser/web2py/applications/Hadoop/controllers/default.py", line 137, in action\n    codegen();\n  File "/home/hduser/web2py/applications/Hadoop/controllers/default.py", line 21, in codegen\n    os.remove(Table+".jar");\nOSError: [Errno 2] No such file or directory: \'login.jar\'\n'
p5730
s.