(dp1
S'output'
p2
S"<type 'exceptions.SyntaxError'> EOL while scanning string literal (main.html, line 76)"
p3
sS'layer'
p4
S'/home/ranganath/web2py/applications/Hadoop/views/default/main.html'
p5
sS'code'
p6
S'response.write(\'<!DOCTYPE html>\\n<!-- paulirish.com/2008/conditional-stylesheets-vs-css-hacks-answer-neither/ -->\\n<!--[if lt IE 7]><html class="ie ie6 ie-lte9 ie-lte8 ie-lte7 no-js" lang="\', escape=False)\nresponse.write(T.accepted_language or \'en\')\nresponse.write(\'"> <![endif]-->\\n<!--[if IE 7]><html class="ie ie7 ie-lte9 ie-lte8 ie-lte7 no-js" lang="\', escape=False)\nresponse.write(T.accepted_language or \'en\')\nresponse.write(\'"> <![endif]-->\\n<!--[if IE 8]><html class="ie ie8 ie-lte9 ie-lte8 no-js" lang="\', escape=False)\nresponse.write(T.accepted_language or \'en\')\nresponse.write(\'"> <![endif]-->\\n<!--[if IE 9]><html class="ie9 ie-lte9 no-js" lang="\', escape=False)\nresponse.write(T.accepted_language or \'en\')\nresponse.write(\'"> <![endif]-->\\n<!--[if (gt IE 9)|!(IE)]><!--> <html class="no-js" lang="\', escape=False)\nresponse.write(T.accepted_language or \'en\')\nresponse.write(\'"> <!--<![endif]-->\\n<head>\\n  <meta charset="utf-8" />\\n  <!-- www.phpied.com/conditional-comments-block-downloads/ -->\\n  <!-- Always force latest IE rendering engine\\n\\t   (even in intranet) & Chrome Frame\\n\\t   Remove this if you use the .htaccess -->\\n  <!--[if IE]>\\n    <meta http-equiv="X-UA-Compatible" content="IE=edge\', escape=False)\nresponse.write(not request.is_local and \',chrome=1\' or \'\')\nresponse.write(\'">\\n  <![endif]-->\\n  \\n  <title>\', escape=False)\nresponse.write(response.title or request.application)\nresponse.write(\'</title>\\n  \\n  <!-- http://dev.w3.org/html5/markup/meta.name.html -->\\n  <meta name="application-name" content="\', escape=False)\nresponse.write(request.application)\nresponse.write(\'" />\\n  \\n  <!-- Speaking of Google, don\\\'t forget to set your site up:\\n\\t   http://google.com/webmasters -->\\n  <meta name="google-site-verification" content="" />\\n\\n  <!--  Mobile Viewport Fix\\n\\t  j.mp/mobileviewport & davidbcalhoun.com/2010/viewport-metatag\\n\\t  device-width: Occupy full width of the screen in its current orientation\\n\\t  initial-scale = 1.0 retains dimensions instead of zooming out if page height > device height\\n\\t  user-scalable = yes allows the user to zoom in -->\\n  <meta name="viewport" content="width=device-width, initial-scale=1.0, user-scalable=yes">\\n  \\n  <!-- Place favicon.ico and apple-touch-icon.png in the root of your domain and delete these references -->\\n  <link rel="shortcut icon" href="\', escape=False)\nresponse.write(URL(\'static\',\'favicon.ico\'))\nresponse.write(\'" type="image/x-icon">\\n  <link rel="apple-touch-icon" href="\', escape=False)\nresponse.write(URL(\'static\',\'favicon.png\'))\nresponse.write(\'">\\n\\n  <!-- All JavaScript at the bottom, except for Modernizr which enables \\n\\t   HTML5 elements & feature detects -->\\n  <script src="\', escape=False)\nresponse.write(URL(\'static\',\'js/modernizr.custom.js\'))\nresponse.write(\'"></script>  \\n\\n  <!-- include stylesheets -->\\n  \', escape=False)\nresponse.files.append(URL(\'static\',\'css/skeleton.css\'))\nresponse.files.append(URL(\'static\',\'css/web2py.css\'))\nresponse.files.append(URL(\'static\',\'css/superfish.css\'))\nresponse.files.append(URL(\'static\',\'js/superfish.js\'))\nresponse.write(\'\\n\\n  \', escape=False)\nresponse.write(\'<script type="text/javascript"><!--\\n    // These variables are used by the web2py_ajax_init function in web2py_ajax.js (which is loaded below).\\n    var w2p_ajax_confirm_message = "\', escape=False)\nresponse.write(T(\'Are you sure you want to delete this object?\'))\nresponse.write(\'";\\n    var w2p_ajax_date_format = "\', escape=False)\nresponse.write(T(\'%Y-%m-%d\'))\nresponse.write(\'";\\n    var w2p_ajax_datetime_format = "\', escape=False)\nresponse.write(T(\'%Y-%m-%d %H:%M:%S\'))\nresponse.write(\'";\\n    //--></script>\\n\', escape=False)\nresponse.files.insert(0,URL(\'static\',\'js/jquery.js\'))\nresponse.files.insert(1,URL(\'static\',\'css/calendar.css\'))\nresponse.files.insert(2,URL(\'static\',\'js/calendar.js\'))\nresponse.files.insert(3,URL(\'static\',\'js/web2py.js\'))\nresponse.include_meta()\nresponse.include_files()\nresponse.write(\'\\n\', escape=False)\nresponse.write(\'\\n\\n  <script type="text/javascript">\\n    jQuery(function(){ jQuery(\\\'ul.sf-menu\\\').supersubs({minWidth:12,maxWidth:30,extraWidth:3}).superfish(); });\\n  </script>\\n\\n  \', escape=False)\n# using sidebars need to know what sidebar you want to use\nleft_sidebar_enabled = globals().get(\'left_sidebar_enabled\',False)\nright_sidebar_enabled = globals().get(\'right_sidebar_enabled\',False)\nmiddle_columns = {0:\'sixteen\',1:\'twelve\',2:\'eight\'}[\n(left_sidebar_enabled and 1 or 0)+(right_sidebar_enabled and 1 or 0)]\nresponse.write(\'\\n\\n  <!-- uncomment here to load jquery-ui\\n  <link rel="stylesheet" href="http://ajax.googleapis.com/ajax/libs/jqueryui/1.8.16/themes/base/jquery-ui.css" type="text/css" media="all" />\\n  <script src="http://ajax.googleapis.com/ajax/libs/jqueryui/1.8.16/jquery-ui.min.js" type="text/javascript"></script>\\n  uncomment to load jquery-ui //-->\\n</head>\\n<body>\\n  <div class="wrapper"><!-- for sticky footer -->\\n  \\n    <div class="topbar">\\n      <div class="container">    \\n        <div class="sixteen columns">\\n          <div id="navbar">\', escape=False)\nresponse.write(\'auth\' in globals() and auth.navbar(separators=(\' \',\' | \',\'\')))\nresponse.write(\'</div>\\n          \', escape=False)\nis_mobile=request.user_agent().is_mobile\nresponse.write(\'\\n          <div id="menu">\', escape=False)\nresponse.write(MENU(response.menu, _class=\'mobile-menu\' if is_mobile else \'sf-menu\',mobile=is_mobile))\nresponse.write(\'\\n          </div>\\n        </div>\\n      </div>\\n    </div><!-- topbar -->\\n    \\n    <div class="flash">\', escape=False)\nresponse.write(response.flash or \'\')\nresponse.write(\'</div>\\n    \\n    <div class="header">\\n      <div class="container">         \\n        <div class="sixteen columns">\\n          <h1 class="remove-bottom" style="margin-top: .5em;">\\n          \', escape=False)\nresponse.write(response.title or request.application)\nresponse.write(\'\\n          </h1>\\n          <h5>\', escape=False)\nresponse.write(response.subtitle or \'\')\nresponse.write(\'</h5>\\n        </div>\\n        <div class="sixteen columns">\\n          <div class="statusbar clearfix">\\n            \', escape=False)\nresponse.write(\'\\n            <div class="breadcrumbs">\', escape=False)\nresponse.write(request.function.replace(\'_\', \' \').title())\nresponse.write(\'</div>\\n            \', escape=False)\nresponse.write(\'\\n            <!-- AddToAny BEGIN -->\\n            <div style="float:right; padding-top: .25em;" class="a2a_kit a2a_default_style">\\n            <a class="a2a_dd" href="http://www.addtoany.com/share_save">Share</a></div>\\n            <script type="text/javascript" src="http://static.addtoany.com/menu/page.js"></script>\\n            <!-- AddToAny END -->\\n          </div>\\n        </div>\\n      </div>\\n    </div>\\n\\n    <div class="main">\\n      <div class="container">                 \\n        \', escape=False)\nif left_sidebar_enabled:\n    response.write(\'\\n        <div class="four columns left-sidebar">\\n          \', escape=False)\n    response.write(\'\\n          <h3>Left Sidebar</h3>\\n          <p></p>\\n          \', escape=False)\n    response.write(\'\\n        </div>\\n        \', escape=False)\n    pass\nresponse.write(\'\\n        \\n        <div class="\', escape=False)\nresponse.write(middle_columns)\nresponse.write(\' columns center">\\n          \', escape=False)\nresponse.write(\'\\n          \', escape=False)\nresponse.write(\'\\n<h3>Select Directory</h3>\\n\', escape=False)\npath= "\\"\nresponse.write(\'\\n\', escape=False)\nprint path\nresponse.write(\'\\n<form action="">\\n<input type="radio" namename="directory" value="default">Create Default Directory with Name as TableName (Works only for Import)<br>\\n</form>\\n\', escape=False)\nresponse.write(\'\\n          \', escape=False)\nresponse.write(\'\\n        </div>\\n        \\n        \', escape=False)\nif right_sidebar_enabled:\n    response.write(\'\\n        <div class="four columns">\\n          \', escape=False)\n    response.write(\'\\n          <h3>Right Sidebar</h3>\\n          <p></p>\\n          \', escape=False)\n    response.write(\'\\n        </div>    \\n        \', escape=False)\n    pass\nresponse.write(\'\\n        \\n      </div><!-- container -->\\n    </div><!-- main -->\\n    \\n    <div class="push"></div>\\n  </div><!-- wrapper -->\\n\\n  <div class="footer">\\n    <div class="container">    \\n      <div class="sixteen columns">\\n        \', escape=False)\nresponse.write(\' <!-- this is default footer -->\\n        <div class="footer-content clearfix">\\n          <div class="copyright">\', escape=False)\nresponse.write(T(\'Copyright\'))\nresponse.write(\' &#169; 2011</div>\\n          <div style="float: right;">\\n            <a href="http://www.web2py.com/">\\n            <img style="padding-bottom: 0;" src="\', escape=False)\nresponse.write(URL(\'static\',\'images/poweredby.png\'))\nresponse.write(\'"/>\\n            </a>\\n          </div>\\n        </div>\\n        \', escape=False)\nresponse.write(\'\\t\\n      </div>\\n    </div><!-- container -->\\n  </div><!-- footer -->\\n  \\n  <!--[if lt IE 7 ]>\\n\\t<script src="\', escape=False)\nresponse.write(URL(\'static\',\'js/dd_belatedpng.js\'))\nresponse.write(\'"></script>\\n\\t<script> DD_belatedPNG.fix(\\\'img, .png_bg\\\'); //fix any <img> or .png_bg background-images </script>\\n\\t<![endif]-->\\n  \', escape=False)\nif response.google_analytics_id:\n    response.write(\'<script type="text/javascript"> var _gaq = _gaq || []; _gaq.push([\\\'_setAccount\\\', \\\'\', escape=False)\n    response.write(response.google_analytics_id)\n    response.write("\']); _gaq.push([\'_trackPageview\']); (function() { var ga = document.createElement(\'script\'); ga.type = \'text/javascript\'; ga.async = true; ga.src = (\'https:\' == document.location.protocol ? \'https://ssl\' : \'http://www\') + \'.google-analytics.com/ga.js\'; var s = document.getElementsByTagName(\'script\')[0]; s.parentNode.insertBefore(ga, s); })(); </script> ", escape=False)\n    pass\nresponse.write(\'\\n</body>\\n</html>\\n\', escape=False)'
p7
sS'snapshot'
p8
(dp9
S'exception'
p10
(dp11
S'__getslice__'
p12
S"<method-wrapper '__getslice__' of exceptions.SyntaxError object>"
p13
sS'text'
p14
S'\'path= "\\\\"\\n\''
p15
sS'__str__'
p16
S"<method-wrapper '__str__' of exceptions.SyntaxError object>"
p17
sS'__reduce__'
p18
S'<built-in method __reduce__ of exceptions.SyntaxError object>'
p19
sS'__dict__'
p20
S'{}'
p21
sS'__sizeof__'
p22
S'<built-in method __sizeof__ of exceptions.SyntaxError object>'
p23
sS'__init__'
p24
S"<method-wrapper '__init__' of exceptions.SyntaxError object>"
p25
sS'__setattr__'
p26
S"<method-wrapper '__setattr__' of exceptions.SyntaxError object>"
p27
sS'__reduce_ex__'
p28
S'<built-in method __reduce_ex__ of exceptions.SyntaxError object>'
p29
sS'__new__'
p30
S'<built-in method __new__ of type object>'
p31
sS'__format__'
p32
S'<built-in method __format__ of exceptions.SyntaxError object>'
p33
sS'__class__'
p34
S"<type 'exceptions.SyntaxError'>"
p35
sS'filename'
p36
S"'/home/ranganath/web2py/applications/Hadoop/views/default/main.html'"
p37
sS'lineno'
p38
S'76'
p39
sS'msg'
p40
S"'EOL while scanning string literal'"
p41
sS'__doc__'
p42
S"'Invalid syntax.'"
p43
sS'__getitem__'
p44
S"<method-wrapper '__getitem__' of exceptions.SyntaxError object>"
p45
sS'__setstate__'
p46
S'<built-in method __setstate__ of exceptions.SyntaxError object>'
p47
sS'__getattribute__'
p48
S"<method-wrapper '__getattribute__' of exceptions.SyntaxError object>"
p49
sS'print_file_and_line'
p50
S'None'
p51
sS'args'
p52
S'(\'EOL while scanning string literal\', (\'/home/ranganath/web2py/applications/Hadoop/views/default/main.html\', 76, 9, \'path= "\\\\"\\n\'))'
p53
sS'__subclasshook__'
p54
S'<built-in method __subclasshook__ of type object>'
p55
sS'offset'
p56
S'9'
sS'__unicode__'
p57
S'<built-in method __unicode__ of exceptions.SyntaxError object>'
p58
sS'__delattr__'
p59
S"<method-wrapper '__delattr__' of exceptions.SyntaxError object>"
p60
sS'__repr__'
p61
S"<method-wrapper '__repr__' of exceptions.SyntaxError object>"
p62
sS'__hash__'
p63
S"<method-wrapper '__hash__' of exceptions.SyntaxError object>"
p64
ssS'evalue'
p65
S'EOL while scanning string literal (main.html, line 76)'
p66
sS'request'
p67
ccopy_reg
_reconstructor
p68
(cgluon.html
BEAUTIFY
p69
c__builtin__
object
p70
NtRp71
(dp72
S'attributes'
p73
(dp74
sS'components'
p75
(lp76
g68
(cgluon.html
TABLE
p77
g70
NtRp78
(dp79
g73
(dp80
S'level'
p81
I5
ssS'parent'
p82
Nsg75
(lp83
g68
(cgluon.html
TR
p84
g70
NtRp85
(dp86
g73
(dp87
sg82
g78
sg75
(lp88
g68
(cgluon.html
TD
p89
g70
NtRp90
(dp91
g73
(dp92
S'_style'
p93
S'font-weight:bold;vertical-align:top'
p94
ssg82
g85
sg75
(lp95
S'ajax'
p96
asbag68
(g89
g70
NtRp97
(dp98
g73
(dp99
S'_valign'
p100
S'top'
p101
ssg82
g85
sg75
(lp102
S':'
asbag68
(g89
g70
NtRp103
(dp104
g73
(dp105
sg82
g85
sg75
(lp106
g68
(g69
g70
NtRp107
(dp108
g73
(dp109
g81
I5
ssg82
g103
sg75
(lp110
S'False'
p111
asbasbasbag68
(g84
g70
NtRp112
(dp113
g73
(dp114
sg82
g78
sg75
(lp115
g68
(g89
g70
NtRp116
(dp117
g73
(dp118
g93
g94
ssg82
g112
sg75
(lp119
S'application'
p120
asbag68
(g89
g70
NtRp121
(dp122
g73
(dp123
g100
g101
ssg82
g112
sg75
(lp124
S':'
asbag68
(g89
g70
NtRp125
(dp126
g73
(dp127
sg82
g112
sg75
(lp128
g68
(g69
g70
NtRp129
(dp130
g73
(dp131
g81
I5
ssg82
g125
sg75
(lp132
S'Hadoop'
p133
asbasbasbag68
(g84
g70
NtRp134
(dp135
g73
(dp136
sg82
g78
sg75
(lp137
g68
(g89
g70
NtRp138
(dp139
g73
(dp140
g93
g94
ssg82
g134
sg75
(lp141
g52
asbag68
(g89
g70
NtRp142
(dp143
g73
(dp144
g100
g101
ssg82
g134
sg75
(lp145
S':'
asbag68
(g89
g70
NtRp146
(dp147
g73
(dp148
sg82
g134
sg75
(lp149
g68
(g69
g70
NtRp150
(dp151
g73
(dp152
g81
I5
ssg82
g146
sg75
(lp153
g68
(g77
g70
NtRp154
(dp155
g73
(dp156
g81
I4
ssg82
Nsg75
(lp157
sbasbasbasbag68
(g84
g70
NtRp158
(dp159
g73
(dp160
sg82
g78
sg75
(lp161
g68
(g89
g70
NtRp162
(dp163
g73
(dp164
g93
g94
ssg82
g158
sg75
(lp165
S'body'
p166
asbag68
(g89
g70
NtRp167
(dp168
g73
(dp169
g100
g101
ssg82
g158
sg75
(lp170
S':'
asbag68
(g89
g70
NtRp171
(dp172
g73
(dp173
sg82
g158
sg75
(lp174
g68
(g69
g70
NtRp175
(dp176
g73
(dp177
g81
I5
ssg82
g171
sg75
(lp178
S'<cStringIO.StringO object at 0xabd2df60>'
p179
asbasbasbag68
(g84
g70
NtRp180
(dp181
g73
(dp182
sg82
g78
sg75
(lp183
g68
(g89
g70
NtRp184
(dp185
g73
(dp186
g93
g94
ssg82
g180
sg75
(lp187
S'client'
p188
asbag68
(g89
g70
NtRp189
(dp190
g73
(dp191
g100
g101
ssg82
g180
sg75
(lp192
S':'
asbag68
(g89
g70
NtRp193
(dp194
g73
(dp195
sg82
g180
sg75
(lp196
g68
(g69
g70
NtRp197
(dp198
g73
(dp199
g81
I5
ssg82
g193
sg75
(lp200
S'127.0.0.1'
p201
asbasbasbag68
(g84
g70
NtRp202
(dp203
g73
(dp204
sg82
g78
sg75
(lp205
g68
(g89
g70
NtRp206
(dp207
g73
(dp208
g93
g94
ssg82
g202
sg75
(lp209
S'controller'
p210
asbag68
(g89
g70
NtRp211
(dp212
g73
(dp213
g100
g101
ssg82
g202
sg75
(lp214
S':'
asbag68
(g89
g70
NtRp215
(dp216
g73
(dp217
sg82
g202
sg75
(lp218
g68
(g69
g70
NtRp219
(dp220
g73
(dp221
g81
I5
ssg82
g215
sg75
(lp222
S'default'
p223
asbasbasbag68
(g84
g70
NtRp224
(dp225
g73
(dp226
sg82
g78
sg75
(lp227
g68
(g89
g70
NtRp228
(dp229
g73
(dp230
g93
g94
ssg82
g224
sg75
(lp231
S'cookies'
p232
asbag68
(g89
g70
NtRp233
(dp234
g73
(dp235
g100
g101
ssg82
g224
sg75
(lp236
S':'
asbag68
(g89
g70
NtRp237
(dp238
g73
(dp239
sg82
g224
sg75
(lp240
g68
(g69
g70
NtRp241
(dp242
g73
(dp243
g81
I5
ssg82
g237
sg75
(lp244
g68
(g77
g70
NtRp245
(dp246
g73
(dp247
g81
I4
ssg82
Nsg75
(lp248
g68
(g84
g70
NtRp249
(dp250
g73
(dp251
sg82
g245
sg75
(lp252
g68
(g89
g70
NtRp253
(dp254
g73
(dp255
g93
g94
ssg82
g249
sg75
(lp256
S'session_id_admin'
p257
asbag68
(g89
g70
NtRp258
(dp259
g73
(dp260
g100
g101
ssg82
g249
sg75
(lp261
S':'
asbag68
(g89
g70
NtRp262
(dp263
g73
(dp264
sg82
g249
sg75
(lp265
g68
(g69
g70
NtRp266
(dp267
g73
(dp268
g81
I4
ssg82
g262
sg75
(lp269
g68
(g77
g70
NtRp270
(dp271
g73
(dp272
g81
I3
ssg82
Nsg75
(lp273
g68
(g84
g70
NtRp274
(dp275
g73
(dp276
sg82
g270
sg75
(lp277
g68
(g89
g70
NtRp278
(dp279
g73
(dp280
g93
g94
ssg82
g274
sg75
(lp281
S'comment'
p282
asbag68
(g89
g70
NtRp283
(dp284
g73
(dp285
g100
g101
ssg82
g274
sg75
(lp286
S':'
asbag68
(g89
g70
NtRp287
(dp288
g73
(dp289
sg82
g274
sg75
(lp290
g68
(g69
g70
NtRp291
(dp292
g73
(dp293
g81
I3
ssg82
g287
sg75
(lp294
S''
asbasbasbag68
(g84
g70
NtRp295
(dp296
g73
(dp297
sg82
g270
sg75
(lp298
g68
(g89
g70
NtRp299
(dp300
g73
(dp301
g93
g94
ssg82
g295
sg75
(lp302
S'domain'
p303
asbag68
(g89
g70
NtRp304
(dp305
g73
(dp306
g100
g101
ssg82
g295
sg75
(lp307
S':'
asbag68
(g89
g70
NtRp308
(dp309
g73
(dp310
sg82
g295
sg75
(lp311
g68
(g69
g70
NtRp312
(dp313
g73
(dp314
g81
I3
ssg82
g308
sg75
(lp315
S''
asbasbasbag68
(g84
g70
NtRp316
(dp317
g73
(dp318
sg82
g270
sg75
(lp319
g68
(g89
g70
NtRp320
(dp321
g73
(dp322
g93
g94
ssg82
g316
sg75
(lp323
S'expires'
p324
asbag68
(g89
g70
NtRp325
(dp326
g73
(dp327
g100
g101
ssg82
g316
sg75
(lp328
S':'
asbag68
(g89
g70
NtRp329
(dp330
g73
(dp331
sg82
g316
sg75
(lp332
g68
(g69
g70
NtRp333
(dp334
g73
(dp335
g81
I3
ssg82
g329
sg75
(lp336
S''
asbasbasbag68
(g84
g70
NtRp337
(dp338
g73
(dp339
sg82
g270
sg75
(lp340
g68
(g89
g70
NtRp341
(dp342
g73
(dp343
g93
g94
ssg82
g337
sg75
(lp344
S'httponly'
p345
asbag68
(g89
g70
NtRp346
(dp347
g73
(dp348
g100
g101
ssg82
g337
sg75
(lp349
S':'
asbag68
(g89
g70
NtRp350
(dp351
g73
(dp352
sg82
g337
sg75
(lp353
g68
(g69
g70
NtRp354
(dp355
g73
(dp356
g81
I3
ssg82
g350
sg75
(lp357
S''
asbasbasbag68
(g84
g70
NtRp358
(dp359
g73
(dp360
sg82
g270
sg75
(lp361
g68
(g89
g70
NtRp362
(dp363
g73
(dp364
g93
g94
ssg82
g358
sg75
(lp365
S'max-age'
p366
asbag68
(g89
g70
NtRp367
(dp368
g73
(dp369
g100
g101
ssg82
g358
sg75
(lp370
S':'
asbag68
(g89
g70
NtRp371
(dp372
g73
(dp373
sg82
g358
sg75
(lp374
g68
(g69
g70
NtRp375
(dp376
g73
(dp377
g81
I3
ssg82
g371
sg75
(lp378
S''
asbasbasbag68
(g84
g70
NtRp379
(dp380
g73
(dp381
sg82
g270
sg75
(lp382
g68
(g89
g70
NtRp383
(dp384
g73
(dp385
g93
g94
ssg82
g379
sg75
(lp386
S'path'
p387
asbag68
(g89
g70
NtRp388
(dp389
g73
(dp390
g100
g101
ssg82
g379
sg75
(lp391
S':'
asbag68
(g89
g70
NtRp392
(dp393
g73
(dp394
sg82
g379
sg75
(lp395
g68
(g69
g70
NtRp396
(dp397
g73
(dp398
g81
I3
ssg82
g392
sg75
(lp399
S''
asbasbasbag68
(g84
g70
NtRp400
(dp401
g73
(dp402
sg82
g270
sg75
(lp403
g68
(g89
g70
NtRp404
(dp405
g73
(dp406
g93
g94
ssg82
g400
sg75
(lp407
S'secure'
p408
asbag68
(g89
g70
NtRp409
(dp410
g73
(dp411
g100
g101
ssg82
g400
sg75
(lp412
S':'
asbag68
(g89
g70
NtRp413
(dp414
g73
(dp415
sg82
g400
sg75
(lp416
g68
(g69
g70
NtRp417
(dp418
g73
(dp419
g81
I3
ssg82
g413
sg75
(lp420
S''
asbasbasbag68
(g84
g70
NtRp421
(dp422
g73
(dp423
sg82
g270
sg75
(lp424
g68
(g89
g70
NtRp425
(dp426
g73
(dp427
g93
g94
ssg82
g421
sg75
(lp428
S'version'
p429
asbag68
(g89
g70
NtRp430
(dp431
g73
(dp432
g100
g101
ssg82
g421
sg75
(lp433
S':'
asbag68
(g89
g70
NtRp434
(dp435
g73
(dp436
sg82
g421
sg75
(lp437
g68
(g69
g70
NtRp438
(dp439
g73
(dp440
g81
I3
ssg82
g434
sg75
(lp441
S''
asbasbasbasbasbasbasbag68
(g84
g70
NtRp442
(dp443
g73
(dp444
sg82
g245
sg75
(lp445
g68
(g89
g70
NtRp446
(dp447
g73
(dp448
g93
g94
ssg82
g442
sg75
(lp449
S'session_id_welcome'
p450
asbag68
(g89
g70
NtRp451
(dp452
g73
(dp453
g100
g101
ssg82
g442
sg75
(lp454
S':'
asbag68
(g89
g70
NtRp455
(dp456
g73
(dp457
sg82
g442
sg75
(lp458
g68
(g69
g70
NtRp459
(dp460
g73
(dp461
g81
I4
ssg82
g455
sg75
(lp462
g68
(g77
g70
NtRp463
(dp464
g73
(dp465
g81
I3
ssg82
Nsg75
(lp466
g68
(g84
g70
NtRp467
(dp468
g73
(dp469
sg82
g463
sg75
(lp470
g68
(g89
g70
NtRp471
(dp472
g73
(dp473
g93
g94
ssg82
g467
sg75
(lp474
g282
asbag68
(g89
g70
NtRp475
(dp476
g73
(dp477
g100
g101
ssg82
g467
sg75
(lp478
S':'
asbag68
(g89
g70
NtRp479
(dp480
g73
(dp481
sg82
g467
sg75
(lp482
g68
(g69
g70
NtRp483
(dp484
g73
(dp485
g81
I3
ssg82
g479
sg75
(lp486
S''
asbasbasbag68
(g84
g70
NtRp487
(dp488
g73
(dp489
sg82
g463
sg75
(lp490
g68
(g89
g70
NtRp491
(dp492
g73
(dp493
g93
g94
ssg82
g487
sg75
(lp494
g303
asbag68
(g89
g70
NtRp495
(dp496
g73
(dp497
g100
g101
ssg82
g487
sg75
(lp498
S':'
asbag68
(g89
g70
NtRp499
(dp500
g73
(dp501
sg82
g487
sg75
(lp502
g68
(g69
g70
NtRp503
(dp504
g73
(dp505
g81
I3
ssg82
g499
sg75
(lp506
S''
asbasbasbag68
(g84
g70
NtRp507
(dp508
g73
(dp509
sg82
g463
sg75
(lp510
g68
(g89
g70
NtRp511
(dp512
g73
(dp513
g93
g94
ssg82
g507
sg75
(lp514
g324
asbag68
(g89
g70
NtRp515
(dp516
g73
(dp517
g100
g101
ssg82
g507
sg75
(lp518
S':'
asbag68
(g89
g70
NtRp519
(dp520
g73
(dp521
sg82
g507
sg75
(lp522
g68
(g69
g70
NtRp523
(dp524
g73
(dp525
g81
I3
ssg82
g519
sg75
(lp526
S''
asbasbasbag68
(g84
g70
NtRp527
(dp528
g73
(dp529
sg82
g463
sg75
(lp530
g68
(g89
g70
NtRp531
(dp532
g73
(dp533
g93
g94
ssg82
g527
sg75
(lp534
g345
asbag68
(g89
g70
NtRp535
(dp536
g73
(dp537
g100
g101
ssg82
g527
sg75
(lp538
S':'
asbag68
(g89
g70
NtRp539
(dp540
g73
(dp541
sg82
g527
sg75
(lp542
g68
(g69
g70
NtRp543
(dp544
g73
(dp545
g81
I3
ssg82
g539
sg75
(lp546
S''
asbasbasbag68
(g84
g70
NtRp547
(dp548
g73
(dp549
sg82
g463
sg75
(lp550
g68
(g89
g70
NtRp551
(dp552
g73
(dp553
g93
g94
ssg82
g547
sg75
(lp554
g366
asbag68
(g89
g70
NtRp555
(dp556
g73
(dp557
g100
g101
ssg82
g547
sg75
(lp558
S':'
asbag68
(g89
g70
NtRp559
(dp560
g73
(dp561
sg82
g547
sg75
(lp562
g68
(g69
g70
NtRp563
(dp564
g73
(dp565
g81
I3
ssg82
g559
sg75
(lp566
S''
asbasbasbag68
(g84
g70
NtRp567
(dp568
g73
(dp569
sg82
g463
sg75
(lp570
g68
(g89
g70
NtRp571
(dp572
g73
(dp573
g93
g94
ssg82
g567
sg75
(lp574
g387
asbag68
(g89
g70
NtRp575
(dp576
g73
(dp577
g100
g101
ssg82
g567
sg75
(lp578
S':'
asbag68
(g89
g70
NtRp579
(dp580
g73
(dp581
sg82
g567
sg75
(lp582
g68
(g69
g70
NtRp583
(dp584
g73
(dp585
g81
I3
ssg82
g579
sg75
(lp586
S''
asbasbasbag68
(g84
g70
NtRp587
(dp588
g73
(dp589
sg82
g463
sg75
(lp590
g68
(g89
g70
NtRp591
(dp592
g73
(dp593
g93
g94
ssg82
g587
sg75
(lp594
g408
asbag68
(g89
g70
NtRp595
(dp596
g73
(dp597
g100
g101
ssg82
g587
sg75
(lp598
S':'
asbag68
(g89
g70
NtRp599
(dp600
g73
(dp601
sg82
g587
sg75
(lp602
g68
(g69
g70
NtRp603
(dp604
g73
(dp605
g81
I3
ssg82
g599
sg75
(lp606
S''
asbasbasbag68
(g84
g70
NtRp607
(dp608
g73
(dp609
sg82
g463
sg75
(lp610
g68
(g89
g70
NtRp611
(dp612
g73
(dp613
g93
g94
ssg82
g607
sg75
(lp614
g429
asbag68
(g89
g70
NtRp615
(dp616
g73
(dp617
g100
g101
ssg82
g607
sg75
(lp618
S':'
asbag68
(g89
g70
NtRp619
(dp620
g73
(dp621
sg82
g607
sg75
(lp622
g68
(g69
g70
NtRp623
(dp624
g73
(dp625
g81
I3
ssg82
g619
sg75
(lp626
S''
asbasbasbasbasbasbasbasbasbasbasbag68
(g84
g70
NtRp627
(dp628
g73
(dp629
sg82
g78
sg75
(lp630
g68
(g89
g70
NtRp631
(dp632
g73
(dp633
g93
g94
ssg82
g627
sg75
(lp634
S'env'
p635
asbag68
(g89
g70
NtRp636
(dp637
g73
(dp638
g100
g101
ssg82
g627
sg75
(lp639
S':'
asbag68
(g89
g70
NtRp640
(dp641
g73
(dp642
sg82
g627
sg75
(lp643
g68
(g69
g70
NtRp644
(dp645
g73
(dp646
g81
I5
ssg82
g640
sg75
(lp647
g68
(g77
g70
NtRp648
(dp649
g73
(dp650
g81
I4
ssg82
Nsg75
(lp651
g68
(g84
g70
NtRp652
(dp653
g73
(dp654
sg82
g648
sg75
(lp655
g68
(g89
g70
NtRp656
(dp657
g73
(dp658
g93
g94
ssg82
g652
sg75
(lp659
S'app_folders'
p660
asbag68
(g89
g70
NtRp661
(dp662
g73
(dp663
g100
g101
ssg82
g652
sg75
(lp664
S':'
asbag68
(g89
g70
NtRp665
(dp666
g73
(dp667
sg82
g652
sg75
(lp668
g68
(g69
g70
NtRp669
(dp670
g73
(dp671
g81
I4
ssg82
g665
sg75
(lp672
S"set(['/home/ranganath/web2py/applications/admin/', '/home/ranganath/web2py/applications/welcome/', '/home/ranganath/web2py/applications/Hadoop/'])"
p673
asbasbasbag68
(g84
g70
NtRp674
(dp675
g73
(dp676
sg82
g648
sg75
(lp677
g68
(g89
g70
NtRp678
(dp679
g73
(dp680
g93
g94
ssg82
g674
sg75
(lp681
S'applications_parent'
p682
asbag68
(g89
g70
NtRp683
(dp684
g73
(dp685
g100
g101
ssg82
g674
sg75
(lp686
S':'
asbag68
(g89
g70
NtRp687
(dp688
g73
(dp689
sg82
g674
sg75
(lp690
g68
(g69
g70
NtRp691
(dp692
g73
(dp693
g81
I4
ssg82
g687
sg75
(lp694
S'/home/ranganath/web2py'
p695
asbasbasbag68
(g84
g70
NtRp696
(dp697
g73
(dp698
sg82
g648
sg75
(lp699
g68
(g89
g70
NtRp700
(dp701
g73
(dp702
g93
g94
ssg82
g696
sg75
(lp703
S'cmd_args'
p704
asbag68
(g89
g70
NtRp705
(dp706
g73
(dp707
g100
g101
ssg82
g696
sg75
(lp708
S':'
asbag68
(g89
g70
NtRp709
(dp710
g73
(dp711
sg82
g696
sg75
(lp712
g68
(g69
g70
NtRp713
(dp714
g73
(dp715
g81
I4
ssg82
g709
sg75
(lp716
g68
(g77
g70
NtRp717
(dp718
g73
(dp719
g81
I3
ssg82
Nsg75
(lp720
sbasbasbasbag68
(g84
g70
NtRp721
(dp722
g73
(dp723
sg82
g648
sg75
(lp724
g68
(g89
g70
NtRp725
(dp726
g73
(dp727
g93
g94
ssg82
g721
sg75
(lp728
S'cmd_options'
p729
asbag68
(g89
g70
NtRp730
(dp731
g73
(dp732
g100
g101
ssg82
g721
sg75
(lp733
S':'
asbag68
(g89
g70
NtRp734
(dp735
g73
(dp736
sg82
g721
sg75
(lp737
g68
(g69
g70
NtRp738
(dp739
g73
(dp740
g81
I4
ssg82
g734
sg75
(lp741
S"<Values at 0xa8606ac: {'verbose': False, 'ip': '127.0.0.1', 'shutdown_timeout': 5, 'taskbar': False, 'port': 8000, 'maxthreads': None, 'softcron': False, 'server_name': 'ranganath-HP-2000-Notebook-PC', 'bpython': False, 'nogui': False, 'nocron': False, 'extcron': False, 'debuglevel': 30, 'test': None, 'folder': '/home/ranganath/web2py', 'config': '', 'import_models': False, 'winservice': '', 'shell': None, 'run': '', 'log_filename': 'httpserver.log', 'args': [''], 'socket_timeout': 1, 'profiler_filename': None, 'ssl_private_key': '', 'password': '<ask>', 'request_queue_size': 5, 'ssl_certificate': '', 'cronjob': False, 'plain': False, 'quiet': False, 'interfaces': None, 'minthreads': None, 'timeout': 10, 'numthreads': None, 'nobanner': False, 'pid_filename': 'httpserver.pid'}>"
p742
asbasbasbag68
(g84
g70
NtRp743
(dp744
g73
(dp745
sg82
g648
sg75
(lp746
g68
(g89
g70
NtRp747
(dp748
g73
(dp749
g93
g94
ssg82
g743
sg75
(lp750
S'db_sessions'
p751
asbag68
(g89
g70
NtRp752
(dp753
g73
(dp754
g100
g101
ssg82
g743
sg75
(lp755
S':'
asbag68
(g89
g70
NtRp756
(dp757
g73
(dp758
sg82
g743
sg75
(lp759
g68
(g69
g70
NtRp760
(dp761
g73
(dp762
g81
I4
ssg82
g756
sg75
(lp763
S'set([])'
p764
asbasbasbag68
(g84
g70
NtRp765
(dp766
g73
(dp767
sg82
g648
sg75
(lp768
g68
(g89
g70
NtRp769
(dp770
g73
(dp771
g93
g94
ssg82
g765
sg75
(lp772
S'debugging'
p773
asbag68
(g89
g70
NtRp774
(dp775
g73
(dp776
g100
g101
ssg82
g765
sg75
(lp777
S':'
asbag68
(g89
g70
NtRp778
(dp779
g73
(dp780
sg82
g765
sg75
(lp781
g68
(g69
g70
NtRp782
(dp783
g73
(dp784
g81
I4
ssg82
g778
sg75
(lp785
g111
asbasbasbag68
(g84
g70
NtRp786
(dp787
g73
(dp788
sg82
g648
sg75
(lp789
g68
(g89
g70
NtRp790
(dp791
g73
(dp792
g93
g94
ssg82
g786
sg75
(lp793
S'gluon_parent'
p794
asbag68
(g89
g70
NtRp795
(dp796
g73
(dp797
g100
g101
ssg82
g786
sg75
(lp798
S':'
asbag68
(g89
g70
NtRp799
(dp800
g73
(dp801
sg82
g786
sg75
(lp802
g68
(g69
g70
NtRp803
(dp804
g73
(dp805
g81
I4
ssg82
g799
sg75
(lp806
S'/usr/share/web2py'
p807
asbasbasbag68
(g84
g70
NtRp808
(dp809
g73
(dp810
sg82
g648
sg75
(lp811
g68
(g89
g70
NtRp812
(dp813
g73
(dp814
g93
g94
ssg82
g808
sg75
(lp815
S'http_accept'
p816
asbag68
(g89
g70
NtRp817
(dp818
g73
(dp819
g100
g101
ssg82
g808
sg75
(lp820
S':'
asbag68
(g89
g70
NtRp821
(dp822
g73
(dp823
sg82
g808
sg75
(lp824
g68
(g69
g70
NtRp825
(dp826
g73
(dp827
g81
I4
ssg82
g821
sg75
(lp828
S'text/html,application/xhtml+xml,application/xml;q=0.9,image/webp,*/*;q=0.8'
p829
asbasbasbag68
(g84
g70
NtRp830
(dp831
g73
(dp832
sg82
g648
sg75
(lp833
g68
(g89
g70
NtRp834
(dp835
g73
(dp836
g93
g94
ssg82
g830
sg75
(lp837
S'http_accept_encoding'
p838
asbag68
(g89
g70
NtRp839
(dp840
g73
(dp841
g100
g101
ssg82
g830
sg75
(lp842
S':'
asbag68
(g89
g70
NtRp843
(dp844
g73
(dp845
sg82
g830
sg75
(lp846
g68
(g69
g70
NtRp847
(dp848
g73
(dp849
g81
I4
ssg82
g843
sg75
(lp850
S'gzip,deflate,sdch'
p851
asbasbasbag68
(g84
g70
NtRp852
(dp853
g73
(dp854
sg82
g648
sg75
(lp855
g68
(g89
g70
NtRp856
(dp857
g73
(dp858
g93
g94
ssg82
g852
sg75
(lp859
S'http_accept_language'
p860
asbag68
(g89
g70
NtRp861
(dp862
g73
(dp863
g100
g101
ssg82
g852
sg75
(lp864
S':'
asbag68
(g89
g70
NtRp865
(dp866
g73
(dp867
sg82
g852
sg75
(lp868
g68
(g69
g70
NtRp869
(dp870
g73
(dp871
g81
I4
ssg82
g865
sg75
(lp872
S'en-US,en;q=0.8'
p873
asbasbasbag68
(g84
g70
NtRp874
(dp875
g73
(dp876
sg82
g648
sg75
(lp877
g68
(g89
g70
NtRp878
(dp879
g73
(dp880
g93
g94
ssg82
g874
sg75
(lp881
S'http_connection'
p882
asbag68
(g89
g70
NtRp883
(dp884
g73
(dp885
g100
g101
ssg82
g874
sg75
(lp886
S':'
asbag68
(g89
g70
NtRp887
(dp888
g73
(dp889
sg82
g874
sg75
(lp890
g68
(g69
g70
NtRp891
(dp892
g73
(dp893
g81
I4
ssg82
g887
sg75
(lp894
S'keep-alive'
p895
asbasbasbag68
(g84
g70
NtRp896
(dp897
g73
(dp898
sg82
g648
sg75
(lp899
g68
(g89
g70
NtRp900
(dp901
g73
(dp902
g93
g94
ssg82
g896
sg75
(lp903
S'http_cookie'
p904
asbag68
(g89
g70
NtRp905
(dp906
g73
(dp907
g100
g101
ssg82
g896
sg75
(lp908
S':'
asbag68
(g89
g70
NtRp909
(dp910
g73
(dp911
sg82
g896
sg75
(lp912
g68
(g69
g70
NtRp913
(dp914
g73
(dp915
g81
I4
ssg82
g909
sg75
(lp916
S'session_id_welcome=127.0.0.1-321a2b88-bf1e-4929-8cd3-0b2777dc0cb9; session_id_admin=127.0.0.1-2b6e9f69-9d01-4e7b-a411-87fceb990a13'
p917
asbasbasbag68
(g84
g70
NtRp918
(dp919
g73
(dp920
sg82
g648
sg75
(lp921
g68
(g89
g70
NtRp922
(dp923
g73
(dp924
g93
g94
ssg82
g918
sg75
(lp925
S'http_host'
p926
asbag68
(g89
g70
NtRp927
(dp928
g73
(dp929
g100
g101
ssg82
g918
sg75
(lp930
S':'
asbag68
(g89
g70
NtRp931
(dp932
g73
(dp933
sg82
g918
sg75
(lp934
g68
(g69
g70
NtRp935
(dp936
g73
(dp937
g81
I4
ssg82
g931
sg75
(lp938
S'127.0.0.1:8000'
p939
asbasbasbag68
(g84
g70
NtRp940
(dp941
g73
(dp942
sg82
g648
sg75
(lp943
g68
(g89
g70
NtRp944
(dp945
g73
(dp946
g93
g94
ssg82
g940
sg75
(lp947
S'http_referer'
p948
asbag68
(g89
g70
NtRp949
(dp950
g73
(dp951
g100
g101
ssg82
g940
sg75
(lp952
S':'
asbag68
(g89
g70
NtRp953
(dp954
g73
(dp955
sg82
g940
sg75
(lp956
g68
(g69
g70
NtRp957
(dp958
g73
(dp959
g81
I4
ssg82
g953
sg75
(lp960
S'http://127.0.0.1:8000/admin/default/design/Hadoop'
p961
asbasbasbag68
(g84
g70
NtRp962
(dp963
g73
(dp964
sg82
g648
sg75
(lp965
g68
(g89
g70
NtRp966
(dp967
g73
(dp968
g93
g94
ssg82
g962
sg75
(lp969
S'http_user_agent'
p970
asbag68
(g89
g70
NtRp971
(dp972
g73
(dp973
g100
g101
ssg82
g962
sg75
(lp974
S':'
asbag68
(g89
g70
NtRp975
(dp976
g73
(dp977
sg82
g962
sg75
(lp978
g68
(g69
g70
NtRp979
(dp980
g73
(dp981
g81
I4
ssg82
g975
sg75
(lp982
S'Mozilla/5.0 (X11; Linux i686) AppleWebKit/537.36 (KHTML, like Gecko) Chrome/31.0.1650.63 Safari/537.36'
p983
asbasbasbag68
(g84
g70
NtRp984
(dp985
g73
(dp986
sg82
g648
sg75
(lp987
g68
(g89
g70
NtRp988
(dp989
g73
(dp990
g93
g94
ssg82
g984
sg75
(lp991
S'is_jython'
p992
asbag68
(g89
g70
NtRp993
(dp994
g73
(dp995
g100
g101
ssg82
g984
sg75
(lp996
S':'
asbag68
(g89
g70
NtRp997
(dp998
g73
(dp999
sg82
g984
sg75
(lp1000
g68
(g69
g70
NtRp1001
(dp1002
g73
(dp1003
g81
I4
ssg82
g997
sg75
(lp1004
g111
asbasbasbag68
(g84
g70
NtRp1005
(dp1006
g73
(dp1007
sg82
g648
sg75
(lp1008
g68
(g89
g70
NtRp1009
(dp1010
g73
(dp1011
g93
g94
ssg82
g1005
sg75
(lp1012
S'is_pypy'
p1013
asbag68
(g89
g70
NtRp1014
(dp1015
g73
(dp1016
g100
g101
ssg82
g1005
sg75
(lp1017
S':'
asbag68
(g89
g70
NtRp1018
(dp1019
g73
(dp1020
sg82
g1005
sg75
(lp1021
g68
(g69
g70
NtRp1022
(dp1023
g73
(dp1024
g81
I4
ssg82
g1018
sg75
(lp1025
g111
asbasbasbag68
(g84
g70
NtRp1026
(dp1027
g73
(dp1028
sg82
g648
sg75
(lp1029
g68
(g89
g70
NtRp1030
(dp1031
g73
(dp1032
g93
g94
ssg82
g1026
sg75
(lp1033
S'path_info'
p1034
asbag68
(g89
g70
NtRp1035
(dp1036
g73
(dp1037
g100
g101
ssg82
g1026
sg75
(lp1038
S':'
asbag68
(g89
g70
NtRp1039
(dp1040
g73
(dp1041
sg82
g1026
sg75
(lp1042
g68
(g69
g70
NtRp1043
(dp1044
g73
(dp1045
g81
I4
ssg82
g1039
sg75
(lp1046
S'/Hadoop/default/main'
p1047
asbasbasbag68
(g84
g70
NtRp1048
(dp1049
g73
(dp1050
sg82
g648
sg75
(lp1051
g68
(g89
g70
NtRp1052
(dp1053
g73
(dp1054
g93
g94
ssg82
g1048
sg75
(lp1055
S'query_string'
p1056
asbag68
(g89
g70
NtRp1057
(dp1058
g73
(dp1059
g100
g101
ssg82
g1048
sg75
(lp1060
S':'
asbag68
(g89
g70
NtRp1061
(dp1062
g73
(dp1063
sg82
g1048
sg75
(lp1064
g68
(g69
g70
NtRp1065
(dp1066
g73
(dp1067
g81
I4
ssg82
g1061
sg75
(lp1068
S''
asbasbasbag68
(g84
g70
NtRp1069
(dp1070
g73
(dp1071
sg82
g648
sg75
(lp1072
g68
(g89
g70
NtRp1073
(dp1074
g73
(dp1075
g93
g94
ssg82
g1069
sg75
(lp1076
S'remote_addr'
p1077
asbag68
(g89
g70
NtRp1078
(dp1079
g73
(dp1080
g100
g101
ssg82
g1069
sg75
(lp1081
S':'
asbag68
(g89
g70
NtRp1082
(dp1083
g73
(dp1084
sg82
g1069
sg75
(lp1085
g68
(g69
g70
NtRp1086
(dp1087
g73
(dp1088
g81
I4
ssg82
g1082
sg75
(lp1089
g201
asbasbasbag68
(g84
g70
NtRp1090
(dp1091
g73
(dp1092
sg82
g648
sg75
(lp1093
g68
(g89
g70
NtRp1094
(dp1095
g73
(dp1096
g93
g94
ssg82
g1090
sg75
(lp1097
S'remote_port'
p1098
asbag68
(g89
g70
NtRp1099
(dp1100
g73
(dp1101
g100
g101
ssg82
g1090
sg75
(lp1102
S':'
asbag68
(g89
g70
NtRp1103
(dp1104
g73
(dp1105
sg82
g1090
sg75
(lp1106
g68
(g69
g70
NtRp1107
(dp1108
g73
(dp1109
g81
I4
ssg82
g1103
sg75
(lp1110
S'36217'
p1111
asbasbasbag68
(g84
g70
NtRp1112
(dp1113
g73
(dp1114
sg82
g648
sg75
(lp1115
g68
(g89
g70
NtRp1116
(dp1117
g73
(dp1118
g93
g94
ssg82
g1112
sg75
(lp1119
S'request_method'
p1120
asbag68
(g89
g70
NtRp1121
(dp1122
g73
(dp1123
g100
g101
ssg82
g1112
sg75
(lp1124
S':'
asbag68
(g89
g70
NtRp1125
(dp1126
g73
(dp1127
sg82
g1112
sg75
(lp1128
g68
(g69
g70
NtRp1129
(dp1130
g73
(dp1131
g81
I4
ssg82
g1125
sg75
(lp1132
S'GET'
p1133
asbasbasbag68
(g84
g70
NtRp1134
(dp1135
g73
(dp1136
sg82
g648
sg75
(lp1137
g68
(g89
g70
NtRp1138
(dp1139
g73
(dp1140
g93
g94
ssg82
g1134
sg75
(lp1141
S'script_name'
p1142
asbag68
(g89
g70
NtRp1143
(dp1144
g73
(dp1145
g100
g101
ssg82
g1134
sg75
(lp1146
S':'
asbag68
(g89
g70
NtRp1147
(dp1148
g73
(dp1149
sg82
g1134
sg75
(lp1150
g68
(g69
g70
NtRp1151
(dp1152
g73
(dp1153
g81
I4
ssg82
g1147
sg75
(lp1154
S''
asbasbasbag68
(g84
g70
NtRp1155
(dp1156
g73
(dp1157
sg82
g648
sg75
(lp1158
g68
(g89
g70
NtRp1159
(dp1160
g73
(dp1161
g93
g94
ssg82
g1155
sg75
(lp1162
S'server_name'
p1163
asbag68
(g89
g70
NtRp1164
(dp1165
g73
(dp1166
g100
g101
ssg82
g1155
sg75
(lp1167
S':'
asbag68
(g89
g70
NtRp1168
(dp1169
g73
(dp1170
sg82
g1155
sg75
(lp1171
g68
(g69
g70
NtRp1172
(dp1173
g73
(dp1174
g81
I4
ssg82
g1168
sg75
(lp1175
S'ranganath-HP-2000-Notebook-PC'
p1176
asbasbasbag68
(g84
g70
NtRp1177
(dp1178
g73
(dp1179
sg82
g648
sg75
(lp1180
g68
(g89
g70
NtRp1181
(dp1182
g73
(dp1183
g93
g94
ssg82
g1177
sg75
(lp1184
S'server_port'
p1185
asbag68
(g89
g70
NtRp1186
(dp1187
g73
(dp1188
g100
g101
ssg82
g1177
sg75
(lp1189
S':'
asbag68
(g89
g70
NtRp1190
(dp1191
g73
(dp1192
sg82
g1177
sg75
(lp1193
g68
(g69
g70
NtRp1194
(dp1195
g73
(dp1196
g81
I4
ssg82
g1190
sg75
(lp1197
S'8000'
p1198
asbasbasbag68
(g84
g70
NtRp1199
(dp1200
g73
(dp1201
sg82
g648
sg75
(lp1202
g68
(g89
g70
NtRp1203
(dp1204
g73
(dp1205
g93
g94
ssg82
g1199
sg75
(lp1206
S'server_protocol'
p1207
asbag68
(g89
g70
NtRp1208
(dp1209
g73
(dp1210
g100
g101
ssg82
g1199
sg75
(lp1211
S':'
asbag68
(g89
g70
NtRp1212
(dp1213
g73
(dp1214
sg82
g1199
sg75
(lp1215
g68
(g69
g70
NtRp1216
(dp1217
g73
(dp1218
g81
I4
ssg82
g1212
sg75
(lp1219
S'HTTP/1.1'
p1220
asbasbasbag68
(g84
g70
NtRp1221
(dp1222
g73
(dp1223
sg82
g648
sg75
(lp1224
g68
(g89
g70
NtRp1225
(dp1226
g73
(dp1227
g93
g94
ssg82
g1221
sg75
(lp1228
S'server_software'
p1229
asbag68
(g89
g70
NtRp1230
(dp1231
g73
(dp1232
g100
g101
ssg82
g1221
sg75
(lp1233
S':'
asbag68
(g89
g70
NtRp1234
(dp1235
g73
(dp1236
sg82
g1221
sg75
(lp1237
g68
(g69
g70
NtRp1238
(dp1239
g73
(dp1240
g81
I4
ssg82
g1234
sg75
(lp1241
S'Rocket 1.2.4'
p1242
asbasbasbag68
(g84
g70
NtRp1243
(dp1244
g73
(dp1245
sg82
g648
sg75
(lp1246
g68
(g89
g70
NtRp1247
(dp1248
g73
(dp1249
g93
g94
ssg82
g1243
sg75
(lp1250
S'web2py_crontype'
p1251
asbag68
(g89
g70
NtRp1252
(dp1253
g73
(dp1254
g100
g101
ssg82
g1243
sg75
(lp1255
S':'
asbag68
(g89
g70
NtRp1256
(dp1257
g73
(dp1258
sg82
g1243
sg75
(lp1259
g68
(g69
g70
NtRp1260
(dp1261
g73
(dp1262
g81
I4
ssg82
g1256
sg75
(lp1263
S'hard'
p1264
asbasbasbag68
(g84
g70
NtRp1265
(dp1266
g73
(dp1267
sg82
g648
sg75
(lp1268
g68
(g89
g70
NtRp1269
(dp1270
g73
(dp1271
g93
g94
ssg82
g1265
sg75
(lp1272
S'web2py_path'
p1273
asbag68
(g89
g70
NtRp1274
(dp1275
g73
(dp1276
g100
g101
ssg82
g1265
sg75
(lp1277
S':'
asbag68
(g89
g70
NtRp1278
(dp1279
g73
(dp1280
sg82
g1265
sg75
(lp1281
g68
(g69
g70
NtRp1282
(dp1283
g73
(dp1284
g81
I4
ssg82
g1278
sg75
(lp1285
g695
asbasbasbag68
(g84
g70
NtRp1286
(dp1287
g73
(dp1288
sg82
g648
sg75
(lp1289
g68
(g89
g70
NtRp1290
(dp1291
g73
(dp1292
g93
g94
ssg82
g1286
sg75
(lp1293
S'web2py_version'
p1294
asbag68
(g89
g70
NtRp1295
(dp1296
g73
(dp1297
g100
g101
ssg82
g1286
sg75
(lp1298
S':'
asbag68
(g89
g70
NtRp1299
(dp1300
g73
(dp1301
sg82
g1286
sg75
(lp1302
g68
(g69
g70
NtRp1303
(dp1304
g73
(dp1305
g81
I4
ssg82
g1299
sg75
(lp1306
g68
(g77
g70
NtRp1307
(dp1308
g73
(dp1309
g81
I3
ssg82
Nsg75
(lp1310
g68
(g84
g70
NtRp1311
(dp1312
g73
(dp1313
sg82
g1307
sg75
(lp1314
g68
(g89
g70
NtRp1315
(dp1316
g73
(dp1317
sg82
g1311
sg75
(lp1318
g68
(g69
g70
NtRp1319
(dp1320
g73
(dp1321
g81
I3
ssg82
g1315
sg75
(lp1322
S'1'
asbasbasbag68
(g84
g70
NtRp1323
(dp1324
g73
(dp1325
sg82
g1307
sg75
(lp1326
g68
(g89
g70
NtRp1327
(dp1328
g73
(dp1329
sg82
g1323
sg75
(lp1330
g68
(g69
g70
NtRp1331
(dp1332
g73
(dp1333
g81
I3
ssg82
g1327
sg75
(lp1334
S'99'
p1335
asbasbasbag68
(g84
g70
NtRp1336
(dp1337
g73
(dp1338
sg82
g1307
sg75
(lp1339
g68
(g89
g70
NtRp1340
(dp1341
g73
(dp1342
sg82
g1336
sg75
(lp1343
g68
(g69
g70
NtRp1344
(dp1345
g73
(dp1346
g81
I3
ssg82
g1340
sg75
(lp1347
S'4'
asbasbasbag68
(g84
g70
NtRp1348
(dp1349
g73
(dp1350
sg82
g1307
sg75
(lp1351
g68
(g89
g70
NtRp1352
(dp1353
g73
(dp1354
sg82
g1348
sg75
(lp1355
g68
(g69
g70
NtRp1356
(dp1357
g73
(dp1358
g81
I3
ssg82
g1352
sg75
(lp1359
S'datetime.datetime(2011, 12, 14, 14, 46, 14)'
p1360
asbasbasbag68
(g84
g70
NtRp1361
(dp1362
g73
(dp1363
sg82
g1307
sg75
(lp1364
g68
(g89
g70
NtRp1365
(dp1366
g73
(dp1367
sg82
g1361
sg75
(lp1368
g68
(g69
g70
NtRp1369
(dp1370
g73
(dp1371
g81
I3
ssg82
g1365
sg75
(lp1372
S'stable'
p1373
asbasbasbasbasbasbasbag68
(g84
g70
NtRp1374
(dp1375
g73
(dp1376
sg82
g648
sg75
(lp1377
g68
(g89
g70
NtRp1378
(dp1379
g73
(dp1380
g93
g94
ssg82
g1374
sg75
(lp1381
S'wsgi_errors'
p1382
asbag68
(g89
g70
NtRp1383
(dp1384
g73
(dp1385
g100
g101
ssg82
g1374
sg75
(lp1386
S':'
asbag68
(g89
g70
NtRp1387
(dp1388
g73
(dp1389
sg82
g1374
sg75
(lp1390
g68
(g69
g70
NtRp1391
(dp1392
g73
(dp1393
g81
I4
ssg82
g1387
sg75
(lp1394
S"<open file '<stderr>', mode 'w' at 0xb72f70d0>"
p1395
asbasbasbag68
(g84
g70
NtRp1396
(dp1397
g73
(dp1398
sg82
g648
sg75
(lp1399
g68
(g89
g70
NtRp1400
(dp1401
g73
(dp1402
g93
g94
ssg82
g1396
sg75
(lp1403
S'wsgi_file_wrapper'
p1404
asbag68
(g89
g70
NtRp1405
(dp1406
g73
(dp1407
g100
g101
ssg82
g1396
sg75
(lp1408
S':'
asbag68
(g89
g70
NtRp1409
(dp1410
g73
(dp1411
sg82
g1396
sg75
(lp1412
g68
(g69
g70
NtRp1413
(dp1414
g73
(dp1415
g81
I4
ssg82
g1409
sg75
(lp1416
S'<class wsgiref.util.FileWrapper at 0xa6214dc>'
p1417
asbasbasbag68
(g84
g70
NtRp1418
(dp1419
g73
(dp1420
sg82
g648
sg75
(lp1421
g68
(g89
g70
NtRp1422
(dp1423
g73
(dp1424
g93
g94
ssg82
g1418
sg75
(lp1425
S'wsgi_input'
p1426
asbag68
(g89
g70
NtRp1427
(dp1428
g73
(dp1429
g100
g101
ssg82
g1418
sg75
(lp1430
S':'
asbag68
(g89
g70
NtRp1431
(dp1432
g73
(dp1433
sg82
g1418
sg75
(lp1434
g68
(g69
g70
NtRp1435
(dp1436
g73
(dp1437
g81
I4
ssg82
g1431
sg75
(lp1438
S'<socket._fileobject object at 0xabc6f32c>'
p1439
asbasbasbag68
(g84
g70
NtRp1440
(dp1441
g73
(dp1442
sg82
g648
sg75
(lp1443
g68
(g89
g70
NtRp1444
(dp1445
g73
(dp1446
g93
g94
ssg82
g1440
sg75
(lp1447
S'wsgi_multiprocess'
p1448
asbag68
(g89
g70
NtRp1449
(dp1450
g73
(dp1451
g100
g101
ssg82
g1440
sg75
(lp1452
S':'
asbag68
(g89
g70
NtRp1453
(dp1454
g73
(dp1455
sg82
g1440
sg75
(lp1456
g68
(g69
g70
NtRp1457
(dp1458
g73
(dp1459
g81
I4
ssg82
g1453
sg75
(lp1460
g111
asbasbasbag68
(g84
g70
NtRp1461
(dp1462
g73
(dp1463
sg82
g648
sg75
(lp1464
g68
(g89
g70
NtRp1465
(dp1466
g73
(dp1467
g93
g94
ssg82
g1461
sg75
(lp1468
S'wsgi_multithread'
p1469
asbag68
(g89
g70
NtRp1470
(dp1471
g73
(dp1472
g100
g101
ssg82
g1461
sg75
(lp1473
S':'
asbag68
(g89
g70
NtRp1474
(dp1475
g73
(dp1476
sg82
g1461
sg75
(lp1477
g68
(g69
g70
NtRp1478
(dp1479
g73
(dp1480
g81
I4
ssg82
g1474
sg75
(lp1481
S'True'
p1482
asbasbasbag68
(g84
g70
NtRp1483
(dp1484
g73
(dp1485
sg82
g648
sg75
(lp1486
g68
(g89
g70
NtRp1487
(dp1488
g73
(dp1489
g93
g94
ssg82
g1483
sg75
(lp1490
S'wsgi_run_once'
p1491
asbag68
(g89
g70
NtRp1492
(dp1493
g73
(dp1494
g100
g101
ssg82
g1483
sg75
(lp1495
S':'
asbag68
(g89
g70
NtRp1496
(dp1497
g73
(dp1498
sg82
g1483
sg75
(lp1499
g68
(g69
g70
NtRp1500
(dp1501
g73
(dp1502
g81
I4
ssg82
g1496
sg75
(lp1503
g111
asbasbasbag68
(g84
g70
NtRp1504
(dp1505
g73
(dp1506
sg82
g648
sg75
(lp1507
g68
(g89
g70
NtRp1508
(dp1509
g73
(dp1510
g93
g94
ssg82
g1504
sg75
(lp1511
S'wsgi_url_scheme'
p1512
asbag68
(g89
g70
NtRp1513
(dp1514
g73
(dp1515
g100
g101
ssg82
g1504
sg75
(lp1516
S':'
asbag68
(g89
g70
NtRp1517
(dp1518
g73
(dp1519
sg82
g1504
sg75
(lp1520
g68
(g69
g70
NtRp1521
(dp1522
g73
(dp1523
g81
I4
ssg82
g1517
sg75
(lp1524
S'http'
p1525
asbasbasbag68
(g84
g70
NtRp1526
(dp1527
g73
(dp1528
sg82
g648
sg75
(lp1529
g68
(g89
g70
NtRp1530
(dp1531
g73
(dp1532
g93
g94
ssg82
g1526
sg75
(lp1533
S'wsgi_version'
p1534
asbag68
(g89
g70
NtRp1535
(dp1536
g73
(dp1537
g100
g101
ssg82
g1526
sg75
(lp1538
S':'
asbag68
(g89
g70
NtRp1539
(dp1540
g73
(dp1541
sg82
g1526
sg75
(lp1542
g68
(g69
g70
NtRp1543
(dp1544
g73
(dp1545
g81
I4
ssg82
g1539
sg75
(lp1546
g68
(g77
g70
NtRp1547
(dp1548
g73
(dp1549
g81
I3
ssg82
Nsg75
(lp1550
g68
(g84
g70
NtRp1551
(dp1552
g73
(dp1553
sg82
g1547
sg75
(lp1554
g68
(g89
g70
NtRp1555
(dp1556
g73
(dp1557
sg82
g1551
sg75
(lp1558
g68
(g69
g70
NtRp1559
(dp1560
g73
(dp1561
g81
I3
ssg82
g1555
sg75
(lp1562
S'1'
asbasbasbag68
(g84
g70
NtRp1563
(dp1564
g73
(dp1565
sg82
g1547
sg75
(lp1566
g68
(g89
g70
NtRp1567
(dp1568
g73
(dp1569
sg82
g1563
sg75
(lp1570
g68
(g69
g70
NtRp1571
(dp1572
g73
(dp1573
g81
I3
ssg82
g1567
sg75
(lp1574
S'0'
asbasbasbasbasbasbasbasbasbasbasbag68
(g84
g70
NtRp1575
(dp1576
g73
(dp1577
sg82
g78
sg75
(lp1578
g68
(g89
g70
NtRp1579
(dp1580
g73
(dp1581
g93
g94
ssg82
g1575
sg75
(lp1582
S'extension'
p1583
asbag68
(g89
g70
NtRp1584
(dp1585
g73
(dp1586
g100
g101
ssg82
g1575
sg75
(lp1587
S':'
asbag68
(g89
g70
NtRp1588
(dp1589
g73
(dp1590
sg82
g1575
sg75
(lp1591
g68
(g69
g70
NtRp1592
(dp1593
g73
(dp1594
g81
I5
ssg82
g1588
sg75
(lp1595
S'html'
p1596
asbasbasbag68
(g84
g70
NtRp1597
(dp1598
g73
(dp1599
sg82
g78
sg75
(lp1600
g68
(g89
g70
NtRp1601
(dp1602
g73
(dp1603
g93
g94
ssg82
g1597
sg75
(lp1604
S'folder'
p1605
asbag68
(g89
g70
NtRp1606
(dp1607
g73
(dp1608
g100
g101
ssg82
g1597
sg75
(lp1609
S':'
asbag68
(g89
g70
NtRp1610
(dp1611
g73
(dp1612
sg82
g1597
sg75
(lp1613
g68
(g69
g70
NtRp1614
(dp1615
g73
(dp1616
g81
I5
ssg82
g1610
sg75
(lp1617
S'/home/ranganath/web2py/applications/Hadoop/'
p1618
asbasbasbag68
(g84
g70
NtRp1619
(dp1620
g73
(dp1621
sg82
g78
sg75
(lp1622
g68
(g89
g70
NtRp1623
(dp1624
g73
(dp1625
g93
g94
ssg82
g1619
sg75
(lp1626
S'function'
p1627
asbag68
(g89
g70
NtRp1628
(dp1629
g73
(dp1630
g100
g101
ssg82
g1619
sg75
(lp1631
S':'
asbag68
(g89
g70
NtRp1632
(dp1633
g73
(dp1634
sg82
g1619
sg75
(lp1635
g68
(g69
g70
NtRp1636
(dp1637
g73
(dp1638
g81
I5
ssg82
g1632
sg75
(lp1639
S'main'
p1640
asbasbasbag68
(g84
g70
NtRp1641
(dp1642
g73
(dp1643
sg82
g78
sg75
(lp1644
g68
(g89
g70
NtRp1645
(dp1646
g73
(dp1647
g93
g94
ssg82
g1641
sg75
(lp1648
S'get_vars'
p1649
asbag68
(g89
g70
NtRp1650
(dp1651
g73
(dp1652
g100
g101
ssg82
g1641
sg75
(lp1653
S':'
asbag68
(g89
g70
NtRp1654
(dp1655
g73
(dp1656
sg82
g1641
sg75
(lp1657
g68
(g69
g70
NtRp1658
(dp1659
g73
(dp1660
g81
I5
ssg82
g1654
sg75
(lp1661
g68
(g77
g70
NtRp1662
(dp1663
g73
(dp1664
g81
I4
ssg82
Nsg75
(lp1665
sbasbasbasbag68
(g84
g70
NtRp1666
(dp1667
g73
(dp1668
sg82
g78
sg75
(lp1669
g68
(g89
g70
NtRp1670
(dp1671
g73
(dp1672
g93
g94
ssg82
g1666
sg75
(lp1673
S'global_settings'
p1674
asbag68
(g89
g70
NtRp1675
(dp1676
g73
(dp1677
g100
g101
ssg82
g1666
sg75
(lp1678
S':'
asbag68
(g89
g70
NtRp1679
(dp1680
g73
(dp1681
sg82
g1666
sg75
(lp1682
g68
(g69
g70
NtRp1683
(dp1684
g73
(dp1685
g81
I5
ssg82
g1679
sg75
(lp1686
g68
(g77
g70
NtRp1687
(dp1688
g73
(dp1689
g81
I4
ssg82
Nsg75
(lp1690
g68
(g84
g70
NtRp1691
(dp1692
g73
(dp1693
sg82
g1687
sg75
(lp1694
g68
(g89
g70
NtRp1695
(dp1696
g73
(dp1697
g93
g94
ssg82
g1691
sg75
(lp1698
g660
asbag68
(g89
g70
NtRp1699
(dp1700
g73
(dp1701
g100
g101
ssg82
g1691
sg75
(lp1702
S':'
asbag68
(g89
g70
NtRp1703
(dp1704
g73
(dp1705
sg82
g1691
sg75
(lp1706
g68
(g69
g70
NtRp1707
(dp1708
g73
(dp1709
g81
I4
ssg82
g1703
sg75
(lp1710
S"set(['/home/ranganath/web2py/applications/admin/', '/home/ranganath/web2py/applications/welcome/', '/home/ranganath/web2py/applications/Hadoop/'])"
p1711
asbasbasbag68
(g84
g70
NtRp1712
(dp1713
g73
(dp1714
sg82
g1687
sg75
(lp1715
g68
(g89
g70
NtRp1716
(dp1717
g73
(dp1718
g93
g94
ssg82
g1712
sg75
(lp1719
g682
asbag68
(g89
g70
NtRp1720
(dp1721
g73
(dp1722
g100
g101
ssg82
g1712
sg75
(lp1723
S':'
asbag68
(g89
g70
NtRp1724
(dp1725
g73
(dp1726
sg82
g1712
sg75
(lp1727
g68
(g69
g70
NtRp1728
(dp1729
g73
(dp1730
g81
I4
ssg82
g1724
sg75
(lp1731
g695
asbasbasbag68
(g84
g70
NtRp1732
(dp1733
g73
(dp1734
sg82
g1687
sg75
(lp1735
g68
(g89
g70
NtRp1736
(dp1737
g73
(dp1738
g93
g94
ssg82
g1732
sg75
(lp1739
g704
asbag68
(g89
g70
NtRp1740
(dp1741
g73
(dp1742
g100
g101
ssg82
g1732
sg75
(lp1743
S':'
asbag68
(g89
g70
NtRp1744
(dp1745
g73
(dp1746
sg82
g1732
sg75
(lp1747
g68
(g69
g70
NtRp1748
(dp1749
g73
(dp1750
g81
I4
ssg82
g1744
sg75
(lp1751
g68
(g77
g70
NtRp1752
(dp1753
g73
(dp1754
g81
I3
ssg82
Nsg75
(lp1755
sbasbasbasbag68
(g84
g70
NtRp1756
(dp1757
g73
(dp1758
sg82
g1687
sg75
(lp1759
g68
(g89
g70
NtRp1760
(dp1761
g73
(dp1762
g93
g94
ssg82
g1756
sg75
(lp1763
g729
asbag68
(g89
g70
NtRp1764
(dp1765
g73
(dp1766
g100
g101
ssg82
g1756
sg75
(lp1767
S':'
asbag68
(g89
g70
NtRp1768
(dp1769
g73
(dp1770
sg82
g1756
sg75
(lp1771
g68
(g69
g70
NtRp1772
(dp1773
g73
(dp1774
g81
I4
ssg82
g1768
sg75
(lp1775
S"<Values at 0xa8606ac: {'verbose': False, 'ip': '127.0.0.1', 'shutdown_timeout': 5, 'taskbar': False, 'port': 8000, 'maxthreads': None, 'softcron': False, 'server_name': 'ranganath-HP-2000-Notebook-PC', 'bpython': False, 'nogui': False, 'nocron': False, 'extcron': False, 'debuglevel': 30, 'test': None, 'folder': '/home/ranganath/web2py', 'config': '', 'import_models': False, 'winservice': '', 'shell': None, 'run': '', 'log_filename': 'httpserver.log', 'args': [''], 'socket_timeout': 1, 'profiler_filename': None, 'ssl_private_key': '', 'password': '<ask>', 'request_queue_size': 5, 'ssl_certificate': '', 'cronjob': False, 'plain': False, 'quiet': False, 'interfaces': None, 'minthreads': None, 'timeout': 10, 'numthreads': None, 'nobanner': False, 'pid_filename': 'httpserver.pid'}>"
p1776
asbasbasbag68
(g84
g70
NtRp1777
(dp1778
g73
(dp1779
sg82
g1687
sg75
(lp1780
g68
(g89
g70
NtRp1781
(dp1782
g73
(dp1783
g93
g94
ssg82
g1777
sg75
(lp1784
g751
asbag68
(g89
g70
NtRp1785
(dp1786
g73
(dp1787
g100
g101
ssg82
g1777
sg75
(lp1788
S':'
asbag68
(g89
g70
NtRp1789
(dp1790
g73
(dp1791
sg82
g1777
sg75
(lp1792
g68
(g69
g70
NtRp1793
(dp1794
g73
(dp1795
g81
I4
ssg82
g1789
sg75
(lp1796
S'set([])'
p1797
asbasbasbag68
(g84
g70
NtRp1798
(dp1799
g73
(dp1800
sg82
g1687
sg75
(lp1801
g68
(g89
g70
NtRp1802
(dp1803
g73
(dp1804
g93
g94
ssg82
g1798
sg75
(lp1805
g773
asbag68
(g89
g70
NtRp1806
(dp1807
g73
(dp1808
g100
g101
ssg82
g1798
sg75
(lp1809
S':'
asbag68
(g89
g70
NtRp1810
(dp1811
g73
(dp1812
sg82
g1798
sg75
(lp1813
g68
(g69
g70
NtRp1814
(dp1815
g73
(dp1816
g81
I4
ssg82
g1810
sg75
(lp1817
g111
asbasbasbag68
(g84
g70
NtRp1818
(dp1819
g73
(dp1820
sg82
g1687
sg75
(lp1821
g68
(g89
g70
NtRp1822
(dp1823
g73
(dp1824
g93
g94
ssg82
g1818
sg75
(lp1825
g794
asbag68
(g89
g70
NtRp1826
(dp1827
g73
(dp1828
g100
g101
ssg82
g1818
sg75
(lp1829
S':'
asbag68
(g89
g70
NtRp1830
(dp1831
g73
(dp1832
sg82
g1818
sg75
(lp1833
g68
(g69
g70
NtRp1834
(dp1835
g73
(dp1836
g81
I4
ssg82
g1830
sg75
(lp1837
g807
asbasbasbag68
(g84
g70
NtRp1838
(dp1839
g73
(dp1840
sg82
g1687
sg75
(lp1841
g68
(g89
g70
NtRp1842
(dp1843
g73
(dp1844
g93
g94
ssg82
g1838
sg75
(lp1845
g992
asbag68
(g89
g70
NtRp1846
(dp1847
g73
(dp1848
g100
g101
ssg82
g1838
sg75
(lp1849
S':'
asbag68
(g89
g70
NtRp1850
(dp1851
g73
(dp1852
sg82
g1838
sg75
(lp1853
g68
(g69
g70
NtRp1854
(dp1855
g73
(dp1856
g81
I4
ssg82
g1850
sg75
(lp1857
g111
asbasbasbag68
(g84
g70
NtRp1858
(dp1859
g73
(dp1860
sg82
g1687
sg75
(lp1861
g68
(g89
g70
NtRp1862
(dp1863
g73
(dp1864
g93
g94
ssg82
g1858
sg75
(lp1865
g1013
asbag68
(g89
g70
NtRp1866
(dp1867
g73
(dp1868
g100
g101
ssg82
g1858
sg75
(lp1869
S':'
asbag68
(g89
g70
NtRp1870
(dp1871
g73
(dp1872
sg82
g1858
sg75
(lp1873
g68
(g69
g70
NtRp1874
(dp1875
g73
(dp1876
g81
I4
ssg82
g1870
sg75
(lp1877
g111
asbasbasbag68
(g84
g70
NtRp1878
(dp1879
g73
(dp1880
sg82
g1687
sg75
(lp1881
g68
(g89
g70
NtRp1882
(dp1883
g73
(dp1884
g93
g94
ssg82
g1878
sg75
(lp1885
g1251
asbag68
(g89
g70
NtRp1886
(dp1887
g73
(dp1888
g100
g101
ssg82
g1878
sg75
(lp1889
S':'
asbag68
(g89
g70
NtRp1890
(dp1891
g73
(dp1892
sg82
g1878
sg75
(lp1893
g68
(g69
g70
NtRp1894
(dp1895
g73
(dp1896
g81
I4
ssg82
g1890
sg75
(lp1897
g1264
asbasbasbag68
(g84
g70
NtRp1898
(dp1899
g73
(dp1900
sg82
g1687
sg75
(lp1901
g68
(g89
g70
NtRp1902
(dp1903
g73
(dp1904
g93
g94
ssg82
g1898
sg75
(lp1905
g1294
asbag68
(g89
g70
NtRp1906
(dp1907
g73
(dp1908
g100
g101
ssg82
g1898
sg75
(lp1909
S':'
asbag68
(g89
g70
NtRp1910
(dp1911
g73
(dp1912
sg82
g1898
sg75
(lp1913
g68
(g69
g70
NtRp1914
(dp1915
g73
(dp1916
g81
I4
ssg82
g1910
sg75
(lp1917
g68
(g77
g70
NtRp1918
(dp1919
g73
(dp1920
g81
I3
ssg82
Nsg75
(lp1921
g68
(g84
g70
NtRp1922
(dp1923
g73
(dp1924
sg82
g1918
sg75
(lp1925
g68
(g89
g70
NtRp1926
(dp1927
g73
(dp1928
sg82
g1922
sg75
(lp1929
g68
(g69
g70
NtRp1930
(dp1931
g73
(dp1932
g81
I3
ssg82
g1926
sg75
(lp1933
S'1'
asbasbasbag68
(g84
g70
NtRp1934
(dp1935
g73
(dp1936
sg82
g1918
sg75
(lp1937
g68
(g89
g70
NtRp1938
(dp1939
g73
(dp1940
sg82
g1934
sg75
(lp1941
g68
(g69
g70
NtRp1942
(dp1943
g73
(dp1944
g81
I3
ssg82
g1938
sg75
(lp1945
S'99'
p1946
asbasbasbag68
(g84
g70
NtRp1947
(dp1948
g73
(dp1949
sg82
g1918
sg75
(lp1950
g68
(g89
g70
NtRp1951
(dp1952
g73
(dp1953
sg82
g1947
sg75
(lp1954
g68
(g69
g70
NtRp1955
(dp1956
g73
(dp1957
g81
I3
ssg82
g1951
sg75
(lp1958
S'4'
asbasbasbag68
(g84
g70
NtRp1959
(dp1960
g73
(dp1961
sg82
g1918
sg75
(lp1962
g68
(g89
g70
NtRp1963
(dp1964
g73
(dp1965
sg82
g1959
sg75
(lp1966
g68
(g69
g70
NtRp1967
(dp1968
g73
(dp1969
g81
I3
ssg82
g1963
sg75
(lp1970
S'datetime.datetime(2011, 12, 14, 14, 46, 14)'
p1971
asbasbasbag68
(g84
g70
NtRp1972
(dp1973
g73
(dp1974
sg82
g1918
sg75
(lp1975
g68
(g89
g70
NtRp1976
(dp1977
g73
(dp1978
sg82
g1972
sg75
(lp1979
g68
(g69
g70
NtRp1980
(dp1981
g73
(dp1982
g81
I3
ssg82
g1976
sg75
(lp1983
g1373
asbasbasbasbasbasbasbasbasbasbasbag68
(g84
g70
NtRp1984
(dp1985
g73
(dp1986
sg82
g78
sg75
(lp1987
g68
(g89
g70
NtRp1988
(dp1989
g73
(dp1990
g93
g94
ssg82
g1984
sg75
(lp1991
S'is_https'
p1992
asbag68
(g89
g70
NtRp1993
(dp1994
g73
(dp1995
g100
g101
ssg82
g1984
sg75
(lp1996
S':'
asbag68
(g89
g70
NtRp1997
(dp1998
g73
(dp1999
sg82
g1984
sg75
(lp2000
g68
(g69
g70
NtRp2001
(dp2002
g73
(dp2003
g81
I5
ssg82
g1997
sg75
(lp2004
g111
asbasbasbag68
(g84
g70
NtRp2005
(dp2006
g73
(dp2007
sg82
g78
sg75
(lp2008
g68
(g89
g70
NtRp2009
(dp2010
g73
(dp2011
g93
g94
ssg82
g2005
sg75
(lp2012
S'is_local'
p2013
asbag68
(g89
g70
NtRp2014
(dp2015
g73
(dp2016
g100
g101
ssg82
g2005
sg75
(lp2017
S':'
asbag68
(g89
g70
NtRp2018
(dp2019
g73
(dp2020
sg82
g2005
sg75
(lp2021
g68
(g69
g70
NtRp2022
(dp2023
g73
(dp2024
g81
I5
ssg82
g2018
sg75
(lp2025
g1482
asbasbasbag68
(g84
g70
NtRp2026
(dp2027
g73
(dp2028
sg82
g78
sg75
(lp2029
g68
(g89
g70
NtRp2030
(dp2031
g73
(dp2032
g93
g94
ssg82
g2026
sg75
(lp2033
S'is_restful'
p2034
asbag68
(g89
g70
NtRp2035
(dp2036
g73
(dp2037
g100
g101
ssg82
g2026
sg75
(lp2038
S':'
asbag68
(g89
g70
NtRp2039
(dp2040
g73
(dp2041
sg82
g2026
sg75
(lp2042
g68
(g69
g70
NtRp2043
(dp2044
g73
(dp2045
g81
I5
ssg82
g2039
sg75
(lp2046
g111
asbasbasbag68
(g84
g70
NtRp2047
(dp2048
g73
(dp2049
sg82
g78
sg75
(lp2050
g68
(g89
g70
NtRp2051
(dp2052
g73
(dp2053
g93
g94
ssg82
g2047
sg75
(lp2054
S'now'
p2055
asbag68
(g89
g70
NtRp2056
(dp2057
g73
(dp2058
g100
g101
ssg82
g2047
sg75
(lp2059
S':'
asbag68
(g89
g70
NtRp2060
(dp2061
g73
(dp2062
sg82
g2047
sg75
(lp2063
g68
(g69
g70
NtRp2064
(dp2065
g73
(dp2066
g81
I5
ssg82
g2060
sg75
(lp2067
S'datetime.datetime(2014, 1, 16, 21, 41, 13, 886721)'
p2068
asbasbasbag68
(g84
g70
NtRp2069
(dp2070
g73
(dp2071
sg82
g78
sg75
(lp2072
g68
(g89
g70
NtRp2073
(dp2074
g73
(dp2075
g93
g94
ssg82
g2069
sg75
(lp2076
S'post_vars'
p2077
asbag68
(g89
g70
NtRp2078
(dp2079
g73
(dp2080
g100
g101
ssg82
g2069
sg75
(lp2081
S':'
asbag68
(g89
g70
NtRp2082
(dp2083
g73
(dp2084
sg82
g2069
sg75
(lp2085
g68
(g69
g70
NtRp2086
(dp2087
g73
(dp2088
g81
I5
ssg82
g2082
sg75
(lp2089
g68
(g77
g70
NtRp2090
(dp2091
g73
(dp2092
g81
I4
ssg82
Nsg75
(lp2093
sbasbasbasbag68
(g84
g70
NtRp2094
(dp2095
g73
(dp2096
sg82
g78
sg75
(lp2097
g68
(g89
g70
NtRp2098
(dp2099
g73
(dp2100
g93
g94
ssg82
g2094
sg75
(lp2101
S'url'
p2102
asbag68
(g89
g70
NtRp2103
(dp2104
g73
(dp2105
g100
g101
ssg82
g2094
sg75
(lp2106
S':'
asbag68
(g89
g70
NtRp2107
(dp2108
g73
(dp2109
sg82
g2094
sg75
(lp2110
g68
(g69
g70
NtRp2111
(dp2112
g73
(dp2113
g81
I5
ssg82
g2107
sg75
(lp2114
S'/Hadoop/default/main'
p2115
asbasbasbag68
(g84
g70
NtRp2116
(dp2117
g73
(dp2118
sg82
g78
sg75
(lp2119
g68
(g89
g70
NtRp2120
(dp2121
g73
(dp2122
g93
g94
ssg82
g2116
sg75
(lp2123
S'utcnow'
p2124
asbag68
(g89
g70
NtRp2125
(dp2126
g73
(dp2127
g100
g101
ssg82
g2116
sg75
(lp2128
S':'
asbag68
(g89
g70
NtRp2129
(dp2130
g73
(dp2131
sg82
g2116
sg75
(lp2132
g68
(g69
g70
NtRp2133
(dp2134
g73
(dp2135
g81
I5
ssg82
g2129
sg75
(lp2136
S'datetime.datetime(2014, 1, 16, 16, 11, 13, 886758)'
p2137
asbasbasbag68
(g84
g70
NtRp2138
(dp2139
g73
(dp2140
sg82
g78
sg75
(lp2141
g68
(g89
g70
NtRp2142
(dp2143
g73
(dp2144
g93
g94
ssg82
g2138
sg75
(lp2145
S'uuid'
p2146
asbag68
(g89
g70
NtRp2147
(dp2148
g73
(dp2149
g100
g101
ssg82
g2138
sg75
(lp2150
S':'
asbag68
(g89
g70
NtRp2151
(dp2152
g73
(dp2153
sg82
g2138
sg75
(lp2154
g68
(g69
g70
NtRp2155
(dp2156
g73
(dp2157
g81
I5
ssg82
g2151
sg75
(lp2158
S'Hadoop/127.0.0.1.2014-01-16.21-41-13.85ba5b52-b0d3-4d54-9836-da4b1c0fee6f'
p2159
asbasbasbag68
(g84
g70
NtRp2160
(dp2161
g73
(dp2162
sg82
g78
sg75
(lp2163
g68
(g89
g70
NtRp2164
(dp2165
g73
(dp2166
g93
g94
ssg82
g2160
sg75
(lp2167
S'vars'
p2168
asbag68
(g89
g70
NtRp2169
(dp2170
g73
(dp2171
g100
g101
ssg82
g2160
sg75
(lp2172
S':'
asbag68
(g89
g70
NtRp2173
(dp2174
g73
(dp2175
sg82
g2160
sg75
(lp2176
g68
(g69
g70
NtRp2177
(dp2178
g73
(dp2179
g81
I5
ssg82
g2173
sg75
(lp2180
g68
(g77
g70
NtRp2181
(dp2182
g73
(dp2183
g81
I4
ssg82
Nsg75
(lp2184
sbasbasbasbag68
(g84
g70
NtRp2185
(dp2186
g73
(dp2187
sg82
g78
sg75
(lp2188
g68
(g89
g70
NtRp2189
(dp2190
g73
(dp2191
g93
g94
ssg82
g2185
sg75
(lp2192
S'wsgi'
p2193
asbag68
(g89
g70
NtRp2194
(dp2195
g73
(dp2196
g100
g101
ssg82
g2185
sg75
(lp2197
S':'
asbag68
(g89
g70
NtRp2198
(dp2199
g73
(dp2200
sg82
g2185
sg75
(lp2201
g68
(g69
g70
NtRp2202
(dp2203
g73
(dp2204
g81
I5
ssg82
g2198
sg75
(lp2205
g68
(g77
g70
NtRp2206
(dp2207
g73
(dp2208
g81
I4
ssg82
Nsg75
(lp2209
g68
(g84
g70
NtRp2210
(dp2211
g73
(dp2212
sg82
g2206
sg75
(lp2213
g68
(g89
g70
NtRp2214
(dp2215
g73
(dp2216
g93
g94
ssg82
g2210
sg75
(lp2217
S'environ'
p2218
asbag68
(g89
g70
NtRp2219
(dp2220
g73
(dp2221
g100
g101
ssg82
g2210
sg75
(lp2222
S':'
asbag68
(g89
g70
NtRp2223
(dp2224
g73
(dp2225
sg82
g2210
sg75
(lp2226
g68
(g69
g70
NtRp2227
(dp2228
g73
(dp2229
g81
I4
ssg82
g2223
sg75
(lp2230
g68
(g77
g70
NtRp2231
(dp2232
g73
(dp2233
g81
I3
ssg82
Nsg75
(lp2234
g68
(g84
g70
NtRp2235
(dp2236
g73
(dp2237
sg82
g2231
sg75
(lp2238
g68
(g89
g70
NtRp2239
(dp2240
g73
(dp2241
g93
g94
ssg82
g2235
sg75
(lp2242
S'HTTP_ACCEPT'
p2243
asbag68
(g89
g70
NtRp2244
(dp2245
g73
(dp2246
g100
g101
ssg82
g2235
sg75
(lp2247
S':'
asbag68
(g89
g70
NtRp2248
(dp2249
g73
(dp2250
sg82
g2235
sg75
(lp2251
g68
(g69
g70
NtRp2252
(dp2253
g73
(dp2254
g81
I3
ssg82
g2248
sg75
(lp2255
g829
asbasbasbag68
(g84
g70
NtRp2256
(dp2257
g73
(dp2258
sg82
g2231
sg75
(lp2259
g68
(g89
g70
NtRp2260
(dp2261
g73
(dp2262
g93
g94
ssg82
g2256
sg75
(lp2263
S'HTTP_ACCEPT_ENCODING'
p2264
asbag68
(g89
g70
NtRp2265
(dp2266
g73
(dp2267
g100
g101
ssg82
g2256
sg75
(lp2268
S':'
asbag68
(g89
g70
NtRp2269
(dp2270
g73
(dp2271
sg82
g2256
sg75
(lp2272
g68
(g69
g70
NtRp2273
(dp2274
g73
(dp2275
g81
I3
ssg82
g2269
sg75
(lp2276
g851
asbasbasbag68
(g84
g70
NtRp2277
(dp2278
g73
(dp2279
sg82
g2231
sg75
(lp2280
g68
(g89
g70
NtRp2281
(dp2282
g73
(dp2283
g93
g94
ssg82
g2277
sg75
(lp2284
S'HTTP_ACCEPT_LANGUAGE'
p2285
asbag68
(g89
g70
NtRp2286
(dp2287
g73
(dp2288
g100
g101
ssg82
g2277
sg75
(lp2289
S':'
asbag68
(g89
g70
NtRp2290
(dp2291
g73
(dp2292
sg82
g2277
sg75
(lp2293
g68
(g69
g70
NtRp2294
(dp2295
g73
(dp2296
g81
I3
ssg82
g2290
sg75
(lp2297
g873
asbasbasbag68
(g84
g70
NtRp2298
(dp2299
g73
(dp2300
sg82
g2231
sg75
(lp2301
g68
(g89
g70
NtRp2302
(dp2303
g73
(dp2304
g93
g94
ssg82
g2298
sg75
(lp2305
S'HTTP_CONNECTION'
p2306
asbag68
(g89
g70
NtRp2307
(dp2308
g73
(dp2309
g100
g101
ssg82
g2298
sg75
(lp2310
S':'
asbag68
(g89
g70
NtRp2311
(dp2312
g73
(dp2313
sg82
g2298
sg75
(lp2314
g68
(g69
g70
NtRp2315
(dp2316
g73
(dp2317
g81
I3
ssg82
g2311
sg75
(lp2318
g895
asbasbasbag68
(g84
g70
NtRp2319
(dp2320
g73
(dp2321
sg82
g2231
sg75
(lp2322
g68
(g89
g70
NtRp2323
(dp2324
g73
(dp2325
g93
g94
ssg82
g2319
sg75
(lp2326
S'HTTP_COOKIE'
p2327
asbag68
(g89
g70
NtRp2328
(dp2329
g73
(dp2330
g100
g101
ssg82
g2319
sg75
(lp2331
S':'
asbag68
(g89
g70
NtRp2332
(dp2333
g73
(dp2334
sg82
g2319
sg75
(lp2335
g68
(g69
g70
NtRp2336
(dp2337
g73
(dp2338
g81
I3
ssg82
g2332
sg75
(lp2339
g917
asbasbasbag68
(g84
g70
NtRp2340
(dp2341
g73
(dp2342
sg82
g2231
sg75
(lp2343
g68
(g89
g70
NtRp2344
(dp2345
g73
(dp2346
g93
g94
ssg82
g2340
sg75
(lp2347
S'HTTP_HOST'
p2348
asbag68
(g89
g70
NtRp2349
(dp2350
g73
(dp2351
g100
g101
ssg82
g2340
sg75
(lp2352
S':'
asbag68
(g89
g70
NtRp2353
(dp2354
g73
(dp2355
sg82
g2340
sg75
(lp2356
g68
(g69
g70
NtRp2357
(dp2358
g73
(dp2359
g81
I3
ssg82
g2353
sg75
(lp2360
g939
asbasbasbag68
(g84
g70
NtRp2361
(dp2362
g73
(dp2363
sg82
g2231
sg75
(lp2364
g68
(g89
g70
NtRp2365
(dp2366
g73
(dp2367
g93
g94
ssg82
g2361
sg75
(lp2368
S'HTTP_REFERER'
p2369
asbag68
(g89
g70
NtRp2370
(dp2371
g73
(dp2372
g100
g101
ssg82
g2361
sg75
(lp2373
S':'
asbag68
(g89
g70
NtRp2374
(dp2375
g73
(dp2376
sg82
g2361
sg75
(lp2377
g68
(g69
g70
NtRp2378
(dp2379
g73
(dp2380
g81
I3
ssg82
g2374
sg75
(lp2381
g961
asbasbasbag68
(g84
g70
NtRp2382
(dp2383
g73
(dp2384
sg82
g2231
sg75
(lp2385
g68
(g89
g70
NtRp2386
(dp2387
g73
(dp2388
g93
g94
ssg82
g2382
sg75
(lp2389
S'HTTP_USER_AGENT'
p2390
asbag68
(g89
g70
NtRp2391
(dp2392
g73
(dp2393
g100
g101
ssg82
g2382
sg75
(lp2394
S':'
asbag68
(g89
g70
NtRp2395
(dp2396
g73
(dp2397
sg82
g2382
sg75
(lp2398
g68
(g69
g70
NtRp2399
(dp2400
g73
(dp2401
g81
I3
ssg82
g2395
sg75
(lp2402
g983
asbasbasbag68
(g84
g70
NtRp2403
(dp2404
g73
(dp2405
sg82
g2231
sg75
(lp2406
g68
(g89
g70
NtRp2407
(dp2408
g73
(dp2409
g93
g94
ssg82
g2403
sg75
(lp2410
S'PATH_INFO'
p2411
asbag68
(g89
g70
NtRp2412
(dp2413
g73
(dp2414
g100
g101
ssg82
g2403
sg75
(lp2415
S':'
asbag68
(g89
g70
NtRp2416
(dp2417
g73
(dp2418
sg82
g2403
sg75
(lp2419
g68
(g69
g70
NtRp2420
(dp2421
g73
(dp2422
g81
I3
ssg82
g2416
sg75
(lp2423
g1047
asbasbasbag68
(g84
g70
NtRp2424
(dp2425
g73
(dp2426
sg82
g2231
sg75
(lp2427
g68
(g89
g70
NtRp2428
(dp2429
g73
(dp2430
g93
g94
ssg82
g2424
sg75
(lp2431
S'QUERY_STRING'
p2432
asbag68
(g89
g70
NtRp2433
(dp2434
g73
(dp2435
g100
g101
ssg82
g2424
sg75
(lp2436
S':'
asbag68
(g89
g70
NtRp2437
(dp2438
g73
(dp2439
sg82
g2424
sg75
(lp2440
g68
(g69
g70
NtRp2441
(dp2442
g73
(dp2443
g81
I3
ssg82
g2437
sg75
(lp2444
S''
asbasbasbag68
(g84
g70
NtRp2445
(dp2446
g73
(dp2447
sg82
g2231
sg75
(lp2448
g68
(g89
g70
NtRp2449
(dp2450
g73
(dp2451
g93
g94
ssg82
g2445
sg75
(lp2452
S'REMOTE_ADDR'
p2453
asbag68
(g89
g70
NtRp2454
(dp2455
g73
(dp2456
g100
g101
ssg82
g2445
sg75
(lp2457
S':'
asbag68
(g89
g70
NtRp2458
(dp2459
g73
(dp2460
sg82
g2445
sg75
(lp2461
g68
(g69
g70
NtRp2462
(dp2463
g73
(dp2464
g81
I3
ssg82
g2458
sg75
(lp2465
g201
asbasbasbag68
(g84
g70
NtRp2466
(dp2467
g73
(dp2468
sg82
g2231
sg75
(lp2469
g68
(g89
g70
NtRp2470
(dp2471
g73
(dp2472
g93
g94
ssg82
g2466
sg75
(lp2473
S'REMOTE_PORT'
p2474
asbag68
(g89
g70
NtRp2475
(dp2476
g73
(dp2477
g100
g101
ssg82
g2466
sg75
(lp2478
S':'
asbag68
(g89
g70
NtRp2479
(dp2480
g73
(dp2481
sg82
g2466
sg75
(lp2482
g68
(g69
g70
NtRp2483
(dp2484
g73
(dp2485
g81
I3
ssg82
g2479
sg75
(lp2486
g1111
asbasbasbag68
(g84
g70
NtRp2487
(dp2488
g73
(dp2489
sg82
g2231
sg75
(lp2490
g68
(g89
g70
NtRp2491
(dp2492
g73
(dp2493
g93
g94
ssg82
g2487
sg75
(lp2494
S'REQUEST_METHOD'
p2495
asbag68
(g89
g70
NtRp2496
(dp2497
g73
(dp2498
g100
g101
ssg82
g2487
sg75
(lp2499
S':'
asbag68
(g89
g70
NtRp2500
(dp2501
g73
(dp2502
sg82
g2487
sg75
(lp2503
g68
(g69
g70
NtRp2504
(dp2505
g73
(dp2506
g81
I3
ssg82
g2500
sg75
(lp2507
g1133
asbasbasbag68
(g84
g70
NtRp2508
(dp2509
g73
(dp2510
sg82
g2231
sg75
(lp2511
g68
(g89
g70
NtRp2512
(dp2513
g73
(dp2514
g93
g94
ssg82
g2508
sg75
(lp2515
S'SCRIPT_NAME'
p2516
asbag68
(g89
g70
NtRp2517
(dp2518
g73
(dp2519
g100
g101
ssg82
g2508
sg75
(lp2520
S':'
asbag68
(g89
g70
NtRp2521
(dp2522
g73
(dp2523
sg82
g2508
sg75
(lp2524
g68
(g69
g70
NtRp2525
(dp2526
g73
(dp2527
g81
I3
ssg82
g2521
sg75
(lp2528
S''
asbasbasbag68
(g84
g70
NtRp2529
(dp2530
g73
(dp2531
sg82
g2231
sg75
(lp2532
g68
(g89
g70
NtRp2533
(dp2534
g73
(dp2535
g93
g94
ssg82
g2529
sg75
(lp2536
S'SERVER_NAME'
p2537
asbag68
(g89
g70
NtRp2538
(dp2539
g73
(dp2540
g100
g101
ssg82
g2529
sg75
(lp2541
S':'
asbag68
(g89
g70
NtRp2542
(dp2543
g73
(dp2544
sg82
g2529
sg75
(lp2545
g68
(g69
g70
NtRp2546
(dp2547
g73
(dp2548
g81
I3
ssg82
g2542
sg75
(lp2549
g1176
asbasbasbag68
(g84
g70
NtRp2550
(dp2551
g73
(dp2552
sg82
g2231
sg75
(lp2553
g68
(g89
g70
NtRp2554
(dp2555
g73
(dp2556
g93
g94
ssg82
g2550
sg75
(lp2557
S'SERVER_PORT'
p2558
asbag68
(g89
g70
NtRp2559
(dp2560
g73
(dp2561
g100
g101
ssg82
g2550
sg75
(lp2562
S':'
asbag68
(g89
g70
NtRp2563
(dp2564
g73
(dp2565
sg82
g2550
sg75
(lp2566
g68
(g69
g70
NtRp2567
(dp2568
g73
(dp2569
g81
I3
ssg82
g2563
sg75
(lp2570
g1198
asbasbasbag68
(g84
g70
NtRp2571
(dp2572
g73
(dp2573
sg82
g2231
sg75
(lp2574
g68
(g89
g70
NtRp2575
(dp2576
g73
(dp2577
g93
g94
ssg82
g2571
sg75
(lp2578
S'SERVER_PROTOCOL'
p2579
asbag68
(g89
g70
NtRp2580
(dp2581
g73
(dp2582
g100
g101
ssg82
g2571
sg75
(lp2583
S':'
asbag68
(g89
g70
NtRp2584
(dp2585
g73
(dp2586
sg82
g2571
sg75
(lp2587
g68
(g69
g70
NtRp2588
(dp2589
g73
(dp2590
g81
I3
ssg82
g2584
sg75
(lp2591
g1220
asbasbasbag68
(g84
g70
NtRp2592
(dp2593
g73
(dp2594
sg82
g2231
sg75
(lp2595
g68
(g89
g70
NtRp2596
(dp2597
g73
(dp2598
g93
g94
ssg82
g2592
sg75
(lp2599
S'SERVER_SOFTWARE'
p2600
asbag68
(g89
g70
NtRp2601
(dp2602
g73
(dp2603
g100
g101
ssg82
g2592
sg75
(lp2604
S':'
asbag68
(g89
g70
NtRp2605
(dp2606
g73
(dp2607
sg82
g2592
sg75
(lp2608
g68
(g69
g70
NtRp2609
(dp2610
g73
(dp2611
g81
I3
ssg82
g2605
sg75
(lp2612
g1242
asbasbasbag68
(g84
g70
NtRp2613
(dp2614
g73
(dp2615
sg82
g2231
sg75
(lp2616
g68
(g89
g70
NtRp2617
(dp2618
g73
(dp2619
g93
g94
ssg82
g2613
sg75
(lp2620
S'wsgi.errors'
p2621
asbag68
(g89
g70
NtRp2622
(dp2623
g73
(dp2624
g100
g101
ssg82
g2613
sg75
(lp2625
S':'
asbag68
(g89
g70
NtRp2626
(dp2627
g73
(dp2628
sg82
g2613
sg75
(lp2629
g68
(g69
g70
NtRp2630
(dp2631
g73
(dp2632
g81
I3
ssg82
g2626
sg75
(lp2633
S"<open file '<stderr>', mode 'w' at 0xb72f70d0>"
p2634
asbasbasbag68
(g84
g70
NtRp2635
(dp2636
g73
(dp2637
sg82
g2231
sg75
(lp2638
g68
(g89
g70
NtRp2639
(dp2640
g73
(dp2641
g93
g94
ssg82
g2635
sg75
(lp2642
S'wsgi.file_wrapper'
p2643
asbag68
(g89
g70
NtRp2644
(dp2645
g73
(dp2646
g100
g101
ssg82
g2635
sg75
(lp2647
S':'
asbag68
(g89
g70
NtRp2648
(dp2649
g73
(dp2650
sg82
g2635
sg75
(lp2651
g68
(g69
g70
NtRp2652
(dp2653
g73
(dp2654
g81
I3
ssg82
g2648
sg75
(lp2655
S'<class wsgiref.util.FileWrapper at 0xa6214dc>'
p2656
asbasbasbag68
(g84
g70
NtRp2657
(dp2658
g73
(dp2659
sg82
g2231
sg75
(lp2660
g68
(g89
g70
NtRp2661
(dp2662
g73
(dp2663
g93
g94
ssg82
g2657
sg75
(lp2664
S'wsgi.input'
p2665
asbag68
(g89
g70
NtRp2666
(dp2667
g73
(dp2668
g100
g101
ssg82
g2657
sg75
(lp2669
S':'
asbag68
(g89
g70
NtRp2670
(dp2671
g73
(dp2672
sg82
g2657
sg75
(lp2673
g68
(g69
g70
NtRp2674
(dp2675
g73
(dp2676
g81
I3
ssg82
g2670
sg75
(lp2677
S'<cStringIO.StringO object at 0xabd2df60>'
p2678
asbasbasbag68
(g84
g70
NtRp2679
(dp2680
g73
(dp2681
sg82
g2231
sg75
(lp2682
g68
(g89
g70
NtRp2683
(dp2684
g73
(dp2685
g93
g94
ssg82
g2679
sg75
(lp2686
S'wsgi.multiprocess'
p2687
asbag68
(g89
g70
NtRp2688
(dp2689
g73
(dp2690
g100
g101
ssg82
g2679
sg75
(lp2691
S':'
asbag68
(g89
g70
NtRp2692
(dp2693
g73
(dp2694
sg82
g2679
sg75
(lp2695
g68
(g69
g70
NtRp2696
(dp2697
g73
(dp2698
g81
I3
ssg82
g2692
sg75
(lp2699
g111
asbasbasbag68
(g84
g70
NtRp2700
(dp2701
g73
(dp2702
sg82
g2231
sg75
(lp2703
g68
(g89
g70
NtRp2704
(dp2705
g73
(dp2706
g93
g94
ssg82
g2700
sg75
(lp2707
S'wsgi.multithread'
p2708
asbag68
(g89
g70
NtRp2709
(dp2710
g73
(dp2711
g100
g101
ssg82
g2700
sg75
(lp2712
S':'
asbag68
(g89
g70
NtRp2713
(dp2714
g73
(dp2715
sg82
g2700
sg75
(lp2716
g68
(g69
g70
NtRp2717
(dp2718
g73
(dp2719
g81
I3
ssg82
g2713
sg75
(lp2720
g1482
asbasbasbag68
(g84
g70
NtRp2721
(dp2722
g73
(dp2723
sg82
g2231
sg75
(lp2724
g68
(g89
g70
NtRp2725
(dp2726
g73
(dp2727
g93
g94
ssg82
g2721
sg75
(lp2728
S'wsgi.run_once'
p2729
asbag68
(g89
g70
NtRp2730
(dp2731
g73
(dp2732
g100
g101
ssg82
g2721
sg75
(lp2733
S':'
asbag68
(g89
g70
NtRp2734
(dp2735
g73
(dp2736
sg82
g2721
sg75
(lp2737
g68
(g69
g70
NtRp2738
(dp2739
g73
(dp2740
g81
I3
ssg82
g2734
sg75
(lp2741
g111
asbasbasbag68
(g84
g70
NtRp2742
(dp2743
g73
(dp2744
sg82
g2231
sg75
(lp2745
g68
(g89
g70
NtRp2746
(dp2747
g73
(dp2748
g93
g94
ssg82
g2742
sg75
(lp2749
S'wsgi.url_scheme'
p2750
asbag68
(g89
g70
NtRp2751
(dp2752
g73
(dp2753
g100
g101
ssg82
g2742
sg75
(lp2754
S':'
asbag68
(g89
g70
NtRp2755
(dp2756
g73
(dp2757
sg82
g2742
sg75
(lp2758
g68
(g69
g70
NtRp2759
(dp2760
g73
(dp2761
g81
I3
ssg82
g2755
sg75
(lp2762
g1525
asbasbasbag68
(g84
g70
NtRp2763
(dp2764
g73
(dp2765
sg82
g2231
sg75
(lp2766
g68
(g89
g70
NtRp2767
(dp2768
g73
(dp2769
g93
g94
ssg82
g2763
sg75
(lp2770
S'wsgi.version'
p2771
asbag68
(g89
g70
NtRp2772
(dp2773
g73
(dp2774
g100
g101
ssg82
g2763
sg75
(lp2775
S':'
asbag68
(g89
g70
NtRp2776
(dp2777
g73
(dp2778
sg82
g2763
sg75
(lp2779
g68
(g69
g70
NtRp2780
(dp2781
g73
(dp2782
g81
I3
ssg82
g2776
sg75
(lp2783
S'1'
asbasbasbasbasbasbasbasbasbasbasbasbasbsS'frames'
p2784
(lp2785
(dp2786
S'file'
p2787
S'/usr/lib/pymodules/python2.7/gluon/restricted.py'
p2788
sS'dump'
p2789
(dp2790
S'code'
p2791
S'r"response.write(\'<!DOCTYPE html>\\n<!-- paulirish....ponse.write(\'\\n</body>\\n</html>\\n\', escape=False)"'
p2792
sS'layer'
p2793
S"'/home/ranganath/web2py/applications/Hadoop/views/default/main.html'"
p2794
sS'global compile2'
p2795
S'<function compile2>'
p2796
sS'ccode'
p2797
S'undefined'
p2798
ssS'lnum'
p2799
I203
sS'lines'
p2800
(dp2801
I198
S"    environment['__file__'] = layer"
p2802
sI199
S'    try:'
p2803
sI200
S'        if type(code) == types.CodeType:'
p2804
sI201
S'            ccode = code'
p2805
sI202
S'        else:'
p2806
sI203
S'            ccode = compile2(code,layer)'
p2807
sI204
S'        exec ccode in environment'
p2808
sI205
S'    except HTTP:'
p2809
sI206
S'        raise'
p2810
sI207
S'    except RestrictedError:'
p2811
ssS'call'
p2812
S'(code=r"response.write(\'<!DOCTYPE html>\\n<!-- paulirish....ponse.write(\'\\n</body>\\n</html>\\n\', escape=False)", environment={\'A\': <class \'gluon.html.A\'>, \'Auth\': <class \'gluon.tools.Auth\'>, \'B\': <class \'gluon.html.B\'>, \'BEAUTIFY\': <class \'gluon.html.BEAUTIFY\'>, \'BODY\': <class \'gluon.html.BODY\'>, \'BR\': <class \'gluon.html.BR\'>, \'BUTTON\': <class \'gluon.html.BUTTON\'>, \'CAT\': <class \'gluon.html.CAT\'>, \'CENTER\': <class \'gluon.html.CENTER\'>, \'CLEANUP\': <class \'gluon.validators.CLEANUP\'>, ...}, layer=\'/home/ranganath/web2py/applications/Hadoop/views/default/main.html\')'
p2813
sS'func'
p2814
S'restricted'
p2815
sa(dp2816
g2787
S'/usr/lib/pymodules/python2.7/gluon/restricted.py'
p2817
sg2789
(dp2818
S'builtincompile'
p2819
S'<built-in function compile>'
p2820
sS'code'
p2821
S'r"response.write(\'<!DOCTYPE html>\\n<!-- paulirish....ponse.write(\'\\n</body>\\n</html>\\n\', escape=False)"'
p2822
sS'code.rstrip'
p2823
S'<built-in method rstrip of str object>'
p2824
sS').replace'
p2825
g2798
sS'layer'
p2826
S"'/home/ranganath/web2py/applications/Hadoop/views/default/main.html'"
p2827
ssg2799
I189
sg2800
(dp2828
I192
S'    """'
p2829
sI193
S'    runs code in environment and returns the output. if an exception occurs'
p2830
sI184
S''
sI185
S'def compile2(code,layer):'
p2831
sI186
S'    """'
p2832
sI187
S"    The +'\\n' is necessary else compile fails when code ends in a comment."
p2833
sI188
S'    """'
p2834
sI189
S"    return compile(code.rstrip().replace('\\r\\n','\\n')+'\\n', layer, 'exec')"
p2835
sI190
S''
sI191
S"def restricted(code, environment=None, layer='Unknown'):"
p2836
ssg2812
S'(code=r"response.write(\'<!DOCTYPE html>\\n<!-- paulirish....ponse.write(\'\\n</body>\\n</html>\\n\', escape=False)", layer=\'/home/ranganath/web2py/applications/Hadoop/views/default/main.html\')'
p2837
sg2814
S'compile2'
p2838
sasS'pyver'
p2839
S'Python 2.7.3: /usr/bin/python'
p2840
sS'session'
p2841
g68
(g69
g70
NtRp2842
(dp2843
g73
(dp2844
sg75
(lp2845
g68
(g77
g70
NtRp2846
(dp2847
g73
(dp2848
g81
I5
ssg82
Nsg75
(lp2849
sbasbsS'etype'
p2850
S"<type 'exceptions.SyntaxError'>"
p2851
sS'date'
p2852
S'Thu Jan 16 21:41:14 2014'
p2853
sS'response'
p2854
g68
(g69
g70
NtRp2855
(dp2856
g73
(dp2857
sg75
(lp2858
g68
(g77
g70
NtRp2859
(dp2860
g73
(dp2861
g81
I5
ssg82
Nsg75
(lp2862
g68
(g84
g70
NtRp2863
(dp2864
g73
(dp2865
sg82
g2859
sg75
(lp2866
g68
(g89
g70
NtRp2867
(dp2868
g73
(dp2869
g93
g94
ssg82
g2863
sg75
(lp2870
g166
asbag68
(g89
g70
NtRp2871
(dp2872
g73
(dp2873
g100
g101
ssg82
g2863
sg75
(lp2874
S':'
asbag68
(g89
g70
NtRp2875
(dp2876
g73
(dp2877
sg82
g2863
sg75
(lp2878
g68
(g69
g70
NtRp2879
(dp2880
g73
(dp2881
g81
I5
ssg82
g2875
sg75
(lp2882
S'<cStringIO.StringO object at 0xabc43b20>'
p2883
asbasbasbag68
(g84
g70
NtRp2884
(dp2885
g73
(dp2886
sg82
g2859
sg75
(lp2887
g68
(g89
g70
NtRp2888
(dp2889
g73
(dp2890
g93
g94
ssg82
g2884
sg75
(lp2891
g232
asbag68
(g89
g70
NtRp2892
(dp2893
g73
(dp2894
g100
g101
ssg82
g2884
sg75
(lp2895
S':'
asbag68
(g89
g70
NtRp2896
(dp2897
g73
(dp2898
sg82
g2884
sg75
(lp2899
g68
(g69
g70
NtRp2900
(dp2901
g73
(dp2902
g81
I5
ssg82
g2896
sg75
(lp2903
g68
(g77
g70
NtRp2904
(dp2905
g73
(dp2906
g81
I4
ssg82
Nsg75
(lp2907
g68
(g84
g70
NtRp2908
(dp2909
g73
(dp2910
sg82
g2904
sg75
(lp2911
g68
(g89
g70
NtRp2912
(dp2913
g73
(dp2914
g93
g94
ssg82
g2908
sg75
(lp2915
S'session_id_hadoop'
p2916
asbag68
(g89
g70
NtRp2917
(dp2918
g73
(dp2919
g100
g101
ssg82
g2908
sg75
(lp2920
S':'
asbag68
(g89
g70
NtRp2921
(dp2922
g73
(dp2923
sg82
g2908
sg75
(lp2924
g68
(g69
g70
NtRp2925
(dp2926
g73
(dp2927
g81
I4
ssg82
g2921
sg75
(lp2928
g68
(g77
g70
NtRp2929
(dp2930
g73
(dp2931
g81
I3
ssg82
Nsg75
(lp2932
g68
(g84
g70
NtRp2933
(dp2934
g73
(dp2935
sg82
g2929
sg75
(lp2936
g68
(g89
g70
NtRp2937
(dp2938
g73
(dp2939
g93
g94
ssg82
g2933
sg75
(lp2940
g282
asbag68
(g89
g70
NtRp2941
(dp2942
g73
(dp2943
g100
g101
ssg82
g2933
sg75
(lp2944
S':'
asbag68
(g89
g70
NtRp2945
(dp2946
g73
(dp2947
sg82
g2933
sg75
(lp2948
g68
(g69
g70
NtRp2949
(dp2950
g73
(dp2951
g81
I3
ssg82
g2945
sg75
(lp2952
S''
asbasbasbag68
(g84
g70
NtRp2953
(dp2954
g73
(dp2955
sg82
g2929
sg75
(lp2956
g68
(g89
g70
NtRp2957
(dp2958
g73
(dp2959
g93
g94
ssg82
g2953
sg75
(lp2960
g303
asbag68
(g89
g70
NtRp2961
(dp2962
g73
(dp2963
g100
g101
ssg82
g2953
sg75
(lp2964
S':'
asbag68
(g89
g70
NtRp2965
(dp2966
g73
(dp2967
sg82
g2953
sg75
(lp2968
g68
(g69
g70
NtRp2969
(dp2970
g73
(dp2971
g81
I3
ssg82
g2965
sg75
(lp2972
S''
asbasbasbag68
(g84
g70
NtRp2973
(dp2974
g73
(dp2975
sg82
g2929
sg75
(lp2976
g68
(g89
g70
NtRp2977
(dp2978
g73
(dp2979
g93
g94
ssg82
g2973
sg75
(lp2980
g324
asbag68
(g89
g70
NtRp2981
(dp2982
g73
(dp2983
g100
g101
ssg82
g2973
sg75
(lp2984
S':'
asbag68
(g89
g70
NtRp2985
(dp2986
g73
(dp2987
sg82
g2973
sg75
(lp2988
g68
(g69
g70
NtRp2989
(dp2990
g73
(dp2991
g81
I3
ssg82
g2985
sg75
(lp2992
S''
asbasbasbag68
(g84
g70
NtRp2993
(dp2994
g73
(dp2995
sg82
g2929
sg75
(lp2996
g68
(g89
g70
NtRp2997
(dp2998
g73
(dp2999
g93
g94
ssg82
g2993
sg75
(lp3000
g345
asbag68
(g89
g70
NtRp3001
(dp3002
g73
(dp3003
g100
g101
ssg82
g2993
sg75
(lp3004
S':'
asbag68
(g89
g70
NtRp3005
(dp3006
g73
(dp3007
sg82
g2993
sg75
(lp3008
g68
(g69
g70
NtRp3009
(dp3010
g73
(dp3011
g81
I3
ssg82
g3005
sg75
(lp3012
S''
asbasbasbag68
(g84
g70
NtRp3013
(dp3014
g73
(dp3015
sg82
g2929
sg75
(lp3016
g68
(g89
g70
NtRp3017
(dp3018
g73
(dp3019
g93
g94
ssg82
g3013
sg75
(lp3020
g366
asbag68
(g89
g70
NtRp3021
(dp3022
g73
(dp3023
g100
g101
ssg82
g3013
sg75
(lp3024
S':'
asbag68
(g89
g70
NtRp3025
(dp3026
g73
(dp3027
sg82
g3013
sg75
(lp3028
g68
(g69
g70
NtRp3029
(dp3030
g73
(dp3031
g81
I3
ssg82
g3025
sg75
(lp3032
S''
asbasbasbag68
(g84
g70
NtRp3033
(dp3034
g73
(dp3035
sg82
g2929
sg75
(lp3036
g68
(g89
g70
NtRp3037
(dp3038
g73
(dp3039
g93
g94
ssg82
g3033
sg75
(lp3040
g387
asbag68
(g89
g70
NtRp3041
(dp3042
g73
(dp3043
g100
g101
ssg82
g3033
sg75
(lp3044
S':'
asbag68
(g89
g70
NtRp3045
(dp3046
g73
(dp3047
sg82
g3033
sg75
(lp3048
g68
(g69
g70
NtRp3049
(dp3050
g73
(dp3051
g81
I3
ssg82
g3045
sg75
(lp3052
S'/'
asbasbasbag68
(g84
g70
NtRp3053
(dp3054
g73
(dp3055
sg82
g2929
sg75
(lp3056
g68
(g89
g70
NtRp3057
(dp3058
g73
(dp3059
g93
g94
ssg82
g3053
sg75
(lp3060
g408
asbag68
(g89
g70
NtRp3061
(dp3062
g73
(dp3063
g100
g101
ssg82
g3053
sg75
(lp3064
S':'
asbag68
(g89
g70
NtRp3065
(dp3066
g73
(dp3067
sg82
g3053
sg75
(lp3068
g68
(g69
g70
NtRp3069
(dp3070
g73
(dp3071
g81
I3
ssg82
g3065
sg75
(lp3072
S''
asbasbasbag68
(g84
g70
NtRp3073
(dp3074
g73
(dp3075
sg82
g2929
sg75
(lp3076
g68
(g89
g70
NtRp3077
(dp3078
g73
(dp3079
g93
g94
ssg82
g3073
sg75
(lp3080
g429
asbag68
(g89
g70
NtRp3081
(dp3082
g73
(dp3083
g100
g101
ssg82
g3073
sg75
(lp3084
S':'
asbag68
(g89
g70
NtRp3085
(dp3086
g73
(dp3087
sg82
g3073
sg75
(lp3088
g68
(g69
g70
NtRp3089
(dp3090
g73
(dp3091
g81
I3
ssg82
g3085
sg75
(lp3092
S''
asbasbasbasbasbasbasbasbasbasbasbag68
(g84
g70
NtRp3093
(dp3094
g73
(dp3095
sg82
g2859
sg75
(lp3096
g68
(g89
g70
NtRp3097
(dp3098
g73
(dp3099
g93
g94
ssg82
g3093
sg75
(lp3100
S'files'
p3101
asbag68
(g89
g70
NtRp3102
(dp3103
g73
(dp3104
g100
g101
ssg82
g3093
sg75
(lp3105
S':'
asbag68
(g89
g70
NtRp3106
(dp3107
g73
(dp3108
sg82
g3093
sg75
(lp3109
g68
(g69
g70
NtRp3110
(dp3111
g73
(dp3112
g81
I5
ssg82
g3106
sg75
(lp3113
g68
(g77
g70
NtRp3114
(dp3115
g73
(dp3116
g81
I4
ssg82
Nsg75
(lp3117
sbasbasbasbag68
(g84
g70
NtRp3118
(dp3119
g73
(dp3120
sg82
g2859
sg75
(lp3121
g68
(g89
g70
NtRp3122
(dp3123
g73
(dp3124
g93
g94
ssg82
g3118
sg75
(lp3125
S'flash'
p3126
asbag68
(g89
g70
NtRp3127
(dp3128
g73
(dp3129
g100
g101
ssg82
g3118
sg75
(lp3130
S':'
asbag68
(g89
g70
NtRp3131
(dp3132
g73
(dp3133
sg82
g3118
sg75
(lp3134
g68
(g69
g70
NtRp3135
(dp3136
g73
(dp3137
g81
I5
ssg82
g3131
sg75
(lp3138
S''
asbasbasbag68
(g84
g70
NtRp3139
(dp3140
g73
(dp3141
sg82
g2859
sg75
(lp3142
g68
(g89
g70
NtRp3143
(dp3144
g73
(dp3145
g93
g94
ssg82
g3139
sg75
(lp3146
S'generic_patterns'
p3147
asbag68
(g89
g70
NtRp3148
(dp3149
g73
(dp3150
g100
g101
ssg82
g3139
sg75
(lp3151
S':'
asbag68
(g89
g70
NtRp3152
(dp3153
g73
(dp3154
sg82
g3139
sg75
(lp3155
g68
(g69
g70
NtRp3156
(dp3157
g73
(dp3158
g81
I5
ssg82
g3152
sg75
(lp3159
g68
(g77
g70
NtRp3160
(dp3161
g73
(dp3162
g81
I4
ssg82
Nsg75
(lp3163
g68
(g84
g70
NtRp3164
(dp3165
g73
(dp3166
sg82
g3160
sg75
(lp3167
g68
(g89
g70
NtRp3168
(dp3169
g73
(dp3170
sg82
g3164
sg75
(lp3171
g68
(g69
g70
NtRp3172
(dp3173
g73
(dp3174
g81
I4
ssg82
g3168
sg75
(lp3175
S'*'
asbasbasbasbasbasbasbag68
(g84
g70
NtRp3176
(dp3177
g73
(dp3178
sg82
g2859
sg75
(lp3179
g68
(g89
g70
NtRp3180
(dp3181
g73
(dp3182
g93
g94
ssg82
g3176
sg75
(lp3183
S'headers'
p3184
asbag68
(g89
g70
NtRp3185
(dp3186
g73
(dp3187
g100
g101
ssg82
g3176
sg75
(lp3188
S':'
asbag68
(g89
g70
NtRp3189
(dp3190
g73
(dp3191
sg82
g3176
sg75
(lp3192
g68
(g69
g70
NtRp3193
(dp3194
g73
(dp3195
g81
I5
ssg82
g3189
sg75
(lp3196
g68
(g77
g70
NtRp3197
(dp3198
g73
(dp3199
g81
I4
ssg82
Nsg75
(lp3200
g68
(g84
g70
NtRp3201
(dp3202
g73
(dp3203
sg82
g3197
sg75
(lp3204
g68
(g89
g70
NtRp3205
(dp3206
g73
(dp3207
g93
g94
ssg82
g3201
sg75
(lp3208
S'Cache-Control'
p3209
asbag68
(g89
g70
NtRp3210
(dp3211
g73
(dp3212
g100
g101
ssg82
g3201
sg75
(lp3213
S':'
asbag68
(g89
g70
NtRp3214
(dp3215
g73
(dp3216
sg82
g3201
sg75
(lp3217
g68
(g69
g70
NtRp3218
(dp3219
g73
(dp3220
g81
I4
ssg82
g3214
sg75
(lp3221
S'no-store, no-cache, must-revalidate, post-check=0, pre-check=0'
p3222
asbasbasbag68
(g84
g70
NtRp3223
(dp3224
g73
(dp3225
sg82
g3197
sg75
(lp3226
g68
(g89
g70
NtRp3227
(dp3228
g73
(dp3229
g93
g94
ssg82
g3223
sg75
(lp3230
S'Content-Type'
p3231
asbag68
(g89
g70
NtRp3232
(dp3233
g73
(dp3234
g100
g101
ssg82
g3223
sg75
(lp3235
S':'
asbag68
(g89
g70
NtRp3236
(dp3237
g73
(dp3238
sg82
g3223
sg75
(lp3239
g68
(g69
g70
NtRp3240
(dp3241
g73
(dp3242
g81
I4
ssg82
g3236
sg75
(lp3243
S'text/html; charset=utf-8'
p3244
asbasbasbag68
(g84
g70
NtRp3245
(dp3246
g73
(dp3247
sg82
g3197
sg75
(lp3248
g68
(g89
g70
NtRp3249
(dp3250
g73
(dp3251
g93
g94
ssg82
g3245
sg75
(lp3252
S'Expires'
p3253
asbag68
(g89
g70
NtRp3254
(dp3255
g73
(dp3256
g100
g101
ssg82
g3245
sg75
(lp3257
S':'
asbag68
(g89
g70
NtRp3258
(dp3259
g73
(dp3260
sg82
g3245
sg75
(lp3261
g68
(g69
g70
NtRp3262
(dp3263
g73
(dp3264
g81
I4
ssg82
g3258
sg75
(lp3265
S'Thu, 16 Jan 2014 16:11:13 GMT'
p3266
asbasbasbag68
(g84
g70
NtRp3267
(dp3268
g73
(dp3269
sg82
g3197
sg75
(lp3270
g68
(g89
g70
NtRp3271
(dp3272
g73
(dp3273
g93
g94
ssg82
g3267
sg75
(lp3274
S'Pragma'
p3275
asbag68
(g89
g70
NtRp3276
(dp3277
g73
(dp3278
g100
g101
ssg82
g3267
sg75
(lp3279
S':'
asbag68
(g89
g70
NtRp3280
(dp3281
g73
(dp3282
sg82
g3267
sg75
(lp3283
g68
(g69
g70
NtRp3284
(dp3285
g73
(dp3286
g81
I4
ssg82
g3280
sg75
(lp3287
S'no-cache'
p3288
asbasbasbag68
(g84
g70
NtRp3289
(dp3290
g73
(dp3291
sg82
g3197
sg75
(lp3292
g68
(g89
g70
NtRp3293
(dp3294
g73
(dp3295
g93
g94
ssg82
g3289
sg75
(lp3296
S'X-Powered-By'
p3297
asbag68
(g89
g70
NtRp3298
(dp3299
g73
(dp3300
g100
g101
ssg82
g3289
sg75
(lp3301
S':'
asbag68
(g89
g70
NtRp3302
(dp3303
g73
(dp3304
sg82
g3289
sg75
(lp3305
g68
(g69
g70
NtRp3306
(dp3307
g73
(dp3308
g81
I4
ssg82
g3302
sg75
(lp3309
S'web2py'
p3310
asbasbasbasbasbasbasbag68
(g84
g70
NtRp3311
(dp3312
g73
(dp3313
sg82
g2859
sg75
(lp3314
g68
(g89
g70
NtRp3315
(dp3316
g73
(dp3317
g93
g94
ssg82
g3311
sg75
(lp3318
S'menu'
p3319
asbag68
(g89
g70
NtRp3320
(dp3321
g73
(dp3322
g100
g101
ssg82
g3311
sg75
(lp3323
S':'
asbag68
(g89
g70
NtRp3324
(dp3325
g73
(dp3326
sg82
g3311
sg75
(lp3327
g68
(g69
g70
NtRp3328
(dp3329
g73
(dp3330
g81
I5
ssg82
g3324
sg75
(lp3331
g68
(g77
g70
NtRp3332
(dp3333
g73
(dp3334
g81
I4
ssg82
Nsg75
(lp3335
g68
(g84
g70
NtRp3336
(dp3337
g73
(dp3338
sg82
g3332
sg75
(lp3339
g68
(g89
g70
NtRp3340
(dp3341
g73
(dp3342
sg82
g3336
sg75
(lp3343
g68
(g69
g70
NtRp3344
(dp3345
g73
(dp3346
g81
I4
ssg82
g3340
sg75
(lp3347
g68
(g77
g70
NtRp3348
(dp3349
g73
(dp3350
g81
I3
ssg82
Nsg75
(lp3351
g68
(g84
g70
NtRp3352
(dp3353
g73
(dp3354
sg82
g3348
sg75
(lp3355
g68
(g89
g70
NtRp3356
(dp3357
g73
(dp3358
sg82
g3352
sg75
(lp3359
g68
(g69
g70
NtRp3360
(dp3361
g73
(dp3362
g81
I3
ssg82
g3356
sg75
(lp3363
cgluon.languages
lazyT_unpickle
p3364
(S't\x04\x00\x00\x00Home'
tRp3365
asbasbasbag68
(g84
g70
NtRp3366
(dp3367
g73
(dp3368
sg82
g3348
sg75
(lp3369
g68
(g89
g70
NtRp3370
(dp3371
g73
(dp3372
sg82
g3366
sg75
(lp3373
g68
(g69
g70
NtRp3374
(dp3375
g73
(dp3376
g81
I3
ssg82
g3370
sg75
(lp3377
g111
asbasbasbag68
(g84
g70
NtRp3378
(dp3379
g73
(dp3380
sg82
g3348
sg75
(lp3381
g68
(g89
g70
NtRp3382
(dp3383
g73
(dp3384
sg82
g3378
sg75
(lp3385
g68
(g69
g70
NtRp3386
(dp3387
g73
(dp3388
g81
I3
ssg82
g3382
sg75
(lp3389
S'/Hadoop/default/index'
p3390
asbasbasbag68
(g84
g70
NtRp3391
(dp3392
g73
(dp3393
sg82
g3348
sg75
(lp3394
g68
(g89
g70
NtRp3395
(dp3396
g73
(dp3397
sg82
g3391
sg75
(lp3398
g68
(g69
g70
NtRp3399
(dp3400
g73
(dp3401
g81
I3
ssg82
g3395
sg75
(lp3402
g68
(g77
g70
NtRp3403
(dp3404
g73
(dp3405
g81
I2
ssg82
Nsg75
(lp3406
sbasbasbasbasbasbasbasbag68
(g84
g70
NtRp3407
(dp3408
g73
(dp3409
sg82
g3332
sg75
(lp3410
g68
(g89
g70
NtRp3411
(dp3412
g73
(dp3413
sg82
g3407
sg75
(lp3414
g68
(g69
g70
NtRp3415
(dp3416
g73
(dp3417
g81
I4
ssg82
g3411
sg75
(lp3418
g68
(g77
g70
NtRp3419
(dp3420
g73
(dp3421
g81
I3
ssg82
Nsg75
(lp3422
g68
(g84
g70
NtRp3423
(dp3424
g73
(dp3425
sg82
g3419
sg75
(lp3426
g68
(g89
g70
NtRp3427
(dp3428
g73
(dp3429
sg82
g3423
sg75
(lp3430
g68
(g69
g70
NtRp3431
(dp3432
g73
(dp3433
g81
I3
ssg82
g3427
sg75
(lp3434
g68
(cgluon.html
SPAN
p3435
g70
NtRp3436
(dp3437
g73
(dp3438
g93
S'color:yellow'
p3439
ssg82
Nsg75
(lp3440
g3310
asbasbasbasbag68
(g84
g70
NtRp3441
(dp3442
g73
(dp3443
sg82
g3419
sg75
(lp3444
g68
(g89
g70
NtRp3445
(dp3446
g73
(dp3447
sg82
g3441
sg75
(lp3448
g68
(g69
g70
NtRp3449
(dp3450
g73
(dp3451
g81
I3
ssg82
g3445
sg75
(lp3452
g111
asbasbasbag68
(g84
g70
NtRp3453
(dp3454
g73
(dp3455
sg82
g3419
sg75
(lp3456
g68
(g89
g70
NtRp3457
(dp3458
g73
(dp3459
sg82
g3453
sg75
(lp3460
g68
(g69
g70
NtRp3461
(dp3462
g73
(dp3463
g81
I3
ssg82
g3457
sg75
(lp3464
S'None'
p3465
asbasbasbag68
(g84
g70
NtRp3466
(dp3467
g73
(dp3468
sg82
g3419
sg75
(lp3469
g68
(g89
g70
NtRp3470
(dp3471
g73
(dp3472
sg82
g3466
sg75
(lp3473
g68
(g69
g70
NtRp3474
(dp3475
g73
(dp3476
g81
I3
ssg82
g3470
sg75
(lp3477
g68
(g77
g70
NtRp3478
(dp3479
g73
(dp3480
g81
I2
ssg82
Nsg75
(lp3481
g68
(g84
g70
NtRp3482
(dp3483
g73
(dp3484
sg82
g3478
sg75
(lp3485
g68
(g89
g70
NtRp3486
(dp3487
g73
(dp3488
sg82
g3482
sg75
(lp3489
g68
(g69
g70
NtRp3490
(dp3491
g73
(dp3492
g81
I2
ssg82
g3486
sg75
(lp3493
g68
(g77
g70
NtRp3494
(dp3495
g73
(dp3496
g81
I1
ssg82
Nsg75
(lp3497
g68
(g84
g70
NtRp3498
(dp3499
g73
(dp3500
sg82
g3494
sg75
(lp3501
g68
(g89
g70
NtRp3502
(dp3503
g73
(dp3504
sg82
g3498
sg75
(lp3505
g68
(g69
g70
NtRp3506
(dp3507
g73
(dp3508
g81
I1
ssg82
g3502
sg75
(lp3509
g3364
(S's\x08\x00\x00\x00My Sites'
tRp3510
asbasbasbag68
(g84
g70
NtRp3511
(dp3512
g73
(dp3513
sg82
g3494
sg75
(lp3514
g68
(g89
g70
NtRp3515
(dp3516
g73
(dp3517
sg82
g3511
sg75
(lp3518
g68
(g69
g70
NtRp3519
(dp3520
g73
(dp3521
g81
I1
ssg82
g3515
sg75
(lp3522
I00
asbasbasbag68
(g84
g70
NtRp3523
(dp3524
g73
(dp3525
sg82
g3494
sg75
(lp3526
g68
(g89
g70
NtRp3527
(dp3528
g73
(dp3529
sg82
g3523
sg75
(lp3530
g68
(g69
g70
NtRp3531
(dp3532
g73
(dp3533
g81
I1
ssg82
g3527
sg75
(lp3534
S'/admin/default/site'
p3535
asbasbasbasbasbasbasbag68
(g84
g70
NtRp3536
(dp3537
g73
(dp3538
sg82
g3478
sg75
(lp3539
g68
(g89
g70
NtRp3540
(dp3541
g73
(dp3542
sg82
g3536
sg75
(lp3543
g68
(g69
g70
NtRp3544
(dp3545
g73
(dp3546
g81
I2
ssg82
g3540
sg75
(lp3547
g68
(g77
g70
NtRp3548
(dp3549
g73
(dp3550
g81
I1
ssg82
Nsg75
(lp3551
g68
(g84
g70
NtRp3552
(dp3553
g73
(dp3554
sg82
g3548
sg75
(lp3555
g68
(g89
g70
NtRp3556
(dp3557
g73
(dp3558
sg82
g3552
sg75
(lp3559
g68
(g69
g70
NtRp3560
(dp3561
g73
(dp3562
g81
I1
ssg82
g3556
sg75
(lp3563
g3364
(S's\x08\x00\x00\x00This App'
tRp3564
asbasbasbag68
(g84
g70
NtRp3565
(dp3566
g73
(dp3567
sg82
g3548
sg75
(lp3568
g68
(g89
g70
NtRp3569
(dp3570
g73
(dp3571
sg82
g3565
sg75
(lp3572
g68
(g69
g70
NtRp3573
(dp3574
g73
(dp3575
g81
I1
ssg82
g3569
sg75
(lp3576
I00
asbasbasbag68
(g84
g70
NtRp3577
(dp3578
g73
(dp3579
sg82
g3548
sg75
(lp3580
g68
(g89
g70
NtRp3581
(dp3582
g73
(dp3583
sg82
g3577
sg75
(lp3584
g68
(g69
g70
NtRp3585
(dp3586
g73
(dp3587
g81
I1
ssg82
g3581
sg75
(lp3588
S'/admin/default/design/Hadoop'
p3589
asbasbasbag68
(g84
g70
NtRp3590
(dp3591
g73
(dp3592
sg82
g3548
sg75
(lp3593
g68
(g89
g70
NtRp3594
(dp3595
g73
(dp3596
sg82
g3590
sg75
(lp3597
g68
(g69
g70
NtRp3598
(dp3599
g73
(dp3600
g81
I1
ssg82
g3594
sg75
(lp3601
(lp3602
(g3364
(S't\n\x00\x00\x00Controller'
tRp3603
I00
S'/admin/default/edit/Hadoop/controllers/default.py'
tp3604
a(g3364
(S't\x04\x00\x00\x00View'
tRp3605
I00
S'/admin/default/edit/Hadoop/views/default/main.html'
tp3606
a(g3364
(S't\x06\x00\x00\x00Layout'
tRp3607
I00
S'/admin/default/edit/Hadoop/views/layout.html'
tp3608
a(g3364
(S't\n\x00\x00\x00Stylesheet'
tRp3609
I00
S'/admin/default/edit/Hadoop/static/css/web2py.css'
tp3610
a(g3364
(S's\x08\x00\x00\x00DB Model'
tRp3611
I00
S'/admin/default/edit/Hadoop/models/db.py'
tp3612
a(g3364
(S's\n\x00\x00\x00Menu Model'
tRp3613
I00
S'/admin/default/edit/Hadoop/models/menu.py'
tp3614
a(g3364
(S't\x08\x00\x00\x00Database'
tRp3615
I00
S'/Hadoop/appadmin/index'
tp3616
a(g3364
(S't\x06\x00\x00\x00Errors'
tRp3617
I00
S'/admin/default/errors/Hadoop'
tp3618
a(g3364
(S't\x05\x00\x00\x00About'
tRp3619
I00
S'/admin/default/about/Hadoop'
tp3620
aasbasbasbasbasbasbasbag68
(g84
g70
NtRp3621
(dp3622
g73
(dp3623
sg82
g3478
sg75
(lp3624
g68
(g89
g70
NtRp3625
(dp3626
g73
(dp3627
sg82
g3621
sg75
(lp3628
g68
(g69
g70
NtRp3629
(dp3630
g73
(dp3631
g81
I2
ssg82
g3625
sg75
(lp3632
g68
(g77
g70
NtRp3633
(dp3634
g73
(dp3635
g81
I1
ssg82
Nsg75
(lp3636
g68
(g84
g70
NtRp3637
(dp3638
g73
(dp3639
sg82
g3633
sg75
(lp3640
g68
(g89
g70
NtRp3641
(dp3642
g73
(dp3643
sg82
g3637
sg75
(lp3644
g68
(g69
g70
NtRp3645
(dp3646
g73
(dp3647
g81
I1
ssg82
g3641
sg75
(lp3648
S'web2py.com'
p3649
asbasbasbag68
(g84
g70
NtRp3650
(dp3651
g73
(dp3652
sg82
g3633
sg75
(lp3653
g68
(g89
g70
NtRp3654
(dp3655
g73
(dp3656
sg82
g3650
sg75
(lp3657
g68
(g69
g70
NtRp3658
(dp3659
g73
(dp3660
g81
I1
ssg82
g3654
sg75
(lp3661
I00
asbasbasbag68
(g84
g70
NtRp3662
(dp3663
g73
(dp3664
sg82
g3633
sg75
(lp3665
g68
(g89
g70
NtRp3666
(dp3667
g73
(dp3668
sg82
g3662
sg75
(lp3669
g68
(g69
g70
NtRp3670
(dp3671
g73
(dp3672
g81
I1
ssg82
g3666
sg75
(lp3673
S'http://www.web2py.com'
p3674
asbasbasbag68
(g84
g70
NtRp3675
(dp3676
g73
(dp3677
sg82
g3633
sg75
(lp3678
g68
(g89
g70
NtRp3679
(dp3680
g73
(dp3681
sg82
g3675
sg75
(lp3682
g68
(g69
g70
NtRp3683
(dp3684
g73
(dp3685
g81
I1
ssg82
g3679
sg75
(lp3686
(lp3687
(g3364
(S't\x08\x00\x00\x00Download'
tRp3688
I00
S'http://www.web2py.com/examples/default/download'
p3689
tp3690
a(g3364
(S't\x07\x00\x00\x00Support'
tRp3691
I00
S'http://www.web2py.com/examples/default/support'
p3692
tp3693
a(g3364
(S't\x04\x00\x00\x00Demo'
tRp3694
I00
S'http://web2py.com/demo_admin'
p3695
tp3696
a(g3364
(S's\x0e\x00\x00\x00Quick Examples'
tRp3697
I00
S'http://web2py.com/examples/default/examples'
p3698
tp3699
a(g3364
(S't\x03\x00\x00\x00FAQ'
tRp3700
I00
S'http://web2py.com/AlterEgo'
p3701
tp3702
a(g3364
(S't\x06\x00\x00\x00Videos'
tRp3703
I00
S'http://www.web2py.com/examples/default/videos/'
p3704
tp3705
a(g3364
(S's\x11\x00\x00\x00Free Applications'
tRp3706
I00
S'http://web2py.com/appliances'
p3707
tp3708
a(g3364
(S't\x07\x00\x00\x00Plugins'
tRp3709
I00
S'http://web2py.com/plugins'
p3710
tp3711
a(g3364
(S't\x07\x00\x00\x00Layouts'
tRp3712
I00
S'http://web2py.com/layouts'
p3713
tp3714
a(g3364
(S't\x07\x00\x00\x00Recipes'
tRp3715
I00
S'http://web2pyslices.com/'
p3716
tp3717
a(g3364
(S't\x08\x00\x00\x00Semantic'
tRp3718
I00
S'http://web2py.com/semantic'
p3719
tp3720
aasbasbasbasbasbasbasbag68
(g84
g70
NtRp3721
(dp3722
g73
(dp3723
sg82
g3478
sg75
(lp3724
g68
(g89
g70
NtRp3725
(dp3726
g73
(dp3727
sg82
g3721
sg75
(lp3728
g68
(g69
g70
NtRp3729
(dp3730
g73
(dp3731
g81
I2
ssg82
g3725
sg75
(lp3732
g68
(g77
g70
NtRp3733
(dp3734
g73
(dp3735
g81
I1
ssg82
Nsg75
(lp3736
g68
(g84
g70
NtRp3737
(dp3738
g73
(dp3739
sg82
g3733
sg75
(lp3740
g68
(g89
g70
NtRp3741
(dp3742
g73
(dp3743
sg82
g3737
sg75
(lp3744
g68
(g69
g70
NtRp3745
(dp3746
g73
(dp3747
g81
I1
ssg82
g3741
sg75
(lp3748
g3364
(S't\r\x00\x00\x00Documentation'
tRp3749
asbasbasbag68
(g84
g70
NtRp3750
(dp3751
g73
(dp3752
sg82
g3733
sg75
(lp3753
g68
(g89
g70
NtRp3754
(dp3755
g73
(dp3756
sg82
g3750
sg75
(lp3757
g68
(g69
g70
NtRp3758
(dp3759
g73
(dp3760
g81
I1
ssg82
g3754
sg75
(lp3761
I00
asbasbasbag68
(g84
g70
NtRp3762
(dp3763
g73
(dp3764
sg82
g3733
sg75
(lp3765
g68
(g89
g70
NtRp3766
(dp3767
g73
(dp3768
sg82
g3762
sg75
(lp3769
g68
(g69
g70
NtRp3770
(dp3771
g73
(dp3772
g81
I1
ssg82
g3766
sg75
(lp3773
S'http://www.web2py.com/book'
p3774
asbasbasbag68
(g84
g70
NtRp3775
(dp3776
g73
(dp3777
sg82
g3733
sg75
(lp3778
g68
(g89
g70
NtRp3779
(dp3780
g73
(dp3781
sg82
g3775
sg75
(lp3782
g68
(g69
g70
NtRp3783
(dp3784
g73
(dp3785
g81
I1
ssg82
g3779
sg75
(lp3786
(lp3787
(g3364
(S't\x07\x00\x00\x00Preface'
tRp3788
I00
S'http://www.web2py.com/book/default/chapter/00'
p3789
tp3790
a(g3364
(S't\x0c\x00\x00\x00Introduction'
tRp3791
I00
S'http://www.web2py.com/book/default/chapter/01'
p3792
tp3793
a(g3364
(S't\x06\x00\x00\x00Python'
tRp3794
I00
S'http://www.web2py.com/book/default/chapter/02'
p3795
tp3796
a(g3364
(S't\x08\x00\x00\x00Overview'
tRp3797
I00
S'http://www.web2py.com/book/default/chapter/03'
p3798
tp3799
a(g3364
(S's\x08\x00\x00\x00The Core'
tRp3800
I00
S'http://www.web2py.com/book/default/chapter/04'
p3801
tp3802
a(g3364
(S's\t\x00\x00\x00The Views'
tRp3803
I00
S'http://www.web2py.com/book/default/chapter/05'
p3804
tp3805
a(g3364
(S't\x08\x00\x00\x00Database'
tRp3806
I00
S'http://www.web2py.com/book/default/chapter/06'
p3807
tp3808
a(g3364
(S's\x14\x00\x00\x00Forms and Validators'
tRp3809
I00
S'http://www.web2py.com/book/default/chapter/07'
p3810
tp3811
a(g3364
(S's\r\x00\x00\x00Email and SMS'
tRp3812
I00
S'http://www.web2py.com/book/default/chapter/08'
p3813
tp3814
a(g3364
(S's\x0e\x00\x00\x00Access Control'
tRp3815
I00
S'http://www.web2py.com/book/default/chapter/09'
p3816
tp3817
a(g3364
(S't\x08\x00\x00\x00Services'
tRp3818
I00
S'http://www.web2py.com/book/default/chapter/10'
p3819
tp3820
a(g3364
(S's\x0c\x00\x00\x00Ajax Recipes'
tRp3821
I00
S'http://www.web2py.com/book/default/chapter/11'
p3822
tp3823
a(g3364
(S's\x16\x00\x00\x00Components and Plugins'
tRp3824
I00
S'http://www.web2py.com/book/default/chapter/12'
p3825
tp3826
a(g3364
(S's\x12\x00\x00\x00Deployment Recipes'
tRp3827
I00
S'http://www.web2py.com/book/default/chapter/13'
p3828
tp3829
a(g3364
(S's\r\x00\x00\x00Other Recipes'
tRp3830
I00
S'http://www.web2py.com/book/default/chapter/14'
p3831
tp3832
a(g3364
(S's\r\x00\x00\x00Buy this book'
tRp3833
I00
S'http://stores.lulu.com/web2py'
p3834
tp3835
aasbasbasbasbasbasbasbag68
(g84
g70
NtRp3836
(dp3837
g73
(dp3838
sg82
g3478
sg75
(lp3839
g68
(g89
g70
NtRp3840
(dp3841
g73
(dp3842
sg82
g3836
sg75
(lp3843
g68
(g69
g70
NtRp3844
(dp3845
g73
(dp3846
g81
I2
ssg82
g3840
sg75
(lp3847
g68
(g77
g70
NtRp3848
(dp3849
g73
(dp3850
g81
I1
ssg82
Nsg75
(lp3851
g68
(g84
g70
NtRp3852
(dp3853
g73
(dp3854
sg82
g3848
sg75
(lp3855
g68
(g89
g70
NtRp3856
(dp3857
g73
(dp3858
sg82
g3852
sg75
(lp3859
g68
(g69
g70
NtRp3860
(dp3861
g73
(dp3862
g81
I1
ssg82
g3856
sg75
(lp3863
g3364
(S't\t\x00\x00\x00Community'
tRp3864
asbasbasbag68
(g84
g70
NtRp3865
(dp3866
g73
(dp3867
sg82
g3848
sg75
(lp3868
g68
(g89
g70
NtRp3869
(dp3870
g73
(dp3871
sg82
g3865
sg75
(lp3872
g68
(g69
g70
NtRp3873
(dp3874
g73
(dp3875
g81
I1
ssg82
g3869
sg75
(lp3876
I00
asbasbasbag68
(g84
g70
NtRp3877
(dp3878
g73
(dp3879
sg82
g3848
sg75
(lp3880
g68
(g89
g70
NtRp3881
(dp3882
g73
(dp3883
sg82
g3877
sg75
(lp3884
g68
(g69
g70
NtRp3885
(dp3886
g73
(dp3887
g81
I1
ssg82
g3881
sg75
(lp3888
Nasbasbasbag68
(g84
g70
NtRp3889
(dp3890
g73
(dp3891
sg82
g3848
sg75
(lp3892
g68
(g89
g70
NtRp3893
(dp3894
g73
(dp3895
sg82
g3889
sg75
(lp3896
g68
(g69
g70
NtRp3897
(dp3898
g73
(dp3899
g81
I1
ssg82
g3893
sg75
(lp3900
(lp3901
(g3364
(S't\x06\x00\x00\x00Groups'
tRp3902
I00
S'http://www.web2py.com/examples/default/usergroups'
p3903
tp3904
a(g3364
(S't\x07\x00\x00\x00Twitter'
tRp3905
I00
S'http://twitter.com/web2py'
p3906
tp3907
a(g3364
(S's\t\x00\x00\x00Live Chat'
tRp3908
I00
S'http://webchat.freenode.net/?channels=web2py'
p3909
tp3910
aasbasbasbasbasbasbasbag68
(g84
g70
NtRp3911
(dp3912
g73
(dp3913
sg82
g3478
sg75
(lp3914
g68
(g89
g70
NtRp3915
(dp3916
g73
(dp3917
sg82
g3911
sg75
(lp3918
g68
(g69
g70
NtRp3919
(dp3920
g73
(dp3921
g81
I2
ssg82
g3915
sg75
(lp3922
g68
(g77
g70
NtRp3923
(dp3924
g73
(dp3925
g81
I1
ssg82
Nsg75
(lp3926
g68
(g84
g70
NtRp3927
(dp3928
g73
(dp3929
sg82
g3923
sg75
(lp3930
g68
(g89
g70
NtRp3931
(dp3932
g73
(dp3933
sg82
g3927
sg75
(lp3934
g68
(g69
g70
NtRp3935
(dp3936
g73
(dp3937
g81
I1
ssg82
g3931
sg75
(lp3938
g3364
(S't\x07\x00\x00\x00Plugins'
tRp3939
asbasbasbag68
(g84
g70
NtRp3940
(dp3941
g73
(dp3942
sg82
g3923
sg75
(lp3943
g68
(g89
g70
NtRp3944
(dp3945
g73
(dp3946
sg82
g3940
sg75
(lp3947
g68
(g69
g70
NtRp3948
(dp3949
g73
(dp3950
g81
I1
ssg82
g3944
sg75
(lp3951
I00
asbasbasbag68
(g84
g70
NtRp3952
(dp3953
g73
(dp3954
sg82
g3923
sg75
(lp3955
g68
(g89
g70
NtRp3956
(dp3957
g73
(dp3958
sg82
g3952
sg75
(lp3959
g68
(g69
g70
NtRp3960
(dp3961
g73
(dp3962
g81
I1
ssg82
g3956
sg75
(lp3963
Nasbasbasbag68
(g84
g70
NtRp3964
(dp3965
g73
(dp3966
sg82
g3923
sg75
(lp3967
g68
(g89
g70
NtRp3968
(dp3969
g73
(dp3970
sg82
g3964
sg75
(lp3971
g68
(g69
g70
NtRp3972
(dp3973
g73
(dp3974
g81
I1
ssg82
g3968
sg75
(lp3975
(lp3976
(S'plugin_wiki'
p3977
I00
S'http://web2py.com/examples/default/download'
p3978
tp3979
a(g3364
(S's\r\x00\x00\x00Other Plugins'
tRp3980
I00
g3710
tp3981
a(g3364
(S's\x0e\x00\x00\x00Layout Plugins'
tRp3982
I00
g3713
tp3983
aasbasbasbasbasbasbasbasbasbasbasbasbasbasbasbasbasbasbasbag68
(g84
g70
NtRp3984
(dp3985
g73
(dp3986
sg82
g2859
sg75
(lp3987
g68
(g89
g70
NtRp3988
(dp3989
g73
(dp3990
g93
g94
ssg82
g3984
sg75
(lp3991
S'meta'
p3992
asbag68
(g89
g70
NtRp3993
(dp3994
g73
(dp3995
g100
g101
ssg82
g3984
sg75
(lp3996
S':'
asbag68
(g89
g70
NtRp3997
(dp3998
g73
(dp3999
sg82
g3984
sg75
(lp4000
g68
(g69
g70
NtRp4001
(dp4002
g73
(dp4003
g81
I5
ssg82
g3997
sg75
(lp4004
g68
(g77
g70
NtRp4005
(dp4006
g73
(dp4007
g81
I4
ssg82
Nsg75
(lp4008
g68
(g84
g70
NtRp4009
(dp4010
g73
(dp4011
sg82
g4005
sg75
(lp4012
g68
(g89
g70
NtRp4013
(dp4014
g73
(dp4015
g93
g94
ssg82
g4009
sg75
(lp4016
S'author'
p4017
asbag68
(g89
g70
NtRp4018
(dp4019
g73
(dp4020
g100
g101
ssg82
g4009
sg75
(lp4021
S':'
asbag68
(g89
g70
NtRp4022
(dp4023
g73
(dp4024
sg82
g4009
sg75
(lp4025
g68
(g69
g70
NtRp4026
(dp4027
g73
(dp4028
g81
I4
ssg82
g4022
sg75
(lp4029
S'Your Name <you@example.com>'
p4030
asbasbasbag68
(g84
g70
NtRp4031
(dp4032
g73
(dp4033
sg82
g4005
sg75
(lp4034
g68
(g89
g70
NtRp4035
(dp4036
g73
(dp4037
g93
g94
ssg82
g4031
sg75
(lp4038
S'copyright'
p4039
asbag68
(g89
g70
NtRp4040
(dp4041
g73
(dp4042
g100
g101
ssg82
g4031
sg75
(lp4043
S':'
asbag68
(g89
g70
NtRp4044
(dp4045
g73
(dp4046
sg82
g4031
sg75
(lp4047
g68
(g69
g70
NtRp4048
(dp4049
g73
(dp4050
g81
I4
ssg82
g4044
sg75
(lp4051
S'Copyright 2011'
p4052
asbasbasbag68
(g84
g70
NtRp4053
(dp4054
g73
(dp4055
sg82
g4005
sg75
(lp4056
g68
(g89
g70
NtRp4057
(dp4058
g73
(dp4059
g93
g94
ssg82
g4053
sg75
(lp4060
S'description'
p4061
asbag68
(g89
g70
NtRp4062
(dp4063
g73
(dp4064
g100
g101
ssg82
g4053
sg75
(lp4065
S':'
asbag68
(g89
g70
NtRp4066
(dp4067
g73
(dp4068
sg82
g4053
sg75
(lp4069
g68
(g69
g70
NtRp4070
(dp4071
g73
(dp4072
g81
I4
ssg82
g4066
sg75
(lp4073
S'a cool new app'
p4074
asbasbasbag68
(g84
g70
NtRp4075
(dp4076
g73
(dp4077
sg82
g4005
sg75
(lp4078
g68
(g89
g70
NtRp4079
(dp4080
g73
(dp4081
g93
g94
ssg82
g4075
sg75
(lp4082
S'generator'
p4083
asbag68
(g89
g70
NtRp4084
(dp4085
g73
(dp4086
g100
g101
ssg82
g4075
sg75
(lp4087
S':'
asbag68
(g89
g70
NtRp4088
(dp4089
g73
(dp4090
sg82
g4075
sg75
(lp4091
g68
(g69
g70
NtRp4092
(dp4093
g73
(dp4094
g81
I4
ssg82
g4088
sg75
(lp4095
S'Web2py Web Framework'
p4096
asbasbasbag68
(g84
g70
NtRp4097
(dp4098
g73
(dp4099
sg82
g4005
sg75
(lp4100
g68
(g89
g70
NtRp4101
(dp4102
g73
(dp4103
g93
g94
ssg82
g4097
sg75
(lp4104
S'keywords'
p4105
asbag68
(g89
g70
NtRp4106
(dp4107
g73
(dp4108
g100
g101
ssg82
g4097
sg75
(lp4109
S':'
asbag68
(g89
g70
NtRp4110
(dp4111
g73
(dp4112
sg82
g4097
sg75
(lp4113
g68
(g69
g70
NtRp4114
(dp4115
g73
(dp4116
g81
I4
ssg82
g4110
sg75
(lp4117
S'web2py, python, framework'
p4118
asbasbasbasbasbasbasbag68
(g84
g70
NtRp4119
(dp4120
g73
(dp4121
sg82
g2859
sg75
(lp4122
g68
(g89
g70
NtRp4123
(dp4124
g73
(dp4125
g93
g94
ssg82
g4119
sg75
(lp4126
S'postprocessing'
p4127
asbag68
(g89
g70
NtRp4128
(dp4129
g73
(dp4130
g100
g101
ssg82
g4119
sg75
(lp4131
S':'
asbag68
(g89
g70
NtRp4132
(dp4133
g73
(dp4134
sg82
g4119
sg75
(lp4135
g68
(g69
g70
NtRp4136
(dp4137
g73
(dp4138
g81
I5
ssg82
g4132
sg75
(lp4139
g68
(g77
g70
NtRp4140
(dp4141
g73
(dp4142
g81
I4
ssg82
Nsg75
(lp4143
sbasbasbasbag68
(g84
g70
NtRp4144
(dp4145
g73
(dp4146
sg82
g2859
sg75
(lp4147
g68
(g89
g70
NtRp4148
(dp4149
g73
(dp4150
g93
g94
ssg82
g4144
sg75
(lp4151
S'session_filename'
p4152
asbag68
(g89
g70
NtRp4153
(dp4154
g73
(dp4155
g100
g101
ssg82
g4144
sg75
(lp4156
S':'
asbag68
(g89
g70
NtRp4157
(dp4158
g73
(dp4159
sg82
g4144
sg75
(lp4160
g68
(g69
g70
NtRp4161
(dp4162
g73
(dp4163
g81
I5
ssg82
g4157
sg75
(lp4164
S'/home/ranganath/web2py/applications/Hadoop/sessions/127.0.0.1-4c08c7b6-35e8-4a94-ad31-62b0168fc2fe'
p4165
asbasbasbag68
(g84
g70
NtRp4166
(dp4167
g73
(dp4168
sg82
g2859
sg75
(lp4169
g68
(g89
g70
NtRp4170
(dp4171
g73
(dp4172
g93
g94
ssg82
g4166
sg75
(lp4173
S'session_id'
p4174
asbag68
(g89
g70
NtRp4175
(dp4176
g73
(dp4177
g100
g101
ssg82
g4166
sg75
(lp4178
S':'
asbag68
(g89
g70
NtRp4179
(dp4180
g73
(dp4181
sg82
g4166
sg75
(lp4182
g68
(g69
g70
NtRp4183
(dp4184
g73
(dp4185
g81
I5
ssg82
g4179
sg75
(lp4186
S'127.0.0.1-4c08c7b6-35e8-4a94-ad31-62b0168fc2fe'
p4187
asbasbasbag68
(g84
g70
NtRp4188
(dp4189
g73
(dp4190
sg82
g2859
sg75
(lp4191
g68
(g89
g70
NtRp4192
(dp4193
g73
(dp4194
g93
g94
ssg82
g4188
sg75
(lp4195
S'session_id_name'
p4196
asbag68
(g89
g70
NtRp4197
(dp4198
g73
(dp4199
g100
g101
ssg82
g4188
sg75
(lp4200
S':'
asbag68
(g89
g70
NtRp4201
(dp4202
g73
(dp4203
sg82
g4188
sg75
(lp4204
g68
(g69
g70
NtRp4205
(dp4206
g73
(dp4207
g81
I5
ssg82
g4201
sg75
(lp4208
g2916
asbasbasbag68
(g84
g70
NtRp4209
(dp4210
g73
(dp4211
sg82
g2859
sg75
(lp4212
g68
(g89
g70
NtRp4213
(dp4214
g73
(dp4215
g93
g94
ssg82
g4209
sg75
(lp4216
S'session_new'
p4217
asbag68
(g89
g70
NtRp4218
(dp4219
g73
(dp4220
g100
g101
ssg82
g4209
sg75
(lp4221
S':'
asbag68
(g89
g70
NtRp4222
(dp4223
g73
(dp4224
sg82
g4209
sg75
(lp4225
g68
(g69
g70
NtRp4226
(dp4227
g73
(dp4228
g81
I5
ssg82
g4222
sg75
(lp4229
g1482
asbasbasbag68
(g84
g70
NtRp4230
(dp4231
g73
(dp4232
sg82
g2859
sg75
(lp4233
g68
(g89
g70
NtRp4234
(dp4235
g73
(dp4236
g93
g94
ssg82
g4230
sg75
(lp4237
S'status'
p4238
asbag68
(g89
g70
NtRp4239
(dp4240
g73
(dp4241
g100
g101
ssg82
g4230
sg75
(lp4242
S':'
asbag68
(g89
g70
NtRp4243
(dp4244
g73
(dp4245
sg82
g4230
sg75
(lp4246
g68
(g69
g70
NtRp4247
(dp4248
g73
(dp4249
g81
I5
ssg82
g4243
sg75
(lp4250
S'200'
p4251
asbasbasbag68
(g84
g70
NtRp4252
(dp4253
g73
(dp4254
sg82
g2859
sg75
(lp4255
g68
(g89
g70
NtRp4256
(dp4257
g73
(dp4258
g93
g94
ssg82
g4252
sg75
(lp4259
S'subtitle'
p4260
asbag68
(g89
g70
NtRp4261
(dp4262
g73
(dp4263
g100
g101
ssg82
g4252
sg75
(lp4264
S':'
asbag68
(g89
g70
NtRp4265
(dp4266
g73
(dp4267
sg82
g4252
sg75
(lp4268
g68
(g69
g70
NtRp4269
(dp4270
g73
(dp4271
g81
I5
ssg82
g4265
sg75
(lp4272
g3364
(S's\r\x00\x00\x00customize me!'
tRp4273
asbasbasbag68
(g84
g70
NtRp4274
(dp4275
g73
(dp4276
sg82
g2859
sg75
(lp4277
g68
(g89
g70
NtRp4278
(dp4279
g73
(dp4280
g93
g94
ssg82
g4274
sg75
(lp4281
S'title'
p4282
asbag68
(g89
g70
NtRp4283
(dp4284
g73
(dp4285
g100
g101
ssg82
g4274
sg75
(lp4286
S':'
asbag68
(g89
g70
NtRp4287
(dp4288
g73
(dp4289
sg82
g4274
sg75
(lp4290
g68
(g69
g70
NtRp4291
(dp4292
g73
(dp4293
g81
I5
ssg82
g4287
sg75
(lp4294
S'Hadoop'
p4295
asbasbasbag68
(g84
g70
NtRp4296
(dp4297
g73
(dp4298
sg82
g2859
sg75
(lp4299
g68
(g89
g70
NtRp4300
(dp4301
g73
(dp4302
g93
g94
ssg82
g4296
sg75
(lp4303
g2146
asbag68
(g89
g70
NtRp4304
(dp4305
g73
(dp4306
g100
g101
ssg82
g4296
sg75
(lp4307
S':'
asbag68
(g89
g70
NtRp4308
(dp4309
g73
(dp4310
sg82
g4296
sg75
(lp4311
g68
(g69
g70
NtRp4312
(dp4313
g73
(dp4314
g81
I5
ssg82
g4308
sg75
(lp4315
g2159
asbasbasbag68
(g84
g70
NtRp4316
(dp4317
g73
(dp4318
sg82
g2859
sg75
(lp4319
g68
(g89
g70
NtRp4320
(dp4321
g73
(dp4322
g93
g94
ssg82
g4316
sg75
(lp4323
S'view'
p4324
asbag68
(g89
g70
NtRp4325
(dp4326
g73
(dp4327
g100
g101
ssg82
g4316
sg75
(lp4328
S':'
asbag68
(g89
g70
NtRp4329
(dp4330
g73
(dp4331
sg82
g4316
sg75
(lp4332
g68
(g69
g70
NtRp4333
(dp4334
g73
(dp4335
g81
I5
ssg82
g4329
sg75
(lp4336
S'default/main.html'
p4337
asbasbasbasbasbsS'locals'
p4338
(dp4339
g4
S"'/home/ranganath/web2py/applications/Hadoop/views/default/main.html'"
p4340
sg6
S'r"response.write(\'<!DOCTYPE html>\\n<!-- paulirish....ponse.write(\'\\n</body>\\n</html>\\n\', escape=False)"'
p4341
sssS'traceback'
p4342
S'Traceback (most recent call last):\n  File "/usr/lib/pymodules/python2.7/gluon/restricted.py", line 203, in restricted\n    ccode = compile2(code,layer)\n  File "/usr/lib/pymodules/python2.7/gluon/restricted.py", line 189, in compile2\n    return compile(code.rstrip().replace(\'\\r\\n\',\'\\n\')+\'\\n\', layer, \'exec\')\n  File "/home/ranganath/web2py/applications/Hadoop/views/default/main.html", line 76\n    path= "\\"\n            ^\nSyntaxError: EOL while scanning string literal\n'
p4343
s.