(dp1
S'output'
p2
S"<type 'exceptions.NameError'> name 'posvars' is not defined"
p3
sS'layer'
p4
S'/home/hduser/web2py/applications/Hadoop/views/default/action.html'
p5
sS'code'
p6
S"response.write('<h1>This is the default/action.html template</h1>\\n\\n</br>\\n\\n', escape=False)\nresponse.write(posvars)\nresponse.write('</br>\\n', escape=False)\nitems = ['a', 'b', 'c']\nresponse.write('\\n<ul>\\n', escape=False)\nfor item in items:\n    response.write('<li>', escape=False)\n    response.write(item)\n    response.write('</li>', escape=False)\n    pass\nresponse.write('\\n</ul>\\n', escape=False)"
p7
sS'snapshot'
p8
(dp9
S'exception'
p10
(dp11
S'__hash__'
p12
S"<method-wrapper '__hash__' of exceptions.NameError object>"
p13
sS'__setattr__'
p14
S"<method-wrapper '__setattr__' of exceptions.NameError object>"
p15
sS'__reduce_ex__'
p16
S'<built-in method __reduce_ex__ of exceptions.NameError object>'
p17
sS'__getslice__'
p18
S"<method-wrapper '__getslice__' of exceptions.NameError object>"
p19
sS'__getitem__'
p20
S"<method-wrapper '__getitem__' of exceptions.NameError object>"
p21
sS'__setstate__'
p22
S'<built-in method __setstate__ of exceptions.NameError object>'
p23
sS'args'
p24
S'("name \'posvars\' is not defined",)'
p25
sS'__reduce__'
p26
S'<built-in method __reduce__ of exceptions.NameError object>'
p27
sS'__str__'
p28
S"<method-wrapper '__str__' of exceptions.NameError object>"
p29
sS'__format__'
p30
S'<built-in method __format__ of exceptions.NameError object>'
p31
sS'__getattribute__'
p32
S"<method-wrapper '__getattribute__' of exceptions.NameError object>"
p33
sS'__class__'
p34
S"<type 'exceptions.NameError'>"
p35
sS'__unicode__'
p36
S'<built-in method __unicode__ of exceptions.NameError object>'
p37
sS'__delattr__'
p38
S"<method-wrapper '__delattr__' of exceptions.NameError object>"
p39
sS'__subclasshook__'
p40
S'<built-in method __subclasshook__ of type object>'
p41
sS'__repr__'
p42
S"<method-wrapper '__repr__' of exceptions.NameError object>"
p43
sS'__dict__'
p44
S'{}'
p45
sS'__sizeof__'
p46
S'<built-in method __sizeof__ of exceptions.NameError object>'
p47
sS'__doc__'
p48
S"'Name not found globally.'"
p49
sS'__init__'
p50
S"<method-wrapper '__init__' of exceptions.NameError object>"
p51
sS'__new__'
p52
S'<built-in method __new__ of type object>'
p53
ssS'evalue'
p54
S"name 'posvars' is not defined"
p55
sS'request'
p56
ccopy_reg
_reconstructor
p57
(cgluon.html
BEAUTIFY
p58
c__builtin__
object
p59
NtRp60
(dp61
S'attributes'
p62
(dp63
sS'components'
p64
(lp65
g57
(cgluon.html
TABLE
p66
g59
NtRp67
(dp68
g62
(dp69
S'level'
p70
I5
ssS'parent'
p71
Nsg64
(lp72
g57
(cgluon.html
TR
p73
g59
NtRp74
(dp75
g62
(dp76
sg71
g67
sg64
(lp77
g57
(cgluon.html
TD
p78
g59
NtRp79
(dp80
g62
(dp81
S'_style'
p82
S'font-weight:bold;vertical-align:top'
p83
ssg71
g74
sg64
(lp84
S'ajax'
p85
asbag57
(g78
g59
NtRp86
(dp87
g62
(dp88
S'_valign'
p89
S'top'
p90
ssg71
g74
sg64
(lp91
S':'
asbag57
(g78
g59
NtRp92
(dp93
g62
(dp94
sg71
g74
sg64
(lp95
g57
(g58
g59
NtRp96
(dp97
g62
(dp98
g70
I5
ssg71
g92
sg64
(lp99
S'False'
p100
asbasbasbag57
(g73
g59
NtRp101
(dp102
g62
(dp103
sg71
g67
sg64
(lp104
g57
(g78
g59
NtRp105
(dp106
g62
(dp107
g82
g83
ssg71
g101
sg64
(lp108
S'application'
p109
asbag57
(g78
g59
NtRp110
(dp111
g62
(dp112
g89
g90
ssg71
g101
sg64
(lp113
S':'
asbag57
(g78
g59
NtRp114
(dp115
g62
(dp116
sg71
g101
sg64
(lp117
g57
(g58
g59
NtRp118
(dp119
g62
(dp120
g70
I5
ssg71
g114
sg64
(lp121
S'Hadoop'
p122
asbasbasbag57
(g73
g59
NtRp123
(dp124
g62
(dp125
sg71
g67
sg64
(lp126
g57
(g78
g59
NtRp127
(dp128
g62
(dp129
g82
g83
ssg71
g123
sg64
(lp130
g24
asbag57
(g78
g59
NtRp131
(dp132
g62
(dp133
g89
g90
ssg71
g123
sg64
(lp134
S':'
asbag57
(g78
g59
NtRp135
(dp136
g62
(dp137
sg71
g123
sg64
(lp138
g57
(g58
g59
NtRp139
(dp140
g62
(dp141
g70
I5
ssg71
g135
sg64
(lp142
g57
(g66
g59
NtRp143
(dp144
g62
(dp145
g70
I4
ssg71
Nsg64
(lp146
sbasbasbasbag57
(g73
g59
NtRp147
(dp148
g62
(dp149
sg71
g67
sg64
(lp150
g57
(g78
g59
NtRp151
(dp152
g62
(dp153
g82
g83
ssg71
g147
sg64
(lp154
S'body'
p155
asbag57
(g78
g59
NtRp156
(dp157
g62
(dp158
g89
g90
ssg71
g147
sg64
(lp159
S':'
asbag57
(g78
g59
NtRp160
(dp161
g62
(dp162
sg71
g147
sg64
(lp163
g57
(g58
g59
NtRp164
(dp165
g62
(dp166
g70
I5
ssg71
g160
sg64
(lp167
S"<open file '<fdopen>', mode 'w+b' at 0x7fc7040ca6f0>"
p168
asbasbasbag57
(g73
g59
NtRp169
(dp170
g62
(dp171
sg71
g67
sg64
(lp172
g57
(g78
g59
NtRp173
(dp174
g62
(dp175
g82
g83
ssg71
g169
sg64
(lp176
S'client'
p177
asbag57
(g78
g59
NtRp178
(dp179
g62
(dp180
g89
g90
ssg71
g169
sg64
(lp181
S':'
asbag57
(g78
g59
NtRp182
(dp183
g62
(dp184
sg71
g169
sg64
(lp185
g57
(g58
g59
NtRp186
(dp187
g62
(dp188
g70
I5
ssg71
g182
sg64
(lp189
S'127.0.0.1'
p190
asbasbasbag57
(g73
g59
NtRp191
(dp192
g62
(dp193
sg71
g67
sg64
(lp194
g57
(g78
g59
NtRp195
(dp196
g62
(dp197
g82
g83
ssg71
g191
sg64
(lp198
S'controller'
p199
asbag57
(g78
g59
NtRp200
(dp201
g62
(dp202
g89
g90
ssg71
g191
sg64
(lp203
S':'
asbag57
(g78
g59
NtRp204
(dp205
g62
(dp206
sg71
g191
sg64
(lp207
g57
(g58
g59
NtRp208
(dp209
g62
(dp210
g70
I5
ssg71
g204
sg64
(lp211
S'default'
p212
asbasbasbag57
(g73
g59
NtRp213
(dp214
g62
(dp215
sg71
g67
sg64
(lp216
g57
(g78
g59
NtRp217
(dp218
g62
(dp219
g82
g83
ssg71
g213
sg64
(lp220
S'cookies'
p221
asbag57
(g78
g59
NtRp222
(dp223
g62
(dp224
g89
g90
ssg71
g213
sg64
(lp225
S':'
asbag57
(g78
g59
NtRp226
(dp227
g62
(dp228
sg71
g213
sg64
(lp229
g57
(g58
g59
NtRp230
(dp231
g62
(dp232
g70
I5
ssg71
g226
sg64
(lp233
g57
(g66
g59
NtRp234
(dp235
g62
(dp236
g70
I4
ssg71
Nsg64
(lp237
g57
(g73
g59
NtRp238
(dp239
g62
(dp240
sg71
g234
sg64
(lp241
g57
(g78
g59
NtRp242
(dp243
g62
(dp244
g82
g83
ssg71
g238
sg64
(lp245
S'session_id_admin'
p246
asbag57
(g78
g59
NtRp247
(dp248
g62
(dp249
g89
g90
ssg71
g238
sg64
(lp250
S':'
asbag57
(g78
g59
NtRp251
(dp252
g62
(dp253
sg71
g238
sg64
(lp254
g57
(g58
g59
NtRp255
(dp256
g62
(dp257
g70
I4
ssg71
g251
sg64
(lp258
g57
(g66
g59
NtRp259
(dp260
g62
(dp261
g70
I3
ssg71
Nsg64
(lp262
g57
(g73
g59
NtRp263
(dp264
g62
(dp265
sg71
g259
sg64
(lp266
g57
(g78
g59
NtRp267
(dp268
g62
(dp269
g82
g83
ssg71
g263
sg64
(lp270
S'comment'
p271
asbag57
(g78
g59
NtRp272
(dp273
g62
(dp274
g89
g90
ssg71
g263
sg64
(lp275
S':'
asbag57
(g78
g59
NtRp276
(dp277
g62
(dp278
sg71
g263
sg64
(lp279
g57
(g58
g59
NtRp280
(dp281
g62
(dp282
g70
I3
ssg71
g276
sg64
(lp283
S''
asbasbasbag57
(g73
g59
NtRp284
(dp285
g62
(dp286
sg71
g259
sg64
(lp287
g57
(g78
g59
NtRp288
(dp289
g62
(dp290
g82
g83
ssg71
g284
sg64
(lp291
S'domain'
p292
asbag57
(g78
g59
NtRp293
(dp294
g62
(dp295
g89
g90
ssg71
g284
sg64
(lp296
S':'
asbag57
(g78
g59
NtRp297
(dp298
g62
(dp299
sg71
g284
sg64
(lp300
g57
(g58
g59
NtRp301
(dp302
g62
(dp303
g70
I3
ssg71
g297
sg64
(lp304
S''
asbasbasbag57
(g73
g59
NtRp305
(dp306
g62
(dp307
sg71
g259
sg64
(lp308
g57
(g78
g59
NtRp309
(dp310
g62
(dp311
g82
g83
ssg71
g305
sg64
(lp312
S'expires'
p313
asbag57
(g78
g59
NtRp314
(dp315
g62
(dp316
g89
g90
ssg71
g305
sg64
(lp317
S':'
asbag57
(g78
g59
NtRp318
(dp319
g62
(dp320
sg71
g305
sg64
(lp321
g57
(g58
g59
NtRp322
(dp323
g62
(dp324
g70
I3
ssg71
g318
sg64
(lp325
S''
asbasbasbag57
(g73
g59
NtRp326
(dp327
g62
(dp328
sg71
g259
sg64
(lp329
g57
(g78
g59
NtRp330
(dp331
g62
(dp332
g82
g83
ssg71
g326
sg64
(lp333
S'httponly'
p334
asbag57
(g78
g59
NtRp335
(dp336
g62
(dp337
g89
g90
ssg71
g326
sg64
(lp338
S':'
asbag57
(g78
g59
NtRp339
(dp340
g62
(dp341
sg71
g326
sg64
(lp342
g57
(g58
g59
NtRp343
(dp344
g62
(dp345
g70
I3
ssg71
g339
sg64
(lp346
S''
asbasbasbag57
(g73
g59
NtRp347
(dp348
g62
(dp349
sg71
g259
sg64
(lp350
g57
(g78
g59
NtRp351
(dp352
g62
(dp353
g82
g83
ssg71
g347
sg64
(lp354
S'max-age'
p355
asbag57
(g78
g59
NtRp356
(dp357
g62
(dp358
g89
g90
ssg71
g347
sg64
(lp359
S':'
asbag57
(g78
g59
NtRp360
(dp361
g62
(dp362
sg71
g347
sg64
(lp363
g57
(g58
g59
NtRp364
(dp365
g62
(dp366
g70
I3
ssg71
g360
sg64
(lp367
S''
asbasbasbag57
(g73
g59
NtRp368
(dp369
g62
(dp370
sg71
g259
sg64
(lp371
g57
(g78
g59
NtRp372
(dp373
g62
(dp374
g82
g83
ssg71
g368
sg64
(lp375
S'path'
p376
asbag57
(g78
g59
NtRp377
(dp378
g62
(dp379
g89
g90
ssg71
g368
sg64
(lp380
S':'
asbag57
(g78
g59
NtRp381
(dp382
g62
(dp383
sg71
g368
sg64
(lp384
g57
(g58
g59
NtRp385
(dp386
g62
(dp387
g70
I3
ssg71
g381
sg64
(lp388
S''
asbasbasbag57
(g73
g59
NtRp389
(dp390
g62
(dp391
sg71
g259
sg64
(lp392
g57
(g78
g59
NtRp393
(dp394
g62
(dp395
g82
g83
ssg71
g389
sg64
(lp396
S'secure'
p397
asbag57
(g78
g59
NtRp398
(dp399
g62
(dp400
g89
g90
ssg71
g389
sg64
(lp401
S':'
asbag57
(g78
g59
NtRp402
(dp403
g62
(dp404
sg71
g389
sg64
(lp405
g57
(g58
g59
NtRp406
(dp407
g62
(dp408
g70
I3
ssg71
g402
sg64
(lp409
S''
asbasbasbag57
(g73
g59
NtRp410
(dp411
g62
(dp412
sg71
g259
sg64
(lp413
g57
(g78
g59
NtRp414
(dp415
g62
(dp416
g82
g83
ssg71
g410
sg64
(lp417
S'version'
p418
asbag57
(g78
g59
NtRp419
(dp420
g62
(dp421
g89
g90
ssg71
g410
sg64
(lp422
S':'
asbag57
(g78
g59
NtRp423
(dp424
g62
(dp425
sg71
g410
sg64
(lp426
g57
(g58
g59
NtRp427
(dp428
g62
(dp429
g70
I3
ssg71
g423
sg64
(lp430
S''
asbasbasbasbasbasbasbag57
(g73
g59
NtRp431
(dp432
g62
(dp433
sg71
g234
sg64
(lp434
g57
(g78
g59
NtRp435
(dp436
g62
(dp437
g82
g83
ssg71
g431
sg64
(lp438
S'session_id_hadoop'
p439
asbag57
(g78
g59
NtRp440
(dp441
g62
(dp442
g89
g90
ssg71
g431
sg64
(lp443
S':'
asbag57
(g78
g59
NtRp444
(dp445
g62
(dp446
sg71
g431
sg64
(lp447
g57
(g58
g59
NtRp448
(dp449
g62
(dp450
g70
I4
ssg71
g444
sg64
(lp451
g57
(g66
g59
NtRp452
(dp453
g62
(dp454
g70
I3
ssg71
Nsg64
(lp455
g57
(g73
g59
NtRp456
(dp457
g62
(dp458
sg71
g452
sg64
(lp459
g57
(g78
g59
NtRp460
(dp461
g62
(dp462
g82
g83
ssg71
g456
sg64
(lp463
g271
asbag57
(g78
g59
NtRp464
(dp465
g62
(dp466
g89
g90
ssg71
g456
sg64
(lp467
S':'
asbag57
(g78
g59
NtRp468
(dp469
g62
(dp470
sg71
g456
sg64
(lp471
g57
(g58
g59
NtRp472
(dp473
g62
(dp474
g70
I3
ssg71
g468
sg64
(lp475
S''
asbasbasbag57
(g73
g59
NtRp476
(dp477
g62
(dp478
sg71
g452
sg64
(lp479
g57
(g78
g59
NtRp480
(dp481
g62
(dp482
g82
g83
ssg71
g476
sg64
(lp483
g292
asbag57
(g78
g59
NtRp484
(dp485
g62
(dp486
g89
g90
ssg71
g476
sg64
(lp487
S':'
asbag57
(g78
g59
NtRp488
(dp489
g62
(dp490
sg71
g476
sg64
(lp491
g57
(g58
g59
NtRp492
(dp493
g62
(dp494
g70
I3
ssg71
g488
sg64
(lp495
S''
asbasbasbag57
(g73
g59
NtRp496
(dp497
g62
(dp498
sg71
g452
sg64
(lp499
g57
(g78
g59
NtRp500
(dp501
g62
(dp502
g82
g83
ssg71
g496
sg64
(lp503
g313
asbag57
(g78
g59
NtRp504
(dp505
g62
(dp506
g89
g90
ssg71
g496
sg64
(lp507
S':'
asbag57
(g78
g59
NtRp508
(dp509
g62
(dp510
sg71
g496
sg64
(lp511
g57
(g58
g59
NtRp512
(dp513
g62
(dp514
g70
I3
ssg71
g508
sg64
(lp515
S''
asbasbasbag57
(g73
g59
NtRp516
(dp517
g62
(dp518
sg71
g452
sg64
(lp519
g57
(g78
g59
NtRp520
(dp521
g62
(dp522
g82
g83
ssg71
g516
sg64
(lp523
g334
asbag57
(g78
g59
NtRp524
(dp525
g62
(dp526
g89
g90
ssg71
g516
sg64
(lp527
S':'
asbag57
(g78
g59
NtRp528
(dp529
g62
(dp530
sg71
g516
sg64
(lp531
g57
(g58
g59
NtRp532
(dp533
g62
(dp534
g70
I3
ssg71
g528
sg64
(lp535
S''
asbasbasbag57
(g73
g59
NtRp536
(dp537
g62
(dp538
sg71
g452
sg64
(lp539
g57
(g78
g59
NtRp540
(dp541
g62
(dp542
g82
g83
ssg71
g536
sg64
(lp543
g355
asbag57
(g78
g59
NtRp544
(dp545
g62
(dp546
g89
g90
ssg71
g536
sg64
(lp547
S':'
asbag57
(g78
g59
NtRp548
(dp549
g62
(dp550
sg71
g536
sg64
(lp551
g57
(g58
g59
NtRp552
(dp553
g62
(dp554
g70
I3
ssg71
g548
sg64
(lp555
S''
asbasbasbag57
(g73
g59
NtRp556
(dp557
g62
(dp558
sg71
g452
sg64
(lp559
g57
(g78
g59
NtRp560
(dp561
g62
(dp562
g82
g83
ssg71
g556
sg64
(lp563
g376
asbag57
(g78
g59
NtRp564
(dp565
g62
(dp566
g89
g90
ssg71
g556
sg64
(lp567
S':'
asbag57
(g78
g59
NtRp568
(dp569
g62
(dp570
sg71
g556
sg64
(lp571
g57
(g58
g59
NtRp572
(dp573
g62
(dp574
g70
I3
ssg71
g568
sg64
(lp575
S''
asbasbasbag57
(g73
g59
NtRp576
(dp577
g62
(dp578
sg71
g452
sg64
(lp579
g57
(g78
g59
NtRp580
(dp581
g62
(dp582
g82
g83
ssg71
g576
sg64
(lp583
g397
asbag57
(g78
g59
NtRp584
(dp585
g62
(dp586
g89
g90
ssg71
g576
sg64
(lp587
S':'
asbag57
(g78
g59
NtRp588
(dp589
g62
(dp590
sg71
g576
sg64
(lp591
g57
(g58
g59
NtRp592
(dp593
g62
(dp594
g70
I3
ssg71
g588
sg64
(lp595
S''
asbasbasbag57
(g73
g59
NtRp596
(dp597
g62
(dp598
sg71
g452
sg64
(lp599
g57
(g78
g59
NtRp600
(dp601
g62
(dp602
g82
g83
ssg71
g596
sg64
(lp603
g418
asbag57
(g78
g59
NtRp604
(dp605
g62
(dp606
g89
g90
ssg71
g596
sg64
(lp607
S':'
asbag57
(g78
g59
NtRp608
(dp609
g62
(dp610
sg71
g596
sg64
(lp611
g57
(g58
g59
NtRp612
(dp613
g62
(dp614
g70
I3
ssg71
g608
sg64
(lp615
S''
asbasbasbasbasbasbasbag57
(g73
g59
NtRp616
(dp617
g62
(dp618
sg71
g234
sg64
(lp619
g57
(g78
g59
NtRp620
(dp621
g62
(dp622
g82
g83
ssg71
g616
sg64
(lp623
S'session_id_welcome'
p624
asbag57
(g78
g59
NtRp625
(dp626
g62
(dp627
g89
g90
ssg71
g616
sg64
(lp628
S':'
asbag57
(g78
g59
NtRp629
(dp630
g62
(dp631
sg71
g616
sg64
(lp632
g57
(g58
g59
NtRp633
(dp634
g62
(dp635
g70
I4
ssg71
g629
sg64
(lp636
g57
(g66
g59
NtRp637
(dp638
g62
(dp639
g70
I3
ssg71
Nsg64
(lp640
g57
(g73
g59
NtRp641
(dp642
g62
(dp643
sg71
g637
sg64
(lp644
g57
(g78
g59
NtRp645
(dp646
g62
(dp647
g82
g83
ssg71
g641
sg64
(lp648
g271
asbag57
(g78
g59
NtRp649
(dp650
g62
(dp651
g89
g90
ssg71
g641
sg64
(lp652
S':'
asbag57
(g78
g59
NtRp653
(dp654
g62
(dp655
sg71
g641
sg64
(lp656
g57
(g58
g59
NtRp657
(dp658
g62
(dp659
g70
I3
ssg71
g653
sg64
(lp660
S''
asbasbasbag57
(g73
g59
NtRp661
(dp662
g62
(dp663
sg71
g637
sg64
(lp664
g57
(g78
g59
NtRp665
(dp666
g62
(dp667
g82
g83
ssg71
g661
sg64
(lp668
g292
asbag57
(g78
g59
NtRp669
(dp670
g62
(dp671
g89
g90
ssg71
g661
sg64
(lp672
S':'
asbag57
(g78
g59
NtRp673
(dp674
g62
(dp675
sg71
g661
sg64
(lp676
g57
(g58
g59
NtRp677
(dp678
g62
(dp679
g70
I3
ssg71
g673
sg64
(lp680
S''
asbasbasbag57
(g73
g59
NtRp681
(dp682
g62
(dp683
sg71
g637
sg64
(lp684
g57
(g78
g59
NtRp685
(dp686
g62
(dp687
g82
g83
ssg71
g681
sg64
(lp688
g313
asbag57
(g78
g59
NtRp689
(dp690
g62
(dp691
g89
g90
ssg71
g681
sg64
(lp692
S':'
asbag57
(g78
g59
NtRp693
(dp694
g62
(dp695
sg71
g681
sg64
(lp696
g57
(g58
g59
NtRp697
(dp698
g62
(dp699
g70
I3
ssg71
g693
sg64
(lp700
S''
asbasbasbag57
(g73
g59
NtRp701
(dp702
g62
(dp703
sg71
g637
sg64
(lp704
g57
(g78
g59
NtRp705
(dp706
g62
(dp707
g82
g83
ssg71
g701
sg64
(lp708
g334
asbag57
(g78
g59
NtRp709
(dp710
g62
(dp711
g89
g90
ssg71
g701
sg64
(lp712
S':'
asbag57
(g78
g59
NtRp713
(dp714
g62
(dp715
sg71
g701
sg64
(lp716
g57
(g58
g59
NtRp717
(dp718
g62
(dp719
g70
I3
ssg71
g713
sg64
(lp720
S''
asbasbasbag57
(g73
g59
NtRp721
(dp722
g62
(dp723
sg71
g637
sg64
(lp724
g57
(g78
g59
NtRp725
(dp726
g62
(dp727
g82
g83
ssg71
g721
sg64
(lp728
g355
asbag57
(g78
g59
NtRp729
(dp730
g62
(dp731
g89
g90
ssg71
g721
sg64
(lp732
S':'
asbag57
(g78
g59
NtRp733
(dp734
g62
(dp735
sg71
g721
sg64
(lp736
g57
(g58
g59
NtRp737
(dp738
g62
(dp739
g70
I3
ssg71
g733
sg64
(lp740
S''
asbasbasbag57
(g73
g59
NtRp741
(dp742
g62
(dp743
sg71
g637
sg64
(lp744
g57
(g78
g59
NtRp745
(dp746
g62
(dp747
g82
g83
ssg71
g741
sg64
(lp748
g376
asbag57
(g78
g59
NtRp749
(dp750
g62
(dp751
g89
g90
ssg71
g741
sg64
(lp752
S':'
asbag57
(g78
g59
NtRp753
(dp754
g62
(dp755
sg71
g741
sg64
(lp756
g57
(g58
g59
NtRp757
(dp758
g62
(dp759
g70
I3
ssg71
g753
sg64
(lp760
S''
asbasbasbag57
(g73
g59
NtRp761
(dp762
g62
(dp763
sg71
g637
sg64
(lp764
g57
(g78
g59
NtRp765
(dp766
g62
(dp767
g82
g83
ssg71
g761
sg64
(lp768
g397
asbag57
(g78
g59
NtRp769
(dp770
g62
(dp771
g89
g90
ssg71
g761
sg64
(lp772
S':'
asbag57
(g78
g59
NtRp773
(dp774
g62
(dp775
sg71
g761
sg64
(lp776
g57
(g58
g59
NtRp777
(dp778
g62
(dp779
g70
I3
ssg71
g773
sg64
(lp780
S''
asbasbasbag57
(g73
g59
NtRp781
(dp782
g62
(dp783
sg71
g637
sg64
(lp784
g57
(g78
g59
NtRp785
(dp786
g62
(dp787
g82
g83
ssg71
g781
sg64
(lp788
g418
asbag57
(g78
g59
NtRp789
(dp790
g62
(dp791
g89
g90
ssg71
g781
sg64
(lp792
S':'
asbag57
(g78
g59
NtRp793
(dp794
g62
(dp795
sg71
g781
sg64
(lp796
g57
(g58
g59
NtRp797
(dp798
g62
(dp799
g70
I3
ssg71
g793
sg64
(lp800
S''
asbasbasbasbasbasbasbasbasbasbasbag57
(g73
g59
NtRp801
(dp802
g62
(dp803
sg71
g67
sg64
(lp804
g57
(g78
g59
NtRp805
(dp806
g62
(dp807
g82
g83
ssg71
g801
sg64
(lp808
S'env'
p809
asbag57
(g78
g59
NtRp810
(dp811
g62
(dp812
g89
g90
ssg71
g801
sg64
(lp813
S':'
asbag57
(g78
g59
NtRp814
(dp815
g62
(dp816
sg71
g801
sg64
(lp817
g57
(g58
g59
NtRp818
(dp819
g62
(dp820
g70
I5
ssg71
g814
sg64
(lp821
g57
(g66
g59
NtRp822
(dp823
g62
(dp824
g70
I4
ssg71
Nsg64
(lp825
g57
(g73
g59
NtRp826
(dp827
g62
(dp828
sg71
g822
sg64
(lp829
g57
(g78
g59
NtRp830
(dp831
g62
(dp832
g82
g83
ssg71
g826
sg64
(lp833
S'app_folders'
p834
asbag57
(g78
g59
NtRp835
(dp836
g62
(dp837
g89
g90
ssg71
g826
sg64
(lp838
S':'
asbag57
(g78
g59
NtRp839
(dp840
g62
(dp841
sg71
g826
sg64
(lp842
g57
(g58
g59
NtRp843
(dp844
g62
(dp845
g70
I4
ssg71
g839
sg64
(lp846
S"set(['/home/hduser/web2py/applications/admin/', '/home/hduser/web2py/applications/welcome/', '/home/hduser/web2py/applications/Hadoop/'])"
p847
asbasbasbag57
(g73
g59
NtRp848
(dp849
g62
(dp850
sg71
g822
sg64
(lp851
g57
(g78
g59
NtRp852
(dp853
g62
(dp854
g82
g83
ssg71
g848
sg64
(lp855
S'applications_parent'
p856
asbag57
(g78
g59
NtRp857
(dp858
g62
(dp859
g89
g90
ssg71
g848
sg64
(lp860
S':'
asbag57
(g78
g59
NtRp861
(dp862
g62
(dp863
sg71
g848
sg64
(lp864
g57
(g58
g59
NtRp865
(dp866
g62
(dp867
g70
I4
ssg71
g861
sg64
(lp868
S'/home/hduser/web2py'
p869
asbasbasbag57
(g73
g59
NtRp870
(dp871
g62
(dp872
sg71
g822
sg64
(lp873
g57
(g78
g59
NtRp874
(dp875
g62
(dp876
g82
g83
ssg71
g870
sg64
(lp877
S'cmd_args'
p878
asbag57
(g78
g59
NtRp879
(dp880
g62
(dp881
g89
g90
ssg71
g870
sg64
(lp882
S':'
asbag57
(g78
g59
NtRp883
(dp884
g62
(dp885
sg71
g870
sg64
(lp886
g57
(g58
g59
NtRp887
(dp888
g62
(dp889
g70
I4
ssg71
g883
sg64
(lp890
g57
(g66
g59
NtRp891
(dp892
g62
(dp893
g70
I3
ssg71
Nsg64
(lp894
sbasbasbasbag57
(g73
g59
NtRp895
(dp896
g62
(dp897
sg71
g822
sg64
(lp898
g57
(g78
g59
NtRp899
(dp900
g62
(dp901
g82
g83
ssg71
g895
sg64
(lp902
S'cmd_options'
p903
asbag57
(g78
g59
NtRp904
(dp905
g62
(dp906
g89
g90
ssg71
g895
sg64
(lp907
S':'
asbag57
(g78
g59
NtRp908
(dp909
g62
(dp910
sg71
g895
sg64
(lp911
g57
(g58
g59
NtRp912
(dp913
g62
(dp914
g70
I4
ssg71
g908
sg64
(lp915
S"<Values at 0x1934248: {'verbose': False, 'ip': '127.0.0.1', 'shutdown_timeout': 5, 'taskbar': False, 'port': 8000, 'maxthreads': None, 'softcron': False, 'server_name': 'Dell-XPS', 'bpython': False, 'nogui': False, 'nocron': False, 'extcron': False, 'debuglevel': 30, 'test': None, 'folder': '/home/hduser/web2py', 'config': '', 'import_models': False, 'winservice': '', 'shell': None, 'run': '', 'log_filename': 'httpserver.log', 'args': [''], 'socket_timeout': 1, 'profiler_filename': None, 'ssl_private_key': '', 'password': '<ask>', 'request_queue_size': 5, 'ssl_certificate': '', 'cronjob': False, 'plain': False, 'quiet': False, 'interfaces': None, 'minthreads': None, 'timeout': 10, 'numthreads': None, 'nobanner': False, 'pid_filename': 'httpserver.pid'}>"
p916
asbasbasbag57
(g73
g59
NtRp917
(dp918
g62
(dp919
sg71
g822
sg64
(lp920
g57
(g78
g59
NtRp921
(dp922
g62
(dp923
g82
g83
ssg71
g917
sg64
(lp924
S'content_length'
p925
asbag57
(g78
g59
NtRp926
(dp927
g62
(dp928
g89
g90
ssg71
g917
sg64
(lp929
S':'
asbag57
(g78
g59
NtRp930
(dp931
g62
(dp932
sg71
g917
sg64
(lp933
g57
(g58
g59
NtRp934
(dp935
g62
(dp936
g70
I4
ssg71
g930
sg64
(lp937
S'2190'
p938
asbasbasbag57
(g73
g59
NtRp939
(dp940
g62
(dp941
sg71
g822
sg64
(lp942
g57
(g78
g59
NtRp943
(dp944
g62
(dp945
g82
g83
ssg71
g939
sg64
(lp946
S'content_type'
p947
asbag57
(g78
g59
NtRp948
(dp949
g62
(dp950
g89
g90
ssg71
g939
sg64
(lp951
S':'
asbag57
(g78
g59
NtRp952
(dp953
g62
(dp954
sg71
g939
sg64
(lp955
g57
(g58
g59
NtRp956
(dp957
g62
(dp958
g70
I4
ssg71
g952
sg64
(lp959
S'multipart/form-data; boundary=----WebKitFormBoundaryOww1OIhTSzhAMty1'
p960
asbasbasbag57
(g73
g59
NtRp961
(dp962
g62
(dp963
sg71
g822
sg64
(lp964
g57
(g78
g59
NtRp965
(dp966
g62
(dp967
g82
g83
ssg71
g961
sg64
(lp968
S'db_sessions'
p969
asbag57
(g78
g59
NtRp970
(dp971
g62
(dp972
g89
g90
ssg71
g961
sg64
(lp973
S':'
asbag57
(g78
g59
NtRp974
(dp975
g62
(dp976
sg71
g961
sg64
(lp977
g57
(g58
g59
NtRp978
(dp979
g62
(dp980
g70
I4
ssg71
g974
sg64
(lp981
S'set([])'
p982
asbasbasbag57
(g73
g59
NtRp983
(dp984
g62
(dp985
sg71
g822
sg64
(lp986
g57
(g78
g59
NtRp987
(dp988
g62
(dp989
g82
g83
ssg71
g983
sg64
(lp990
S'debugging'
p991
asbag57
(g78
g59
NtRp992
(dp993
g62
(dp994
g89
g90
ssg71
g983
sg64
(lp995
S':'
asbag57
(g78
g59
NtRp996
(dp997
g62
(dp998
sg71
g983
sg64
(lp999
g57
(g58
g59
NtRp1000
(dp1001
g62
(dp1002
g70
I4
ssg71
g996
sg64
(lp1003
g100
asbasbasbag57
(g73
g59
NtRp1004
(dp1005
g62
(dp1006
sg71
g822
sg64
(lp1007
g57
(g78
g59
NtRp1008
(dp1009
g62
(dp1010
g82
g83
ssg71
g1004
sg64
(lp1011
S'gluon_parent'
p1012
asbag57
(g78
g59
NtRp1013
(dp1014
g62
(dp1015
g89
g90
ssg71
g1004
sg64
(lp1016
S':'
asbag57
(g78
g59
NtRp1017
(dp1018
g62
(dp1019
sg71
g1004
sg64
(lp1020
g57
(g58
g59
NtRp1021
(dp1022
g62
(dp1023
g70
I4
ssg71
g1017
sg64
(lp1024
S'/usr/share/web2py'
p1025
asbasbasbag57
(g73
g59
NtRp1026
(dp1027
g62
(dp1028
sg71
g822
sg64
(lp1029
g57
(g78
g59
NtRp1030
(dp1031
g62
(dp1032
g82
g83
ssg71
g1026
sg64
(lp1033
S'http_accept'
p1034
asbag57
(g78
g59
NtRp1035
(dp1036
g62
(dp1037
g89
g90
ssg71
g1026
sg64
(lp1038
S':'
asbag57
(g78
g59
NtRp1039
(dp1040
g62
(dp1041
sg71
g1026
sg64
(lp1042
g57
(g58
g59
NtRp1043
(dp1044
g62
(dp1045
g70
I4
ssg71
g1039
sg64
(lp1046
S'text/html,application/xhtml+xml,application/xml;q=0.9,image/webp,*/*;q=0.8'
p1047
asbasbasbag57
(g73
g59
NtRp1048
(dp1049
g62
(dp1050
sg71
g822
sg64
(lp1051
g57
(g78
g59
NtRp1052
(dp1053
g62
(dp1054
g82
g83
ssg71
g1048
sg64
(lp1055
S'http_accept_encoding'
p1056
asbag57
(g78
g59
NtRp1057
(dp1058
g62
(dp1059
g89
g90
ssg71
g1048
sg64
(lp1060
S':'
asbag57
(g78
g59
NtRp1061
(dp1062
g62
(dp1063
sg71
g1048
sg64
(lp1064
g57
(g58
g59
NtRp1065
(dp1066
g62
(dp1067
g70
I4
ssg71
g1061
sg64
(lp1068
S'gzip,deflate,sdch'
p1069
asbasbasbag57
(g73
g59
NtRp1070
(dp1071
g62
(dp1072
sg71
g822
sg64
(lp1073
g57
(g78
g59
NtRp1074
(dp1075
g62
(dp1076
g82
g83
ssg71
g1070
sg64
(lp1077
S'http_accept_language'
p1078
asbag57
(g78
g59
NtRp1079
(dp1080
g62
(dp1081
g89
g90
ssg71
g1070
sg64
(lp1082
S':'
asbag57
(g78
g59
NtRp1083
(dp1084
g62
(dp1085
sg71
g1070
sg64
(lp1086
g57
(g58
g59
NtRp1087
(dp1088
g62
(dp1089
g70
I4
ssg71
g1083
sg64
(lp1090
S'en-US,en;q=0.8'
p1091
asbasbasbag57
(g73
g59
NtRp1092
(dp1093
g62
(dp1094
sg71
g822
sg64
(lp1095
g57
(g78
g59
NtRp1096
(dp1097
g62
(dp1098
g82
g83
ssg71
g1092
sg64
(lp1099
S'http_cache_control'
p1100
asbag57
(g78
g59
NtRp1101
(dp1102
g62
(dp1103
g89
g90
ssg71
g1092
sg64
(lp1104
S':'
asbag57
(g78
g59
NtRp1105
(dp1106
g62
(dp1107
sg71
g1092
sg64
(lp1108
g57
(g58
g59
NtRp1109
(dp1110
g62
(dp1111
g70
I4
ssg71
g1105
sg64
(lp1112
S'max-age=0'
p1113
asbasbasbag57
(g73
g59
NtRp1114
(dp1115
g62
(dp1116
sg71
g822
sg64
(lp1117
g57
(g78
g59
NtRp1118
(dp1119
g62
(dp1120
g82
g83
ssg71
g1114
sg64
(lp1121
S'http_connection'
p1122
asbag57
(g78
g59
NtRp1123
(dp1124
g62
(dp1125
g89
g90
ssg71
g1114
sg64
(lp1126
S':'
asbag57
(g78
g59
NtRp1127
(dp1128
g62
(dp1129
sg71
g1114
sg64
(lp1130
g57
(g58
g59
NtRp1131
(dp1132
g62
(dp1133
g70
I4
ssg71
g1127
sg64
(lp1134
S'keep-alive'
p1135
asbasbasbag57
(g73
g59
NtRp1136
(dp1137
g62
(dp1138
sg71
g822
sg64
(lp1139
g57
(g78
g59
NtRp1140
(dp1141
g62
(dp1142
g82
g83
ssg71
g1136
sg64
(lp1143
S'http_content_length'
p1144
asbag57
(g78
g59
NtRp1145
(dp1146
g62
(dp1147
g89
g90
ssg71
g1136
sg64
(lp1148
S':'
asbag57
(g78
g59
NtRp1149
(dp1150
g62
(dp1151
sg71
g1136
sg64
(lp1152
g57
(g58
g59
NtRp1153
(dp1154
g62
(dp1155
g70
I4
ssg71
g1149
sg64
(lp1156
g938
asbasbasbag57
(g73
g59
NtRp1157
(dp1158
g62
(dp1159
sg71
g822
sg64
(lp1160
g57
(g78
g59
NtRp1161
(dp1162
g62
(dp1163
g82
g83
ssg71
g1157
sg64
(lp1164
S'http_content_type'
p1165
asbag57
(g78
g59
NtRp1166
(dp1167
g62
(dp1168
g89
g90
ssg71
g1157
sg64
(lp1169
S':'
asbag57
(g78
g59
NtRp1170
(dp1171
g62
(dp1172
sg71
g1157
sg64
(lp1173
g57
(g58
g59
NtRp1174
(dp1175
g62
(dp1176
g70
I4
ssg71
g1170
sg64
(lp1177
g960
asbasbasbag57
(g73
g59
NtRp1178
(dp1179
g62
(dp1180
sg71
g822
sg64
(lp1181
g57
(g78
g59
NtRp1182
(dp1183
g62
(dp1184
g82
g83
ssg71
g1178
sg64
(lp1185
S'http_cookie'
p1186
asbag57
(g78
g59
NtRp1187
(dp1188
g62
(dp1189
g89
g90
ssg71
g1178
sg64
(lp1190
S':'
asbag57
(g78
g59
NtRp1191
(dp1192
g62
(dp1193
sg71
g1178
sg64
(lp1194
g57
(g58
g59
NtRp1195
(dp1196
g62
(dp1197
g70
I4
ssg71
g1191
sg64
(lp1198
S'session_id_welcome=127.0.0.1-55941c45-ed57-4c56-a75c-4808508643b0; session_id_admin=127.0.0.1-62ad8e86-dd0f-4b42-aac2-39bd7f9fd427; session_id_hadoop=127.0.0.1-97903a88-f198-4805-b4b9-82e62b67a9b6'
p1199
asbasbasbag57
(g73
g59
NtRp1200
(dp1201
g62
(dp1202
sg71
g822
sg64
(lp1203
g57
(g78
g59
NtRp1204
(dp1205
g62
(dp1206
g82
g83
ssg71
g1200
sg64
(lp1207
S'http_host'
p1208
asbag57
(g78
g59
NtRp1209
(dp1210
g62
(dp1211
g89
g90
ssg71
g1200
sg64
(lp1212
S':'
asbag57
(g78
g59
NtRp1213
(dp1214
g62
(dp1215
sg71
g1200
sg64
(lp1216
g57
(g58
g59
NtRp1217
(dp1218
g62
(dp1219
g70
I4
ssg71
g1213
sg64
(lp1220
S'127.0.0.1:8000'
p1221
asbasbasbag57
(g73
g59
NtRp1222
(dp1223
g62
(dp1224
sg71
g822
sg64
(lp1225
g57
(g78
g59
NtRp1226
(dp1227
g62
(dp1228
g82
g83
ssg71
g1222
sg64
(lp1229
S'http_origin'
p1230
asbag57
(g78
g59
NtRp1231
(dp1232
g62
(dp1233
g89
g90
ssg71
g1222
sg64
(lp1234
S':'
asbag57
(g78
g59
NtRp1235
(dp1236
g62
(dp1237
sg71
g1222
sg64
(lp1238
g57
(g58
g59
NtRp1239
(dp1240
g62
(dp1241
g70
I4
ssg71
g1235
sg64
(lp1242
S'http://127.0.0.1:8000'
p1243
asbasbasbag57
(g73
g59
NtRp1244
(dp1245
g62
(dp1246
sg71
g822
sg64
(lp1247
g57
(g78
g59
NtRp1248
(dp1249
g62
(dp1250
g82
g83
ssg71
g1244
sg64
(lp1251
S'http_referer'
p1252
asbag57
(g78
g59
NtRp1253
(dp1254
g62
(dp1255
g89
g90
ssg71
g1244
sg64
(lp1256
S':'
asbag57
(g78
g59
NtRp1257
(dp1258
g62
(dp1259
sg71
g1244
sg64
(lp1260
g57
(g58
g59
NtRp1261
(dp1262
g62
(dp1263
g70
I4
ssg71
g1257
sg64
(lp1264
S'http://127.0.0.1:8000/Hadoop/default/main'
p1265
asbasbasbag57
(g73
g59
NtRp1266
(dp1267
g62
(dp1268
sg71
g822
sg64
(lp1269
g57
(g78
g59
NtRp1270
(dp1271
g62
(dp1272
g82
g83
ssg71
g1266
sg64
(lp1273
S'http_user_agent'
p1274
asbag57
(g78
g59
NtRp1275
(dp1276
g62
(dp1277
g89
g90
ssg71
g1266
sg64
(lp1278
S':'
asbag57
(g78
g59
NtRp1279
(dp1280
g62
(dp1281
sg71
g1266
sg64
(lp1282
g57
(g58
g59
NtRp1283
(dp1284
g62
(dp1285
g70
I4
ssg71
g1279
sg64
(lp1286
S'Mozilla/5.0 (X11; Linux x86_64) AppleWebKit/537.36 (KHTML, like Gecko) Chrome/32.0.1700.77 Safari/537.36'
p1287
asbasbasbag57
(g73
g59
NtRp1288
(dp1289
g62
(dp1290
sg71
g822
sg64
(lp1291
g57
(g78
g59
NtRp1292
(dp1293
g62
(dp1294
g82
g83
ssg71
g1288
sg64
(lp1295
S'is_jython'
p1296
asbag57
(g78
g59
NtRp1297
(dp1298
g62
(dp1299
g89
g90
ssg71
g1288
sg64
(lp1300
S':'
asbag57
(g78
g59
NtRp1301
(dp1302
g62
(dp1303
sg71
g1288
sg64
(lp1304
g57
(g58
g59
NtRp1305
(dp1306
g62
(dp1307
g70
I4
ssg71
g1301
sg64
(lp1308
g100
asbasbasbag57
(g73
g59
NtRp1309
(dp1310
g62
(dp1311
sg71
g822
sg64
(lp1312
g57
(g78
g59
NtRp1313
(dp1314
g62
(dp1315
g82
g83
ssg71
g1309
sg64
(lp1316
S'is_pypy'
p1317
asbag57
(g78
g59
NtRp1318
(dp1319
g62
(dp1320
g89
g90
ssg71
g1309
sg64
(lp1321
S':'
asbag57
(g78
g59
NtRp1322
(dp1323
g62
(dp1324
sg71
g1309
sg64
(lp1325
g57
(g58
g59
NtRp1326
(dp1327
g62
(dp1328
g70
I4
ssg71
g1322
sg64
(lp1329
g100
asbasbasbag57
(g73
g59
NtRp1330
(dp1331
g62
(dp1332
sg71
g822
sg64
(lp1333
g57
(g78
g59
NtRp1334
(dp1335
g62
(dp1336
g82
g83
ssg71
g1330
sg64
(lp1337
S'path_info'
p1338
asbag57
(g78
g59
NtRp1339
(dp1340
g62
(dp1341
g89
g90
ssg71
g1330
sg64
(lp1342
S':'
asbag57
(g78
g59
NtRp1343
(dp1344
g62
(dp1345
sg71
g1330
sg64
(lp1346
g57
(g58
g59
NtRp1347
(dp1348
g62
(dp1349
g70
I4
ssg71
g1343
sg64
(lp1350
S'/Hadoop/default/action'
p1351
asbasbasbag57
(g73
g59
NtRp1352
(dp1353
g62
(dp1354
sg71
g822
sg64
(lp1355
g57
(g78
g59
NtRp1356
(dp1357
g62
(dp1358
g82
g83
ssg71
g1352
sg64
(lp1359
S'query_string'
p1360
asbag57
(g78
g59
NtRp1361
(dp1362
g62
(dp1363
g89
g90
ssg71
g1352
sg64
(lp1364
S':'
asbag57
(g78
g59
NtRp1365
(dp1366
g62
(dp1367
sg71
g1352
sg64
(lp1368
g57
(g58
g59
NtRp1369
(dp1370
g62
(dp1371
g70
I4
ssg71
g1365
sg64
(lp1372
S''
asbasbasbag57
(g73
g59
NtRp1373
(dp1374
g62
(dp1375
sg71
g822
sg64
(lp1376
g57
(g78
g59
NtRp1377
(dp1378
g62
(dp1379
g82
g83
ssg71
g1373
sg64
(lp1380
S'remote_addr'
p1381
asbag57
(g78
g59
NtRp1382
(dp1383
g62
(dp1384
g89
g90
ssg71
g1373
sg64
(lp1385
S':'
asbag57
(g78
g59
NtRp1386
(dp1387
g62
(dp1388
sg71
g1373
sg64
(lp1389
g57
(g58
g59
NtRp1390
(dp1391
g62
(dp1392
g70
I4
ssg71
g1386
sg64
(lp1393
g190
asbasbasbag57
(g73
g59
NtRp1394
(dp1395
g62
(dp1396
sg71
g822
sg64
(lp1397
g57
(g78
g59
NtRp1398
(dp1399
g62
(dp1400
g82
g83
ssg71
g1394
sg64
(lp1401
S'remote_port'
p1402
asbag57
(g78
g59
NtRp1403
(dp1404
g62
(dp1405
g89
g90
ssg71
g1394
sg64
(lp1406
S':'
asbag57
(g78
g59
NtRp1407
(dp1408
g62
(dp1409
sg71
g1394
sg64
(lp1410
g57
(g58
g59
NtRp1411
(dp1412
g62
(dp1413
g70
I4
ssg71
g1407
sg64
(lp1414
S'48269'
p1415
asbasbasbag57
(g73
g59
NtRp1416
(dp1417
g62
(dp1418
sg71
g822
sg64
(lp1419
g57
(g78
g59
NtRp1420
(dp1421
g62
(dp1422
g82
g83
ssg71
g1416
sg64
(lp1423
S'request_method'
p1424
asbag57
(g78
g59
NtRp1425
(dp1426
g62
(dp1427
g89
g90
ssg71
g1416
sg64
(lp1428
S':'
asbag57
(g78
g59
NtRp1429
(dp1430
g62
(dp1431
sg71
g1416
sg64
(lp1432
g57
(g58
g59
NtRp1433
(dp1434
g62
(dp1435
g70
I4
ssg71
g1429
sg64
(lp1436
S'POST'
p1437
asbasbasbag57
(g73
g59
NtRp1438
(dp1439
g62
(dp1440
sg71
g822
sg64
(lp1441
g57
(g78
g59
NtRp1442
(dp1443
g62
(dp1444
g82
g83
ssg71
g1438
sg64
(lp1445
S'script_name'
p1446
asbag57
(g78
g59
NtRp1447
(dp1448
g62
(dp1449
g89
g90
ssg71
g1438
sg64
(lp1450
S':'
asbag57
(g78
g59
NtRp1451
(dp1452
g62
(dp1453
sg71
g1438
sg64
(lp1454
g57
(g58
g59
NtRp1455
(dp1456
g62
(dp1457
g70
I4
ssg71
g1451
sg64
(lp1458
S''
asbasbasbag57
(g73
g59
NtRp1459
(dp1460
g62
(dp1461
sg71
g822
sg64
(lp1462
g57
(g78
g59
NtRp1463
(dp1464
g62
(dp1465
g82
g83
ssg71
g1459
sg64
(lp1466
S'server_name'
p1467
asbag57
(g78
g59
NtRp1468
(dp1469
g62
(dp1470
g89
g90
ssg71
g1459
sg64
(lp1471
S':'
asbag57
(g78
g59
NtRp1472
(dp1473
g62
(dp1474
sg71
g1459
sg64
(lp1475
g57
(g58
g59
NtRp1476
(dp1477
g62
(dp1478
g70
I4
ssg71
g1472
sg64
(lp1479
S'Dell-XPS'
p1480
asbasbasbag57
(g73
g59
NtRp1481
(dp1482
g62
(dp1483
sg71
g822
sg64
(lp1484
g57
(g78
g59
NtRp1485
(dp1486
g62
(dp1487
g82
g83
ssg71
g1481
sg64
(lp1488
S'server_port'
p1489
asbag57
(g78
g59
NtRp1490
(dp1491
g62
(dp1492
g89
g90
ssg71
g1481
sg64
(lp1493
S':'
asbag57
(g78
g59
NtRp1494
(dp1495
g62
(dp1496
sg71
g1481
sg64
(lp1497
g57
(g58
g59
NtRp1498
(dp1499
g62
(dp1500
g70
I4
ssg71
g1494
sg64
(lp1501
S'8000'
p1502
asbasbasbag57
(g73
g59
NtRp1503
(dp1504
g62
(dp1505
sg71
g822
sg64
(lp1506
g57
(g78
g59
NtRp1507
(dp1508
g62
(dp1509
g82
g83
ssg71
g1503
sg64
(lp1510
S'server_protocol'
p1511
asbag57
(g78
g59
NtRp1512
(dp1513
g62
(dp1514
g89
g90
ssg71
g1503
sg64
(lp1515
S':'
asbag57
(g78
g59
NtRp1516
(dp1517
g62
(dp1518
sg71
g1503
sg64
(lp1519
g57
(g58
g59
NtRp1520
(dp1521
g62
(dp1522
g70
I4
ssg71
g1516
sg64
(lp1523
S'HTTP/1.1'
p1524
asbasbasbag57
(g73
g59
NtRp1525
(dp1526
g62
(dp1527
sg71
g822
sg64
(lp1528
g57
(g78
g59
NtRp1529
(dp1530
g62
(dp1531
g82
g83
ssg71
g1525
sg64
(lp1532
S'server_software'
p1533
asbag57
(g78
g59
NtRp1534
(dp1535
g62
(dp1536
g89
g90
ssg71
g1525
sg64
(lp1537
S':'
asbag57
(g78
g59
NtRp1538
(dp1539
g62
(dp1540
sg71
g1525
sg64
(lp1541
g57
(g58
g59
NtRp1542
(dp1543
g62
(dp1544
g70
I4
ssg71
g1538
sg64
(lp1545
S'Rocket 1.2.4'
p1546
asbasbasbag57
(g73
g59
NtRp1547
(dp1548
g62
(dp1549
sg71
g822
sg64
(lp1550
g57
(g78
g59
NtRp1551
(dp1552
g62
(dp1553
g82
g83
ssg71
g1547
sg64
(lp1554
S'web2py_crontype'
p1555
asbag57
(g78
g59
NtRp1556
(dp1557
g62
(dp1558
g89
g90
ssg71
g1547
sg64
(lp1559
S':'
asbag57
(g78
g59
NtRp1560
(dp1561
g62
(dp1562
sg71
g1547
sg64
(lp1563
g57
(g58
g59
NtRp1564
(dp1565
g62
(dp1566
g70
I4
ssg71
g1560
sg64
(lp1567
S'hard'
p1568
asbasbasbag57
(g73
g59
NtRp1569
(dp1570
g62
(dp1571
sg71
g822
sg64
(lp1572
g57
(g78
g59
NtRp1573
(dp1574
g62
(dp1575
g82
g83
ssg71
g1569
sg64
(lp1576
S'web2py_path'
p1577
asbag57
(g78
g59
NtRp1578
(dp1579
g62
(dp1580
g89
g90
ssg71
g1569
sg64
(lp1581
S':'
asbag57
(g78
g59
NtRp1582
(dp1583
g62
(dp1584
sg71
g1569
sg64
(lp1585
g57
(g58
g59
NtRp1586
(dp1587
g62
(dp1588
g70
I4
ssg71
g1582
sg64
(lp1589
g869
asbasbasbag57
(g73
g59
NtRp1590
(dp1591
g62
(dp1592
sg71
g822
sg64
(lp1593
g57
(g78
g59
NtRp1594
(dp1595
g62
(dp1596
g82
g83
ssg71
g1590
sg64
(lp1597
S'web2py_version'
p1598
asbag57
(g78
g59
NtRp1599
(dp1600
g62
(dp1601
g89
g90
ssg71
g1590
sg64
(lp1602
S':'
asbag57
(g78
g59
NtRp1603
(dp1604
g62
(dp1605
sg71
g1590
sg64
(lp1606
g57
(g58
g59
NtRp1607
(dp1608
g62
(dp1609
g70
I4
ssg71
g1603
sg64
(lp1610
g57
(g66
g59
NtRp1611
(dp1612
g62
(dp1613
g70
I3
ssg71
Nsg64
(lp1614
g57
(g73
g59
NtRp1615
(dp1616
g62
(dp1617
sg71
g1611
sg64
(lp1618
g57
(g78
g59
NtRp1619
(dp1620
g62
(dp1621
sg71
g1615
sg64
(lp1622
g57
(g58
g59
NtRp1623
(dp1624
g62
(dp1625
g70
I3
ssg71
g1619
sg64
(lp1626
S'1'
asbasbasbag57
(g73
g59
NtRp1627
(dp1628
g62
(dp1629
sg71
g1611
sg64
(lp1630
g57
(g78
g59
NtRp1631
(dp1632
g62
(dp1633
sg71
g1627
sg64
(lp1634
g57
(g58
g59
NtRp1635
(dp1636
g62
(dp1637
g70
I3
ssg71
g1631
sg64
(lp1638
S'99'
p1639
asbasbasbag57
(g73
g59
NtRp1640
(dp1641
g62
(dp1642
sg71
g1611
sg64
(lp1643
g57
(g78
g59
NtRp1644
(dp1645
g62
(dp1646
sg71
g1640
sg64
(lp1647
g57
(g58
g59
NtRp1648
(dp1649
g62
(dp1650
g70
I3
ssg71
g1644
sg64
(lp1651
S'4'
asbasbasbag57
(g73
g59
NtRp1652
(dp1653
g62
(dp1654
sg71
g1611
sg64
(lp1655
g57
(g78
g59
NtRp1656
(dp1657
g62
(dp1658
sg71
g1652
sg64
(lp1659
g57
(g58
g59
NtRp1660
(dp1661
g62
(dp1662
g70
I3
ssg71
g1656
sg64
(lp1663
S'datetime.datetime(2011, 12, 14, 14, 46, 14)'
p1664
asbasbasbag57
(g73
g59
NtRp1665
(dp1666
g62
(dp1667
sg71
g1611
sg64
(lp1668
g57
(g78
g59
NtRp1669
(dp1670
g62
(dp1671
sg71
g1665
sg64
(lp1672
g57
(g58
g59
NtRp1673
(dp1674
g62
(dp1675
g70
I3
ssg71
g1669
sg64
(lp1676
S'stable'
p1677
asbasbasbasbasbasbasbag57
(g73
g59
NtRp1678
(dp1679
g62
(dp1680
sg71
g822
sg64
(lp1681
g57
(g78
g59
NtRp1682
(dp1683
g62
(dp1684
g82
g83
ssg71
g1678
sg64
(lp1685
S'wsgi_errors'
p1686
asbag57
(g78
g59
NtRp1687
(dp1688
g62
(dp1689
g89
g90
ssg71
g1678
sg64
(lp1690
S':'
asbag57
(g78
g59
NtRp1691
(dp1692
g62
(dp1693
sg71
g1678
sg64
(lp1694
g57
(g58
g59
NtRp1695
(dp1696
g62
(dp1697
g70
I4
ssg71
g1691
sg64
(lp1698
S"<open file '<stderr>', mode 'w' at 0x7fc745470270>"
p1699
asbasbasbag57
(g73
g59
NtRp1700
(dp1701
g62
(dp1702
sg71
g822
sg64
(lp1703
g57
(g78
g59
NtRp1704
(dp1705
g62
(dp1706
g82
g83
ssg71
g1700
sg64
(lp1707
S'wsgi_file_wrapper'
p1708
asbag57
(g78
g59
NtRp1709
(dp1710
g62
(dp1711
g89
g90
ssg71
g1700
sg64
(lp1712
S':'
asbag57
(g78
g59
NtRp1713
(dp1714
g62
(dp1715
sg71
g1700
sg64
(lp1716
g57
(g58
g59
NtRp1717
(dp1718
g62
(dp1719
g70
I4
ssg71
g1713
sg64
(lp1720
S'<class wsgiref.util.FileWrapper at 0x187a258>'
p1721
asbasbasbag57
(g73
g59
NtRp1722
(dp1723
g62
(dp1724
sg71
g822
sg64
(lp1725
g57
(g78
g59
NtRp1726
(dp1727
g62
(dp1728
g82
g83
ssg71
g1722
sg64
(lp1729
S'wsgi_input'
p1730
asbag57
(g78
g59
NtRp1731
(dp1732
g62
(dp1733
g89
g90
ssg71
g1722
sg64
(lp1734
S':'
asbag57
(g78
g59
NtRp1735
(dp1736
g62
(dp1737
sg71
g1722
sg64
(lp1738
g57
(g58
g59
NtRp1739
(dp1740
g62
(dp1741
g70
I4
ssg71
g1735
sg64
(lp1742
S'<socket._fileobject object at 0x7fc6f43457d0>'
p1743
asbasbasbag57
(g73
g59
NtRp1744
(dp1745
g62
(dp1746
sg71
g822
sg64
(lp1747
g57
(g78
g59
NtRp1748
(dp1749
g62
(dp1750
g82
g83
ssg71
g1744
sg64
(lp1751
S'wsgi_multiprocess'
p1752
asbag57
(g78
g59
NtRp1753
(dp1754
g62
(dp1755
g89
g90
ssg71
g1744
sg64
(lp1756
S':'
asbag57
(g78
g59
NtRp1757
(dp1758
g62
(dp1759
sg71
g1744
sg64
(lp1760
g57
(g58
g59
NtRp1761
(dp1762
g62
(dp1763
g70
I4
ssg71
g1757
sg64
(lp1764
g100
asbasbasbag57
(g73
g59
NtRp1765
(dp1766
g62
(dp1767
sg71
g822
sg64
(lp1768
g57
(g78
g59
NtRp1769
(dp1770
g62
(dp1771
g82
g83
ssg71
g1765
sg64
(lp1772
S'wsgi_multithread'
p1773
asbag57
(g78
g59
NtRp1774
(dp1775
g62
(dp1776
g89
g90
ssg71
g1765
sg64
(lp1777
S':'
asbag57
(g78
g59
NtRp1778
(dp1779
g62
(dp1780
sg71
g1765
sg64
(lp1781
g57
(g58
g59
NtRp1782
(dp1783
g62
(dp1784
g70
I4
ssg71
g1778
sg64
(lp1785
S'True'
p1786
asbasbasbag57
(g73
g59
NtRp1787
(dp1788
g62
(dp1789
sg71
g822
sg64
(lp1790
g57
(g78
g59
NtRp1791
(dp1792
g62
(dp1793
g82
g83
ssg71
g1787
sg64
(lp1794
S'wsgi_run_once'
p1795
asbag57
(g78
g59
NtRp1796
(dp1797
g62
(dp1798
g89
g90
ssg71
g1787
sg64
(lp1799
S':'
asbag57
(g78
g59
NtRp1800
(dp1801
g62
(dp1802
sg71
g1787
sg64
(lp1803
g57
(g58
g59
NtRp1804
(dp1805
g62
(dp1806
g70
I4
ssg71
g1800
sg64
(lp1807
g100
asbasbasbag57
(g73
g59
NtRp1808
(dp1809
g62
(dp1810
sg71
g822
sg64
(lp1811
g57
(g78
g59
NtRp1812
(dp1813
g62
(dp1814
g82
g83
ssg71
g1808
sg64
(lp1815
S'wsgi_url_scheme'
p1816
asbag57
(g78
g59
NtRp1817
(dp1818
g62
(dp1819
g89
g90
ssg71
g1808
sg64
(lp1820
S':'
asbag57
(g78
g59
NtRp1821
(dp1822
g62
(dp1823
sg71
g1808
sg64
(lp1824
g57
(g58
g59
NtRp1825
(dp1826
g62
(dp1827
g70
I4
ssg71
g1821
sg64
(lp1828
S'http'
p1829
asbasbasbag57
(g73
g59
NtRp1830
(dp1831
g62
(dp1832
sg71
g822
sg64
(lp1833
g57
(g78
g59
NtRp1834
(dp1835
g62
(dp1836
g82
g83
ssg71
g1830
sg64
(lp1837
S'wsgi_version'
p1838
asbag57
(g78
g59
NtRp1839
(dp1840
g62
(dp1841
g89
g90
ssg71
g1830
sg64
(lp1842
S':'
asbag57
(g78
g59
NtRp1843
(dp1844
g62
(dp1845
sg71
g1830
sg64
(lp1846
g57
(g58
g59
NtRp1847
(dp1848
g62
(dp1849
g70
I4
ssg71
g1843
sg64
(lp1850
g57
(g66
g59
NtRp1851
(dp1852
g62
(dp1853
g70
I3
ssg71
Nsg64
(lp1854
g57
(g73
g59
NtRp1855
(dp1856
g62
(dp1857
sg71
g1851
sg64
(lp1858
g57
(g78
g59
NtRp1859
(dp1860
g62
(dp1861
sg71
g1855
sg64
(lp1862
g57
(g58
g59
NtRp1863
(dp1864
g62
(dp1865
g70
I3
ssg71
g1859
sg64
(lp1866
S'1'
asbasbasbag57
(g73
g59
NtRp1867
(dp1868
g62
(dp1869
sg71
g1851
sg64
(lp1870
g57
(g78
g59
NtRp1871
(dp1872
g62
(dp1873
sg71
g1867
sg64
(lp1874
g57
(g58
g59
NtRp1875
(dp1876
g62
(dp1877
g70
I3
ssg71
g1871
sg64
(lp1878
S'0'
asbasbasbasbasbasbasbasbasbasbasbag57
(g73
g59
NtRp1879
(dp1880
g62
(dp1881
sg71
g67
sg64
(lp1882
g57
(g78
g59
NtRp1883
(dp1884
g62
(dp1885
g82
g83
ssg71
g1879
sg64
(lp1886
S'extension'
p1887
asbag57
(g78
g59
NtRp1888
(dp1889
g62
(dp1890
g89
g90
ssg71
g1879
sg64
(lp1891
S':'
asbag57
(g78
g59
NtRp1892
(dp1893
g62
(dp1894
sg71
g1879
sg64
(lp1895
g57
(g58
g59
NtRp1896
(dp1897
g62
(dp1898
g70
I5
ssg71
g1892
sg64
(lp1899
S'html'
p1900
asbasbasbag57
(g73
g59
NtRp1901
(dp1902
g62
(dp1903
sg71
g67
sg64
(lp1904
g57
(g78
g59
NtRp1905
(dp1906
g62
(dp1907
g82
g83
ssg71
g1901
sg64
(lp1908
S'folder'
p1909
asbag57
(g78
g59
NtRp1910
(dp1911
g62
(dp1912
g89
g90
ssg71
g1901
sg64
(lp1913
S':'
asbag57
(g78
g59
NtRp1914
(dp1915
g62
(dp1916
sg71
g1901
sg64
(lp1917
g57
(g58
g59
NtRp1918
(dp1919
g62
(dp1920
g70
I5
ssg71
g1914
sg64
(lp1921
S'/home/hduser/web2py/applications/Hadoop/'
p1922
asbasbasbag57
(g73
g59
NtRp1923
(dp1924
g62
(dp1925
sg71
g67
sg64
(lp1926
g57
(g78
g59
NtRp1927
(dp1928
g62
(dp1929
g82
g83
ssg71
g1923
sg64
(lp1930
S'function'
p1931
asbag57
(g78
g59
NtRp1932
(dp1933
g62
(dp1934
g89
g90
ssg71
g1923
sg64
(lp1935
S':'
asbag57
(g78
g59
NtRp1936
(dp1937
g62
(dp1938
sg71
g1923
sg64
(lp1939
g57
(g58
g59
NtRp1940
(dp1941
g62
(dp1942
g70
I5
ssg71
g1936
sg64
(lp1943
S'action'
p1944
asbasbasbag57
(g73
g59
NtRp1945
(dp1946
g62
(dp1947
sg71
g67
sg64
(lp1948
g57
(g78
g59
NtRp1949
(dp1950
g62
(dp1951
g82
g83
ssg71
g1945
sg64
(lp1952
S'get_vars'
p1953
asbag57
(g78
g59
NtRp1954
(dp1955
g62
(dp1956
g89
g90
ssg71
g1945
sg64
(lp1957
S':'
asbag57
(g78
g59
NtRp1958
(dp1959
g62
(dp1960
sg71
g1945
sg64
(lp1961
g57
(g58
g59
NtRp1962
(dp1963
g62
(dp1964
g70
I5
ssg71
g1958
sg64
(lp1965
g57
(g66
g59
NtRp1966
(dp1967
g62
(dp1968
g70
I4
ssg71
Nsg64
(lp1969
sbasbasbasbag57
(g73
g59
NtRp1970
(dp1971
g62
(dp1972
sg71
g67
sg64
(lp1973
g57
(g78
g59
NtRp1974
(dp1975
g62
(dp1976
g82
g83
ssg71
g1970
sg64
(lp1977
S'global_settings'
p1978
asbag57
(g78
g59
NtRp1979
(dp1980
g62
(dp1981
g89
g90
ssg71
g1970
sg64
(lp1982
S':'
asbag57
(g78
g59
NtRp1983
(dp1984
g62
(dp1985
sg71
g1970
sg64
(lp1986
g57
(g58
g59
NtRp1987
(dp1988
g62
(dp1989
g70
I5
ssg71
g1983
sg64
(lp1990
g57
(g66
g59
NtRp1991
(dp1992
g62
(dp1993
g70
I4
ssg71
Nsg64
(lp1994
g57
(g73
g59
NtRp1995
(dp1996
g62
(dp1997
sg71
g1991
sg64
(lp1998
g57
(g78
g59
NtRp1999
(dp2000
g62
(dp2001
g82
g83
ssg71
g1995
sg64
(lp2002
g834
asbag57
(g78
g59
NtRp2003
(dp2004
g62
(dp2005
g89
g90
ssg71
g1995
sg64
(lp2006
S':'
asbag57
(g78
g59
NtRp2007
(dp2008
g62
(dp2009
sg71
g1995
sg64
(lp2010
g57
(g58
g59
NtRp2011
(dp2012
g62
(dp2013
g70
I4
ssg71
g2007
sg64
(lp2014
S"set(['/home/hduser/web2py/applications/admin/', '/home/hduser/web2py/applications/welcome/', '/home/hduser/web2py/applications/Hadoop/'])"
p2015
asbasbasbag57
(g73
g59
NtRp2016
(dp2017
g62
(dp2018
sg71
g1991
sg64
(lp2019
g57
(g78
g59
NtRp2020
(dp2021
g62
(dp2022
g82
g83
ssg71
g2016
sg64
(lp2023
g856
asbag57
(g78
g59
NtRp2024
(dp2025
g62
(dp2026
g89
g90
ssg71
g2016
sg64
(lp2027
S':'
asbag57
(g78
g59
NtRp2028
(dp2029
g62
(dp2030
sg71
g2016
sg64
(lp2031
g57
(g58
g59
NtRp2032
(dp2033
g62
(dp2034
g70
I4
ssg71
g2028
sg64
(lp2035
g869
asbasbasbag57
(g73
g59
NtRp2036
(dp2037
g62
(dp2038
sg71
g1991
sg64
(lp2039
g57
(g78
g59
NtRp2040
(dp2041
g62
(dp2042
g82
g83
ssg71
g2036
sg64
(lp2043
g878
asbag57
(g78
g59
NtRp2044
(dp2045
g62
(dp2046
g89
g90
ssg71
g2036
sg64
(lp2047
S':'
asbag57
(g78
g59
NtRp2048
(dp2049
g62
(dp2050
sg71
g2036
sg64
(lp2051
g57
(g58
g59
NtRp2052
(dp2053
g62
(dp2054
g70
I4
ssg71
g2048
sg64
(lp2055
g57
(g66
g59
NtRp2056
(dp2057
g62
(dp2058
g70
I3
ssg71
Nsg64
(lp2059
sbasbasbasbag57
(g73
g59
NtRp2060
(dp2061
g62
(dp2062
sg71
g1991
sg64
(lp2063
g57
(g78
g59
NtRp2064
(dp2065
g62
(dp2066
g82
g83
ssg71
g2060
sg64
(lp2067
g903
asbag57
(g78
g59
NtRp2068
(dp2069
g62
(dp2070
g89
g90
ssg71
g2060
sg64
(lp2071
S':'
asbag57
(g78
g59
NtRp2072
(dp2073
g62
(dp2074
sg71
g2060
sg64
(lp2075
g57
(g58
g59
NtRp2076
(dp2077
g62
(dp2078
g70
I4
ssg71
g2072
sg64
(lp2079
S"<Values at 0x1934248: {'verbose': False, 'ip': '127.0.0.1', 'shutdown_timeout': 5, 'taskbar': False, 'port': 8000, 'maxthreads': None, 'softcron': False, 'server_name': 'Dell-XPS', 'bpython': False, 'nogui': False, 'nocron': False, 'extcron': False, 'debuglevel': 30, 'test': None, 'folder': '/home/hduser/web2py', 'config': '', 'import_models': False, 'winservice': '', 'shell': None, 'run': '', 'log_filename': 'httpserver.log', 'args': [''], 'socket_timeout': 1, 'profiler_filename': None, 'ssl_private_key': '', 'password': '<ask>', 'request_queue_size': 5, 'ssl_certificate': '', 'cronjob': False, 'plain': False, 'quiet': False, 'interfaces': None, 'minthreads': None, 'timeout': 10, 'numthreads': None, 'nobanner': False, 'pid_filename': 'httpserver.pid'}>"
p2080
asbasbasbag57
(g73
g59
NtRp2081
(dp2082
g62
(dp2083
sg71
g1991
sg64
(lp2084
g57
(g78
g59
NtRp2085
(dp2086
g62
(dp2087
g82
g83
ssg71
g2081
sg64
(lp2088
g969
asbag57
(g78
g59
NtRp2089
(dp2090
g62
(dp2091
g89
g90
ssg71
g2081
sg64
(lp2092
S':'
asbag57
(g78
g59
NtRp2093
(dp2094
g62
(dp2095
sg71
g2081
sg64
(lp2096
g57
(g58
g59
NtRp2097
(dp2098
g62
(dp2099
g70
I4
ssg71
g2093
sg64
(lp2100
S'set([])'
p2101
asbasbasbag57
(g73
g59
NtRp2102
(dp2103
g62
(dp2104
sg71
g1991
sg64
(lp2105
g57
(g78
g59
NtRp2106
(dp2107
g62
(dp2108
g82
g83
ssg71
g2102
sg64
(lp2109
g991
asbag57
(g78
g59
NtRp2110
(dp2111
g62
(dp2112
g89
g90
ssg71
g2102
sg64
(lp2113
S':'
asbag57
(g78
g59
NtRp2114
(dp2115
g62
(dp2116
sg71
g2102
sg64
(lp2117
g57
(g58
g59
NtRp2118
(dp2119
g62
(dp2120
g70
I4
ssg71
g2114
sg64
(lp2121
g100
asbasbasbag57
(g73
g59
NtRp2122
(dp2123
g62
(dp2124
sg71
g1991
sg64
(lp2125
g57
(g78
g59
NtRp2126
(dp2127
g62
(dp2128
g82
g83
ssg71
g2122
sg64
(lp2129
g1012
asbag57
(g78
g59
NtRp2130
(dp2131
g62
(dp2132
g89
g90
ssg71
g2122
sg64
(lp2133
S':'
asbag57
(g78
g59
NtRp2134
(dp2135
g62
(dp2136
sg71
g2122
sg64
(lp2137
g57
(g58
g59
NtRp2138
(dp2139
g62
(dp2140
g70
I4
ssg71
g2134
sg64
(lp2141
g1025
asbasbasbag57
(g73
g59
NtRp2142
(dp2143
g62
(dp2144
sg71
g1991
sg64
(lp2145
g57
(g78
g59
NtRp2146
(dp2147
g62
(dp2148
g82
g83
ssg71
g2142
sg64
(lp2149
g1296
asbag57
(g78
g59
NtRp2150
(dp2151
g62
(dp2152
g89
g90
ssg71
g2142
sg64
(lp2153
S':'
asbag57
(g78
g59
NtRp2154
(dp2155
g62
(dp2156
sg71
g2142
sg64
(lp2157
g57
(g58
g59
NtRp2158
(dp2159
g62
(dp2160
g70
I4
ssg71
g2154
sg64
(lp2161
g100
asbasbasbag57
(g73
g59
NtRp2162
(dp2163
g62
(dp2164
sg71
g1991
sg64
(lp2165
g57
(g78
g59
NtRp2166
(dp2167
g62
(dp2168
g82
g83
ssg71
g2162
sg64
(lp2169
g1317
asbag57
(g78
g59
NtRp2170
(dp2171
g62
(dp2172
g89
g90
ssg71
g2162
sg64
(lp2173
S':'
asbag57
(g78
g59
NtRp2174
(dp2175
g62
(dp2176
sg71
g2162
sg64
(lp2177
g57
(g58
g59
NtRp2178
(dp2179
g62
(dp2180
g70
I4
ssg71
g2174
sg64
(lp2181
g100
asbasbasbag57
(g73
g59
NtRp2182
(dp2183
g62
(dp2184
sg71
g1991
sg64
(lp2185
g57
(g78
g59
NtRp2186
(dp2187
g62
(dp2188
g82
g83
ssg71
g2182
sg64
(lp2189
g1555
asbag57
(g78
g59
NtRp2190
(dp2191
g62
(dp2192
g89
g90
ssg71
g2182
sg64
(lp2193
S':'
asbag57
(g78
g59
NtRp2194
(dp2195
g62
(dp2196
sg71
g2182
sg64
(lp2197
g57
(g58
g59
NtRp2198
(dp2199
g62
(dp2200
g70
I4
ssg71
g2194
sg64
(lp2201
g1568
asbasbasbag57
(g73
g59
NtRp2202
(dp2203
g62
(dp2204
sg71
g1991
sg64
(lp2205
g57
(g78
g59
NtRp2206
(dp2207
g62
(dp2208
g82
g83
ssg71
g2202
sg64
(lp2209
g1598
asbag57
(g78
g59
NtRp2210
(dp2211
g62
(dp2212
g89
g90
ssg71
g2202
sg64
(lp2213
S':'
asbag57
(g78
g59
NtRp2214
(dp2215
g62
(dp2216
sg71
g2202
sg64
(lp2217
g57
(g58
g59
NtRp2218
(dp2219
g62
(dp2220
g70
I4
ssg71
g2214
sg64
(lp2221
g57
(g66
g59
NtRp2222
(dp2223
g62
(dp2224
g70
I3
ssg71
Nsg64
(lp2225
g57
(g73
g59
NtRp2226
(dp2227
g62
(dp2228
sg71
g2222
sg64
(lp2229
g57
(g78
g59
NtRp2230
(dp2231
g62
(dp2232
sg71
g2226
sg64
(lp2233
g57
(g58
g59
NtRp2234
(dp2235
g62
(dp2236
g70
I3
ssg71
g2230
sg64
(lp2237
S'1'
asbasbasbag57
(g73
g59
NtRp2238
(dp2239
g62
(dp2240
sg71
g2222
sg64
(lp2241
g57
(g78
g59
NtRp2242
(dp2243
g62
(dp2244
sg71
g2238
sg64
(lp2245
g57
(g58
g59
NtRp2246
(dp2247
g62
(dp2248
g70
I3
ssg71
g2242
sg64
(lp2249
S'99'
p2250
asbasbasbag57
(g73
g59
NtRp2251
(dp2252
g62
(dp2253
sg71
g2222
sg64
(lp2254
g57
(g78
g59
NtRp2255
(dp2256
g62
(dp2257
sg71
g2251
sg64
(lp2258
g57
(g58
g59
NtRp2259
(dp2260
g62
(dp2261
g70
I3
ssg71
g2255
sg64
(lp2262
S'4'
asbasbasbag57
(g73
g59
NtRp2263
(dp2264
g62
(dp2265
sg71
g2222
sg64
(lp2266
g57
(g78
g59
NtRp2267
(dp2268
g62
(dp2269
sg71
g2263
sg64
(lp2270
g57
(g58
g59
NtRp2271
(dp2272
g62
(dp2273
g70
I3
ssg71
g2267
sg64
(lp2274
S'datetime.datetime(2011, 12, 14, 14, 46, 14)'
p2275
asbasbasbag57
(g73
g59
NtRp2276
(dp2277
g62
(dp2278
sg71
g2222
sg64
(lp2279
g57
(g78
g59
NtRp2280
(dp2281
g62
(dp2282
sg71
g2276
sg64
(lp2283
g57
(g58
g59
NtRp2284
(dp2285
g62
(dp2286
g70
I3
ssg71
g2280
sg64
(lp2287
g1677
asbasbasbasbasbasbasbasbasbasbasbag57
(g73
g59
NtRp2288
(dp2289
g62
(dp2290
sg71
g67
sg64
(lp2291
g57
(g78
g59
NtRp2292
(dp2293
g62
(dp2294
g82
g83
ssg71
g2288
sg64
(lp2295
S'is_https'
p2296
asbag57
(g78
g59
NtRp2297
(dp2298
g62
(dp2299
g89
g90
ssg71
g2288
sg64
(lp2300
S':'
asbag57
(g78
g59
NtRp2301
(dp2302
g62
(dp2303
sg71
g2288
sg64
(lp2304
g57
(g58
g59
NtRp2305
(dp2306
g62
(dp2307
g70
I5
ssg71
g2301
sg64
(lp2308
g100
asbasbasbag57
(g73
g59
NtRp2309
(dp2310
g62
(dp2311
sg71
g67
sg64
(lp2312
g57
(g78
g59
NtRp2313
(dp2314
g62
(dp2315
g82
g83
ssg71
g2309
sg64
(lp2316
S'is_local'
p2317
asbag57
(g78
g59
NtRp2318
(dp2319
g62
(dp2320
g89
g90
ssg71
g2309
sg64
(lp2321
S':'
asbag57
(g78
g59
NtRp2322
(dp2323
g62
(dp2324
sg71
g2309
sg64
(lp2325
g57
(g58
g59
NtRp2326
(dp2327
g62
(dp2328
g70
I5
ssg71
g2322
sg64
(lp2329
g1786
asbasbasbag57
(g73
g59
NtRp2330
(dp2331
g62
(dp2332
sg71
g67
sg64
(lp2333
g57
(g78
g59
NtRp2334
(dp2335
g62
(dp2336
g82
g83
ssg71
g2330
sg64
(lp2337
S'is_restful'
p2338
asbag57
(g78
g59
NtRp2339
(dp2340
g62
(dp2341
g89
g90
ssg71
g2330
sg64
(lp2342
S':'
asbag57
(g78
g59
NtRp2343
(dp2344
g62
(dp2345
sg71
g2330
sg64
(lp2346
g57
(g58
g59
NtRp2347
(dp2348
g62
(dp2349
g70
I5
ssg71
g2343
sg64
(lp2350
g100
asbasbasbag57
(g73
g59
NtRp2351
(dp2352
g62
(dp2353
sg71
g67
sg64
(lp2354
g57
(g78
g59
NtRp2355
(dp2356
g62
(dp2357
g82
g83
ssg71
g2351
sg64
(lp2358
S'now'
p2359
asbag57
(g78
g59
NtRp2360
(dp2361
g62
(dp2362
g89
g90
ssg71
g2351
sg64
(lp2363
S':'
asbag57
(g78
g59
NtRp2364
(dp2365
g62
(dp2366
sg71
g2351
sg64
(lp2367
g57
(g58
g59
NtRp2368
(dp2369
g62
(dp2370
g70
I5
ssg71
g2364
sg64
(lp2371
S'datetime.datetime(2014, 1, 23, 0, 16, 14, 901756)'
p2372
asbasbasbag57
(g73
g59
NtRp2373
(dp2374
g62
(dp2375
sg71
g67
sg64
(lp2376
g57
(g78
g59
NtRp2377
(dp2378
g62
(dp2379
g82
g83
ssg71
g2373
sg64
(lp2380
S'post_vars'
p2381
asbag57
(g78
g59
NtRp2382
(dp2383
g62
(dp2384
g89
g90
ssg71
g2373
sg64
(lp2385
S':'
asbag57
(g78
g59
NtRp2386
(dp2387
g62
(dp2388
sg71
g2373
sg64
(lp2389
g57
(g58
g59
NtRp2390
(dp2391
g62
(dp2392
g70
I5
ssg71
g2386
sg64
(lp2393
g57
(g66
g59
NtRp2394
(dp2395
g62
(dp2396
g70
I4
ssg71
Nsg64
(lp2397
g57
(g73
g59
NtRp2398
(dp2399
g62
(dp2400
sg71
g2394
sg64
(lp2401
g57
(g78
g59
NtRp2402
(dp2403
g62
(dp2404
g82
g83
ssg71
g2398
sg64
(lp2405
S'columns'
p2406
asbag57
(g78
g59
NtRp2407
(dp2408
g62
(dp2409
g89
g90
ssg71
g2398
sg64
(lp2410
S':'
asbag57
(g78
g59
NtRp2411
(dp2412
g62
(dp2413
sg71
g2398
sg64
(lp2414
g57
(g58
g59
NtRp2415
(dp2416
g62
(dp2417
g70
I4
ssg71
g2411
sg64
(lp2418
S'username,password'
p2419
asbasbasbag57
(g73
g59
NtRp2420
(dp2421
g62
(dp2422
sg71
g2394
sg64
(lp2423
g57
(g78
g59
NtRp2424
(dp2425
g62
(dp2426
g82
g83
ssg71
g2420
sg64
(lp2427
S'configtext'
p2428
asbag57
(g78
g59
NtRp2429
(dp2430
g62
(dp2431
g89
g90
ssg71
g2420
sg64
(lp2432
S':'
asbag57
(g78
g59
NtRp2433
(dp2434
g62
(dp2435
sg71
g2420
sg64
(lp2436
g57
(g58
g59
NtRp2437
(dp2438
g62
(dp2439
g70
I4
ssg71
g2433
sg64
(lp2440
S''
asbasbasbag57
(g73
g59
NtRp2441
(dp2442
g62
(dp2443
sg71
g2394
sg64
(lp2444
g57
(g78
g59
NtRp2445
(dp2446
g62
(dp2447
g82
g83
ssg71
g2441
sg64
(lp2448
S'database_name'
p2449
asbag57
(g78
g59
NtRp2450
(dp2451
g62
(dp2452
g89
g90
ssg71
g2441
sg64
(lp2453
S':'
asbag57
(g78
g59
NtRp2454
(dp2455
g62
(dp2456
sg71
g2441
sg64
(lp2457
g57
(g58
g59
NtRp2458
(dp2459
g62
(dp2460
g70
I4
ssg71
g2454
sg64
(lp2461
S'hadoop'
p2462
asbasbasbag57
(g73
g59
NtRp2463
(dp2464
g62
(dp2465
sg71
g2394
sg64
(lp2466
g57
(g78
g59
NtRp2467
(dp2468
g62
(dp2469
g82
g83
ssg71
g2463
sg64
(lp2470
S'db_username'
p2471
asbag57
(g78
g59
NtRp2472
(dp2473
g62
(dp2474
g89
g90
ssg71
g2463
sg64
(lp2475
S':'
asbag57
(g78
g59
NtRp2476
(dp2477
g62
(dp2478
sg71
g2463
sg64
(lp2479
g57
(g58
g59
NtRp2480
(dp2481
g62
(dp2482
g70
I4
ssg71
g2476
sg64
(lp2483
S'root'
p2484
asbasbasbag57
(g73
g59
NtRp2485
(dp2486
g62
(dp2487
sg71
g2394
sg64
(lp2488
g57
(g78
g59
NtRp2489
(dp2490
g62
(dp2491
g82
g83
ssg71
g2485
sg64
(lp2492
S'deckey'
p2493
asbag57
(g78
g59
NtRp2494
(dp2495
g62
(dp2496
g89
g90
ssg71
g2485
sg64
(lp2497
S':'
asbag57
(g78
g59
NtRp2498
(dp2499
g62
(dp2500
sg71
g2485
sg64
(lp2501
g57
(g58
g59
NtRp2502
(dp2503
g62
(dp2504
g70
I4
ssg71
g2498
sg64
(lp2505
S''
asbasbasbag57
(g73
g59
NtRp2506
(dp2507
g62
(dp2508
sg71
g2394
sg64
(lp2509
g57
(g78
g59
NtRp2510
(dp2511
g62
(dp2512
g82
g83
ssg71
g2506
sg64
(lp2513
S'decrypt_columns'
p2514
asbag57
(g78
g59
NtRp2515
(dp2516
g62
(dp2517
g89
g90
ssg71
g2506
sg64
(lp2518
S':'
asbag57
(g78
g59
NtRp2519
(dp2520
g62
(dp2521
sg71
g2506
sg64
(lp2522
g57
(g58
g59
NtRp2523
(dp2524
g62
(dp2525
g70
I4
ssg71
g2519
sg64
(lp2526
S'username,password'
p2527
asbasbasbag57
(g73
g59
NtRp2528
(dp2529
g62
(dp2530
sg71
g2394
sg64
(lp2531
g57
(g78
g59
NtRp2532
(dp2533
g62
(dp2534
g82
g83
ssg71
g2528
sg64
(lp2535
S'enckey'
p2536
asbag57
(g78
g59
NtRp2537
(dp2538
g62
(dp2539
g89
g90
ssg71
g2528
sg64
(lp2540
S':'
asbag57
(g78
g59
NtRp2541
(dp2542
g62
(dp2543
sg71
g2528
sg64
(lp2544
g57
(g58
g59
NtRp2545
(dp2546
g62
(dp2547
g70
I4
ssg71
g2541
sg64
(lp2548
S''
asbasbasbag57
(g73
g59
NtRp2549
(dp2550
g62
(dp2551
sg71
g2394
sg64
(lp2552
g57
(g78
g59
NtRp2553
(dp2554
g62
(dp2555
g82
g83
ssg71
g2549
sg64
(lp2556
S'enclosingchar'
p2557
asbag57
(g78
g59
NtRp2558
(dp2559
g62
(dp2560
g89
g90
ssg71
g2549
sg64
(lp2561
S':'
asbag57
(g78
g59
NtRp2562
(dp2563
g62
(dp2564
sg71
g2549
sg64
(lp2565
g57
(g58
g59
NtRp2566
(dp2567
g62
(dp2568
g70
I4
ssg71
g2562
sg64
(lp2569
S''
asbasbasbag57
(g73
g59
NtRp2570
(dp2571
g62
(dp2572
sg71
g2394
sg64
(lp2573
g57
(g78
g59
NtRp2574
(dp2575
g62
(dp2576
g82
g83
ssg71
g2570
sg64
(lp2577
S'encrypt_columns'
p2578
asbag57
(g78
g59
NtRp2579
(dp2580
g62
(dp2581
g89
g90
ssg71
g2570
sg64
(lp2582
S':'
asbag57
(g78
g59
NtRp2583
(dp2584
g62
(dp2585
sg71
g2570
sg64
(lp2586
g57
(g58
g59
NtRp2587
(dp2588
g62
(dp2589
g70
I4
ssg71
g2583
sg64
(lp2590
S'username,password'
p2591
asbasbasbag57
(g73
g59
NtRp2592
(dp2593
g62
(dp2594
sg71
g2394
sg64
(lp2595
g57
(g78
g59
NtRp2596
(dp2597
g62
(dp2598
g82
g83
ssg71
g2592
sg64
(lp2599
S'field_delim'
p2600
asbag57
(g78
g59
NtRp2601
(dp2602
g62
(dp2603
g89
g90
ssg71
g2592
sg64
(lp2604
S':'
asbag57
(g78
g59
NtRp2605
(dp2606
g62
(dp2607
sg71
g2592
sg64
(lp2608
g57
(g58
g59
NtRp2609
(dp2610
g62
(dp2611
g70
I4
ssg71
g2605
sg64
(lp2612
S''
asbasbasbag57
(g73
g59
NtRp2613
(dp2614
g62
(dp2615
sg71
g2394
sg64
(lp2616
g57
(g78
g59
NtRp2617
(dp2618
g62
(dp2619
g82
g83
ssg71
g2613
sg64
(lp2620
S'file'
p2621
asbag57
(g78
g59
NtRp2622
(dp2623
g62
(dp2624
g89
g90
ssg71
g2613
sg64
(lp2625
S':'
asbag57
(g78
g59
NtRp2626
(dp2627
g62
(dp2628
sg71
g2613
sg64
(lp2629
g57
(g58
g59
NtRp2630
(dp2631
g62
(dp2632
g70
I4
ssg71
g2626
sg64
(lp2633
S''
asbasbasbag57
(g73
g59
NtRp2634
(dp2635
g62
(dp2636
sg71
g2394
sg64
(lp2637
g57
(g78
g59
NtRp2638
(dp2639
g62
(dp2640
g82
g83
ssg71
g2634
sg64
(lp2641
S'line_delim'
p2642
asbag57
(g78
g59
NtRp2643
(dp2644
g62
(dp2645
g89
g90
ssg71
g2634
sg64
(lp2646
S':'
asbag57
(g78
g59
NtRp2647
(dp2648
g62
(dp2649
sg71
g2634
sg64
(lp2650
g57
(g58
g59
NtRp2651
(dp2652
g62
(dp2653
g70
I4
ssg71
g2647
sg64
(lp2654
S''
asbasbasbag57
(g73
g59
NtRp2655
(dp2656
g62
(dp2657
sg71
g2394
sg64
(lp2658
g57
(g78
g59
NtRp2659
(dp2660
g62
(dp2661
g82
g83
ssg71
g2655
sg64
(lp2662
S'machine'
p2663
asbag57
(g78
g59
NtRp2664
(dp2665
g62
(dp2666
g89
g90
ssg71
g2655
sg64
(lp2667
S':'
asbag57
(g78
g59
NtRp2668
(dp2669
g62
(dp2670
sg71
g2655
sg64
(lp2671
g57
(g58
g59
NtRp2672
(dp2673
g62
(dp2674
g70
I4
ssg71
g2668
sg64
(lp2675
S'localhost'
p2676
asbasbasbag57
(g73
g59
NtRp2677
(dp2678
g62
(dp2679
sg71
g2394
sg64
(lp2680
g57
(g78
g59
NtRp2681
(dp2682
g62
(dp2683
g82
g83
ssg71
g2677
sg64
(lp2684
S'mytable'
p2685
asbag57
(g78
g59
NtRp2686
(dp2687
g62
(dp2688
g89
g90
ssg71
g2677
sg64
(lp2689
S':'
asbag57
(g78
g59
NtRp2690
(dp2691
g62
(dp2692
sg71
g2677
sg64
(lp2693
g57
(g58
g59
NtRp2694
(dp2695
g62
(dp2696
g70
I4
ssg71
g2690
sg64
(lp2697
S'login'
p2698
asbasbasbag57
(g73
g59
NtRp2699
(dp2700
g62
(dp2701
sg71
g2394
sg64
(lp2702
g57
(g78
g59
NtRp2703
(dp2704
g62
(dp2705
g82
g83
ssg71
g2699
sg64
(lp2706
S'op'
p2707
asbag57
(g78
g59
NtRp2708
(dp2709
g62
(dp2710
g89
g90
ssg71
g2699
sg64
(lp2711
S':'
asbag57
(g78
g59
NtRp2712
(dp2713
g62
(dp2714
sg71
g2699
sg64
(lp2715
g57
(g58
g59
NtRp2716
(dp2717
g62
(dp2718
g70
I4
ssg71
g2712
sg64
(lp2719
S'import'
p2720
asbasbasbag57
(g73
g59
NtRp2721
(dp2722
g62
(dp2723
sg71
g2394
sg64
(lp2724
g57
(g78
g59
NtRp2725
(dp2726
g62
(dp2727
g82
g83
ssg71
g2721
sg64
(lp2728
S'parallel'
p2729
asbag57
(g78
g59
NtRp2730
(dp2731
g62
(dp2732
g89
g90
ssg71
g2721
sg64
(lp2733
S':'
asbag57
(g78
g59
NtRp2734
(dp2735
g62
(dp2736
sg71
g2721
sg64
(lp2737
g57
(g58
g59
NtRp2738
(dp2739
g62
(dp2740
g70
I4
ssg71
g2734
sg64
(lp2741
S'5'
asbasbasbag57
(g73
g59
NtRp2742
(dp2743
g62
(dp2744
sg71
g2394
sg64
(lp2745
g57
(g78
g59
NtRp2746
(dp2747
g62
(dp2748
g82
g83
ssg71
g2742
sg64
(lp2749
S'password'
p2750
asbag57
(g78
g59
NtRp2751
(dp2752
g62
(dp2753
g89
g90
ssg71
g2742
sg64
(lp2754
S':'
asbag57
(g78
g59
NtRp2755
(dp2756
g62
(dp2757
sg71
g2742
sg64
(lp2758
g57
(g58
g59
NtRp2759
(dp2760
g62
(dp2761
g70
I4
ssg71
g2755
sg64
(lp2762
S''
asbasbasbag57
(g73
g59
NtRp2763
(dp2764
g62
(dp2765
sg71
g2394
sg64
(lp2766
g57
(g78
g59
NtRp2767
(dp2768
g62
(dp2769
g82
g83
ssg71
g2763
sg64
(lp2770
S'refcol'
p2771
asbag57
(g78
g59
NtRp2772
(dp2773
g62
(dp2774
g89
g90
ssg71
g2763
sg64
(lp2775
S':'
asbag57
(g78
g59
NtRp2776
(dp2777
g62
(dp2778
sg71
g2763
sg64
(lp2779
g57
(g58
g59
NtRp2780
(dp2781
g62
(dp2782
g70
I4
ssg71
g2776
sg64
(lp2783
S'id'
p2784
asbasbasbag57
(g73
g59
NtRp2785
(dp2786
g62
(dp2787
sg71
g2394
sg64
(lp2788
g57
(g78
g59
NtRp2789
(dp2790
g62
(dp2791
g82
g83
ssg71
g2785
sg64
(lp2792
S'sourcedir'
p2793
asbag57
(g78
g59
NtRp2794
(dp2795
g62
(dp2796
g89
g90
ssg71
g2785
sg64
(lp2797
S':'
asbag57
(g78
g59
NtRp2798
(dp2799
g62
(dp2800
sg71
g2785
sg64
(lp2801
g57
(g58
g59
NtRp2802
(dp2803
g62
(dp2804
g70
I4
ssg71
g2798
sg64
(lp2805
S''
asbasbasbag57
(g73
g59
NtRp2806
(dp2807
g62
(dp2808
sg71
g2394
sg64
(lp2809
g57
(g78
g59
NtRp2810
(dp2811
g62
(dp2812
g82
g83
ssg71
g2806
sg64
(lp2813
S'targetdir'
p2814
asbag57
(g78
g59
NtRp2815
(dp2816
g62
(dp2817
g89
g90
ssg71
g2806
sg64
(lp2818
S':'
asbag57
(g78
g59
NtRp2819
(dp2820
g62
(dp2821
sg71
g2806
sg64
(lp2822
g57
(g58
g59
NtRp2823
(dp2824
g62
(dp2825
g70
I4
ssg71
g2819
sg64
(lp2826
S''
asbasbasbag57
(g73
g59
NtRp2827
(dp2828
g62
(dp2829
sg71
g2394
sg64
(lp2830
g57
(g78
g59
NtRp2831
(dp2832
g62
(dp2833
g82
g83
ssg71
g2827
sg64
(lp2834
S'where'
p2835
asbag57
(g78
g59
NtRp2836
(dp2837
g62
(dp2838
g89
g90
ssg71
g2827
sg64
(lp2839
S':'
asbag57
(g78
g59
NtRp2840
(dp2841
g62
(dp2842
sg71
g2827
sg64
(lp2843
g57
(g58
g59
NtRp2844
(dp2845
g62
(dp2846
g70
I4
ssg71
g2840
sg64
(lp2847
S''
asbasbasbasbasbasbasbag57
(g73
g59
NtRp2848
(dp2849
g62
(dp2850
sg71
g67
sg64
(lp2851
g57
(g78
g59
NtRp2852
(dp2853
g62
(dp2854
g82
g83
ssg71
g2848
sg64
(lp2855
S'url'
p2856
asbag57
(g78
g59
NtRp2857
(dp2858
g62
(dp2859
g89
g90
ssg71
g2848
sg64
(lp2860
S':'
asbag57
(g78
g59
NtRp2861
(dp2862
g62
(dp2863
sg71
g2848
sg64
(lp2864
g57
(g58
g59
NtRp2865
(dp2866
g62
(dp2867
g70
I5
ssg71
g2861
sg64
(lp2868
S'/Hadoop/default/action'
p2869
asbasbasbag57
(g73
g59
NtRp2870
(dp2871
g62
(dp2872
sg71
g67
sg64
(lp2873
g57
(g78
g59
NtRp2874
(dp2875
g62
(dp2876
g82
g83
ssg71
g2870
sg64
(lp2877
S'utcnow'
p2878
asbag57
(g78
g59
NtRp2879
(dp2880
g62
(dp2881
g89
g90
ssg71
g2870
sg64
(lp2882
S':'
asbag57
(g78
g59
NtRp2883
(dp2884
g62
(dp2885
sg71
g2870
sg64
(lp2886
g57
(g58
g59
NtRp2887
(dp2888
g62
(dp2889
g70
I5
ssg71
g2883
sg64
(lp2890
S'datetime.datetime(2014, 1, 22, 18, 46, 14, 901778)'
p2891
asbasbasbag57
(g73
g59
NtRp2892
(dp2893
g62
(dp2894
sg71
g67
sg64
(lp2895
g57
(g78
g59
NtRp2896
(dp2897
g62
(dp2898
g82
g83
ssg71
g2892
sg64
(lp2899
S'uuid'
p2900
asbag57
(g78
g59
NtRp2901
(dp2902
g62
(dp2903
g89
g90
ssg71
g2892
sg64
(lp2904
S':'
asbag57
(g78
g59
NtRp2905
(dp2906
g62
(dp2907
sg71
g2892
sg64
(lp2908
g57
(g58
g59
NtRp2909
(dp2910
g62
(dp2911
g70
I5
ssg71
g2905
sg64
(lp2912
S'Hadoop/127.0.0.1.2014-01-23.00-16-14.e591ff2c-ca58-4fc7-8dea-ba8a80684a49'
p2913
asbasbasbag57
(g73
g59
NtRp2914
(dp2915
g62
(dp2916
sg71
g67
sg64
(lp2917
g57
(g78
g59
NtRp2918
(dp2919
g62
(dp2920
g82
g83
ssg71
g2914
sg64
(lp2921
S'vars'
p2922
asbag57
(g78
g59
NtRp2923
(dp2924
g62
(dp2925
g89
g90
ssg71
g2914
sg64
(lp2926
S':'
asbag57
(g78
g59
NtRp2927
(dp2928
g62
(dp2929
sg71
g2914
sg64
(lp2930
g57
(g58
g59
NtRp2931
(dp2932
g62
(dp2933
g70
I5
ssg71
g2927
sg64
(lp2934
g57
(g66
g59
NtRp2935
(dp2936
g62
(dp2937
g70
I4
ssg71
Nsg64
(lp2938
g57
(g73
g59
NtRp2939
(dp2940
g62
(dp2941
sg71
g2935
sg64
(lp2942
g57
(g78
g59
NtRp2943
(dp2944
g62
(dp2945
g82
g83
ssg71
g2939
sg64
(lp2946
g2406
asbag57
(g78
g59
NtRp2947
(dp2948
g62
(dp2949
g89
g90
ssg71
g2939
sg64
(lp2950
S':'
asbag57
(g78
g59
NtRp2951
(dp2952
g62
(dp2953
sg71
g2939
sg64
(lp2954
g57
(g58
g59
NtRp2955
(dp2956
g62
(dp2957
g70
I4
ssg71
g2951
sg64
(lp2958
g2419
asbasbasbag57
(g73
g59
NtRp2959
(dp2960
g62
(dp2961
sg71
g2935
sg64
(lp2962
g57
(g78
g59
NtRp2963
(dp2964
g62
(dp2965
g82
g83
ssg71
g2959
sg64
(lp2966
g2428
asbag57
(g78
g59
NtRp2967
(dp2968
g62
(dp2969
g89
g90
ssg71
g2959
sg64
(lp2970
S':'
asbag57
(g78
g59
NtRp2971
(dp2972
g62
(dp2973
sg71
g2959
sg64
(lp2974
g57
(g58
g59
NtRp2975
(dp2976
g62
(dp2977
g70
I4
ssg71
g2971
sg64
(lp2978
S''
asbasbasbag57
(g73
g59
NtRp2979
(dp2980
g62
(dp2981
sg71
g2935
sg64
(lp2982
g57
(g78
g59
NtRp2983
(dp2984
g62
(dp2985
g82
g83
ssg71
g2979
sg64
(lp2986
g2449
asbag57
(g78
g59
NtRp2987
(dp2988
g62
(dp2989
g89
g90
ssg71
g2979
sg64
(lp2990
S':'
asbag57
(g78
g59
NtRp2991
(dp2992
g62
(dp2993
sg71
g2979
sg64
(lp2994
g57
(g58
g59
NtRp2995
(dp2996
g62
(dp2997
g70
I4
ssg71
g2991
sg64
(lp2998
g2462
asbasbasbag57
(g73
g59
NtRp2999
(dp3000
g62
(dp3001
sg71
g2935
sg64
(lp3002
g57
(g78
g59
NtRp3003
(dp3004
g62
(dp3005
g82
g83
ssg71
g2999
sg64
(lp3006
g2471
asbag57
(g78
g59
NtRp3007
(dp3008
g62
(dp3009
g89
g90
ssg71
g2999
sg64
(lp3010
S':'
asbag57
(g78
g59
NtRp3011
(dp3012
g62
(dp3013
sg71
g2999
sg64
(lp3014
g57
(g58
g59
NtRp3015
(dp3016
g62
(dp3017
g70
I4
ssg71
g3011
sg64
(lp3018
g2484
asbasbasbag57
(g73
g59
NtRp3019
(dp3020
g62
(dp3021
sg71
g2935
sg64
(lp3022
g57
(g78
g59
NtRp3023
(dp3024
g62
(dp3025
g82
g83
ssg71
g3019
sg64
(lp3026
g2493
asbag57
(g78
g59
NtRp3027
(dp3028
g62
(dp3029
g89
g90
ssg71
g3019
sg64
(lp3030
S':'
asbag57
(g78
g59
NtRp3031
(dp3032
g62
(dp3033
sg71
g3019
sg64
(lp3034
g57
(g58
g59
NtRp3035
(dp3036
g62
(dp3037
g70
I4
ssg71
g3031
sg64
(lp3038
S''
asbasbasbag57
(g73
g59
NtRp3039
(dp3040
g62
(dp3041
sg71
g2935
sg64
(lp3042
g57
(g78
g59
NtRp3043
(dp3044
g62
(dp3045
g82
g83
ssg71
g3039
sg64
(lp3046
g2514
asbag57
(g78
g59
NtRp3047
(dp3048
g62
(dp3049
g89
g90
ssg71
g3039
sg64
(lp3050
S':'
asbag57
(g78
g59
NtRp3051
(dp3052
g62
(dp3053
sg71
g3039
sg64
(lp3054
g57
(g58
g59
NtRp3055
(dp3056
g62
(dp3057
g70
I4
ssg71
g3051
sg64
(lp3058
g2527
asbasbasbag57
(g73
g59
NtRp3059
(dp3060
g62
(dp3061
sg71
g2935
sg64
(lp3062
g57
(g78
g59
NtRp3063
(dp3064
g62
(dp3065
g82
g83
ssg71
g3059
sg64
(lp3066
g2536
asbag57
(g78
g59
NtRp3067
(dp3068
g62
(dp3069
g89
g90
ssg71
g3059
sg64
(lp3070
S':'
asbag57
(g78
g59
NtRp3071
(dp3072
g62
(dp3073
sg71
g3059
sg64
(lp3074
g57
(g58
g59
NtRp3075
(dp3076
g62
(dp3077
g70
I4
ssg71
g3071
sg64
(lp3078
S''
asbasbasbag57
(g73
g59
NtRp3079
(dp3080
g62
(dp3081
sg71
g2935
sg64
(lp3082
g57
(g78
g59
NtRp3083
(dp3084
g62
(dp3085
g82
g83
ssg71
g3079
sg64
(lp3086
g2557
asbag57
(g78
g59
NtRp3087
(dp3088
g62
(dp3089
g89
g90
ssg71
g3079
sg64
(lp3090
S':'
asbag57
(g78
g59
NtRp3091
(dp3092
g62
(dp3093
sg71
g3079
sg64
(lp3094
g57
(g58
g59
NtRp3095
(dp3096
g62
(dp3097
g70
I4
ssg71
g3091
sg64
(lp3098
S''
asbasbasbag57
(g73
g59
NtRp3099
(dp3100
g62
(dp3101
sg71
g2935
sg64
(lp3102
g57
(g78
g59
NtRp3103
(dp3104
g62
(dp3105
g82
g83
ssg71
g3099
sg64
(lp3106
g2578
asbag57
(g78
g59
NtRp3107
(dp3108
g62
(dp3109
g89
g90
ssg71
g3099
sg64
(lp3110
S':'
asbag57
(g78
g59
NtRp3111
(dp3112
g62
(dp3113
sg71
g3099
sg64
(lp3114
g57
(g58
g59
NtRp3115
(dp3116
g62
(dp3117
g70
I4
ssg71
g3111
sg64
(lp3118
g2591
asbasbasbag57
(g73
g59
NtRp3119
(dp3120
g62
(dp3121
sg71
g2935
sg64
(lp3122
g57
(g78
g59
NtRp3123
(dp3124
g62
(dp3125
g82
g83
ssg71
g3119
sg64
(lp3126
g2600
asbag57
(g78
g59
NtRp3127
(dp3128
g62
(dp3129
g89
g90
ssg71
g3119
sg64
(lp3130
S':'
asbag57
(g78
g59
NtRp3131
(dp3132
g62
(dp3133
sg71
g3119
sg64
(lp3134
g57
(g58
g59
NtRp3135
(dp3136
g62
(dp3137
g70
I4
ssg71
g3131
sg64
(lp3138
S''
asbasbasbag57
(g73
g59
NtRp3139
(dp3140
g62
(dp3141
sg71
g2935
sg64
(lp3142
g57
(g78
g59
NtRp3143
(dp3144
g62
(dp3145
g82
g83
ssg71
g3139
sg64
(lp3146
g2621
asbag57
(g78
g59
NtRp3147
(dp3148
g62
(dp3149
g89
g90
ssg71
g3139
sg64
(lp3150
S':'
asbag57
(g78
g59
NtRp3151
(dp3152
g62
(dp3153
sg71
g3139
sg64
(lp3154
g57
(g58
g59
NtRp3155
(dp3156
g62
(dp3157
g70
I4
ssg71
g3151
sg64
(lp3158
S''
asbasbasbag57
(g73
g59
NtRp3159
(dp3160
g62
(dp3161
sg71
g2935
sg64
(lp3162
g57
(g78
g59
NtRp3163
(dp3164
g62
(dp3165
g82
g83
ssg71
g3159
sg64
(lp3166
g2642
asbag57
(g78
g59
NtRp3167
(dp3168
g62
(dp3169
g89
g90
ssg71
g3159
sg64
(lp3170
S':'
asbag57
(g78
g59
NtRp3171
(dp3172
g62
(dp3173
sg71
g3159
sg64
(lp3174
g57
(g58
g59
NtRp3175
(dp3176
g62
(dp3177
g70
I4
ssg71
g3171
sg64
(lp3178
S''
asbasbasbag57
(g73
g59
NtRp3179
(dp3180
g62
(dp3181
sg71
g2935
sg64
(lp3182
g57
(g78
g59
NtRp3183
(dp3184
g62
(dp3185
g82
g83
ssg71
g3179
sg64
(lp3186
g2663
asbag57
(g78
g59
NtRp3187
(dp3188
g62
(dp3189
g89
g90
ssg71
g3179
sg64
(lp3190
S':'
asbag57
(g78
g59
NtRp3191
(dp3192
g62
(dp3193
sg71
g3179
sg64
(lp3194
g57
(g58
g59
NtRp3195
(dp3196
g62
(dp3197
g70
I4
ssg71
g3191
sg64
(lp3198
g2676
asbasbasbag57
(g73
g59
NtRp3199
(dp3200
g62
(dp3201
sg71
g2935
sg64
(lp3202
g57
(g78
g59
NtRp3203
(dp3204
g62
(dp3205
g82
g83
ssg71
g3199
sg64
(lp3206
g2685
asbag57
(g78
g59
NtRp3207
(dp3208
g62
(dp3209
g89
g90
ssg71
g3199
sg64
(lp3210
S':'
asbag57
(g78
g59
NtRp3211
(dp3212
g62
(dp3213
sg71
g3199
sg64
(lp3214
g57
(g58
g59
NtRp3215
(dp3216
g62
(dp3217
g70
I4
ssg71
g3211
sg64
(lp3218
g2698
asbasbasbag57
(g73
g59
NtRp3219
(dp3220
g62
(dp3221
sg71
g2935
sg64
(lp3222
g57
(g78
g59
NtRp3223
(dp3224
g62
(dp3225
g82
g83
ssg71
g3219
sg64
(lp3226
g2707
asbag57
(g78
g59
NtRp3227
(dp3228
g62
(dp3229
g89
g90
ssg71
g3219
sg64
(lp3230
S':'
asbag57
(g78
g59
NtRp3231
(dp3232
g62
(dp3233
sg71
g3219
sg64
(lp3234
g57
(g58
g59
NtRp3235
(dp3236
g62
(dp3237
g70
I4
ssg71
g3231
sg64
(lp3238
g2720
asbasbasbag57
(g73
g59
NtRp3239
(dp3240
g62
(dp3241
sg71
g2935
sg64
(lp3242
g57
(g78
g59
NtRp3243
(dp3244
g62
(dp3245
g82
g83
ssg71
g3239
sg64
(lp3246
g2729
asbag57
(g78
g59
NtRp3247
(dp3248
g62
(dp3249
g89
g90
ssg71
g3239
sg64
(lp3250
S':'
asbag57
(g78
g59
NtRp3251
(dp3252
g62
(dp3253
sg71
g3239
sg64
(lp3254
g57
(g58
g59
NtRp3255
(dp3256
g62
(dp3257
g70
I4
ssg71
g3251
sg64
(lp3258
S'5'
asbasbasbag57
(g73
g59
NtRp3259
(dp3260
g62
(dp3261
sg71
g2935
sg64
(lp3262
g57
(g78
g59
NtRp3263
(dp3264
g62
(dp3265
g82
g83
ssg71
g3259
sg64
(lp3266
g2750
asbag57
(g78
g59
NtRp3267
(dp3268
g62
(dp3269
g89
g90
ssg71
g3259
sg64
(lp3270
S':'
asbag57
(g78
g59
NtRp3271
(dp3272
g62
(dp3273
sg71
g3259
sg64
(lp3274
g57
(g58
g59
NtRp3275
(dp3276
g62
(dp3277
g70
I4
ssg71
g3271
sg64
(lp3278
S''
asbasbasbag57
(g73
g59
NtRp3279
(dp3280
g62
(dp3281
sg71
g2935
sg64
(lp3282
g57
(g78
g59
NtRp3283
(dp3284
g62
(dp3285
g82
g83
ssg71
g3279
sg64
(lp3286
g2771
asbag57
(g78
g59
NtRp3287
(dp3288
g62
(dp3289
g89
g90
ssg71
g3279
sg64
(lp3290
S':'
asbag57
(g78
g59
NtRp3291
(dp3292
g62
(dp3293
sg71
g3279
sg64
(lp3294
g57
(g58
g59
NtRp3295
(dp3296
g62
(dp3297
g70
I4
ssg71
g3291
sg64
(lp3298
g2784
asbasbasbag57
(g73
g59
NtRp3299
(dp3300
g62
(dp3301
sg71
g2935
sg64
(lp3302
g57
(g78
g59
NtRp3303
(dp3304
g62
(dp3305
g82
g83
ssg71
g3299
sg64
(lp3306
g2793
asbag57
(g78
g59
NtRp3307
(dp3308
g62
(dp3309
g89
g90
ssg71
g3299
sg64
(lp3310
S':'
asbag57
(g78
g59
NtRp3311
(dp3312
g62
(dp3313
sg71
g3299
sg64
(lp3314
g57
(g58
g59
NtRp3315
(dp3316
g62
(dp3317
g70
I4
ssg71
g3311
sg64
(lp3318
S''
asbasbasbag57
(g73
g59
NtRp3319
(dp3320
g62
(dp3321
sg71
g2935
sg64
(lp3322
g57
(g78
g59
NtRp3323
(dp3324
g62
(dp3325
g82
g83
ssg71
g3319
sg64
(lp3326
g2814
asbag57
(g78
g59
NtRp3327
(dp3328
g62
(dp3329
g89
g90
ssg71
g3319
sg64
(lp3330
S':'
asbag57
(g78
g59
NtRp3331
(dp3332
g62
(dp3333
sg71
g3319
sg64
(lp3334
g57
(g58
g59
NtRp3335
(dp3336
g62
(dp3337
g70
I4
ssg71
g3331
sg64
(lp3338
S''
asbasbasbag57
(g73
g59
NtRp3339
(dp3340
g62
(dp3341
sg71
g2935
sg64
(lp3342
g57
(g78
g59
NtRp3343
(dp3344
g62
(dp3345
g82
g83
ssg71
g3339
sg64
(lp3346
g2835
asbag57
(g78
g59
NtRp3347
(dp3348
g62
(dp3349
g89
g90
ssg71
g3339
sg64
(lp3350
S':'
asbag57
(g78
g59
NtRp3351
(dp3352
g62
(dp3353
sg71
g3339
sg64
(lp3354
g57
(g58
g59
NtRp3355
(dp3356
g62
(dp3357
g70
I4
ssg71
g3351
sg64
(lp3358
S''
asbasbasbasbasbasbasbag57
(g73
g59
NtRp3359
(dp3360
g62
(dp3361
sg71
g67
sg64
(lp3362
g57
(g78
g59
NtRp3363
(dp3364
g62
(dp3365
g82
g83
ssg71
g3359
sg64
(lp3366
S'wsgi'
p3367
asbag57
(g78
g59
NtRp3368
(dp3369
g62
(dp3370
g89
g90
ssg71
g3359
sg64
(lp3371
S':'
asbag57
(g78
g59
NtRp3372
(dp3373
g62
(dp3374
sg71
g3359
sg64
(lp3375
g57
(g58
g59
NtRp3376
(dp3377
g62
(dp3378
g70
I5
ssg71
g3372
sg64
(lp3379
g57
(g66
g59
NtRp3380
(dp3381
g62
(dp3382
g70
I4
ssg71
Nsg64
(lp3383
g57
(g73
g59
NtRp3384
(dp3385
g62
(dp3386
sg71
g3380
sg64
(lp3387
g57
(g78
g59
NtRp3388
(dp3389
g62
(dp3390
g82
g83
ssg71
g3384
sg64
(lp3391
S'environ'
p3392
asbag57
(g78
g59
NtRp3393
(dp3394
g62
(dp3395
g89
g90
ssg71
g3384
sg64
(lp3396
S':'
asbag57
(g78
g59
NtRp3397
(dp3398
g62
(dp3399
sg71
g3384
sg64
(lp3400
g57
(g58
g59
NtRp3401
(dp3402
g62
(dp3403
g70
I4
ssg71
g3397
sg64
(lp3404
g57
(g66
g59
NtRp3405
(dp3406
g62
(dp3407
g70
I3
ssg71
Nsg64
(lp3408
g57
(g73
g59
NtRp3409
(dp3410
g62
(dp3411
sg71
g3405
sg64
(lp3412
g57
(g78
g59
NtRp3413
(dp3414
g62
(dp3415
g82
g83
ssg71
g3409
sg64
(lp3416
S'CONTENT_LENGTH'
p3417
asbag57
(g78
g59
NtRp3418
(dp3419
g62
(dp3420
g89
g90
ssg71
g3409
sg64
(lp3421
S':'
asbag57
(g78
g59
NtRp3422
(dp3423
g62
(dp3424
sg71
g3409
sg64
(lp3425
g57
(g58
g59
NtRp3426
(dp3427
g62
(dp3428
g70
I3
ssg71
g3422
sg64
(lp3429
g938
asbasbasbag57
(g73
g59
NtRp3430
(dp3431
g62
(dp3432
sg71
g3405
sg64
(lp3433
g57
(g78
g59
NtRp3434
(dp3435
g62
(dp3436
g82
g83
ssg71
g3430
sg64
(lp3437
S'CONTENT_TYPE'
p3438
asbag57
(g78
g59
NtRp3439
(dp3440
g62
(dp3441
g89
g90
ssg71
g3430
sg64
(lp3442
S':'
asbag57
(g78
g59
NtRp3443
(dp3444
g62
(dp3445
sg71
g3430
sg64
(lp3446
g57
(g58
g59
NtRp3447
(dp3448
g62
(dp3449
g70
I3
ssg71
g3443
sg64
(lp3450
g960
asbasbasbag57
(g73
g59
NtRp3451
(dp3452
g62
(dp3453
sg71
g3405
sg64
(lp3454
g57
(g78
g59
NtRp3455
(dp3456
g62
(dp3457
g82
g83
ssg71
g3451
sg64
(lp3458
S'HTTP_ACCEPT'
p3459
asbag57
(g78
g59
NtRp3460
(dp3461
g62
(dp3462
g89
g90
ssg71
g3451
sg64
(lp3463
S':'
asbag57
(g78
g59
NtRp3464
(dp3465
g62
(dp3466
sg71
g3451
sg64
(lp3467
g57
(g58
g59
NtRp3468
(dp3469
g62
(dp3470
g70
I3
ssg71
g3464
sg64
(lp3471
g1047
asbasbasbag57
(g73
g59
NtRp3472
(dp3473
g62
(dp3474
sg71
g3405
sg64
(lp3475
g57
(g78
g59
NtRp3476
(dp3477
g62
(dp3478
g82
g83
ssg71
g3472
sg64
(lp3479
S'HTTP_ACCEPT_ENCODING'
p3480
asbag57
(g78
g59
NtRp3481
(dp3482
g62
(dp3483
g89
g90
ssg71
g3472
sg64
(lp3484
S':'
asbag57
(g78
g59
NtRp3485
(dp3486
g62
(dp3487
sg71
g3472
sg64
(lp3488
g57
(g58
g59
NtRp3489
(dp3490
g62
(dp3491
g70
I3
ssg71
g3485
sg64
(lp3492
g1069
asbasbasbag57
(g73
g59
NtRp3493
(dp3494
g62
(dp3495
sg71
g3405
sg64
(lp3496
g57
(g78
g59
NtRp3497
(dp3498
g62
(dp3499
g82
g83
ssg71
g3493
sg64
(lp3500
S'HTTP_ACCEPT_LANGUAGE'
p3501
asbag57
(g78
g59
NtRp3502
(dp3503
g62
(dp3504
g89
g90
ssg71
g3493
sg64
(lp3505
S':'
asbag57
(g78
g59
NtRp3506
(dp3507
g62
(dp3508
sg71
g3493
sg64
(lp3509
g57
(g58
g59
NtRp3510
(dp3511
g62
(dp3512
g70
I3
ssg71
g3506
sg64
(lp3513
g1091
asbasbasbag57
(g73
g59
NtRp3514
(dp3515
g62
(dp3516
sg71
g3405
sg64
(lp3517
g57
(g78
g59
NtRp3518
(dp3519
g62
(dp3520
g82
g83
ssg71
g3514
sg64
(lp3521
S'HTTP_CACHE_CONTROL'
p3522
asbag57
(g78
g59
NtRp3523
(dp3524
g62
(dp3525
g89
g90
ssg71
g3514
sg64
(lp3526
S':'
asbag57
(g78
g59
NtRp3527
(dp3528
g62
(dp3529
sg71
g3514
sg64
(lp3530
g57
(g58
g59
NtRp3531
(dp3532
g62
(dp3533
g70
I3
ssg71
g3527
sg64
(lp3534
g1113
asbasbasbag57
(g73
g59
NtRp3535
(dp3536
g62
(dp3537
sg71
g3405
sg64
(lp3538
g57
(g78
g59
NtRp3539
(dp3540
g62
(dp3541
g82
g83
ssg71
g3535
sg64
(lp3542
S'HTTP_CONNECTION'
p3543
asbag57
(g78
g59
NtRp3544
(dp3545
g62
(dp3546
g89
g90
ssg71
g3535
sg64
(lp3547
S':'
asbag57
(g78
g59
NtRp3548
(dp3549
g62
(dp3550
sg71
g3535
sg64
(lp3551
g57
(g58
g59
NtRp3552
(dp3553
g62
(dp3554
g70
I3
ssg71
g3548
sg64
(lp3555
g1135
asbasbasbag57
(g73
g59
NtRp3556
(dp3557
g62
(dp3558
sg71
g3405
sg64
(lp3559
g57
(g78
g59
NtRp3560
(dp3561
g62
(dp3562
g82
g83
ssg71
g3556
sg64
(lp3563
S'HTTP_CONTENT_LENGTH'
p3564
asbag57
(g78
g59
NtRp3565
(dp3566
g62
(dp3567
g89
g90
ssg71
g3556
sg64
(lp3568
S':'
asbag57
(g78
g59
NtRp3569
(dp3570
g62
(dp3571
sg71
g3556
sg64
(lp3572
g57
(g58
g59
NtRp3573
(dp3574
g62
(dp3575
g70
I3
ssg71
g3569
sg64
(lp3576
g938
asbasbasbag57
(g73
g59
NtRp3577
(dp3578
g62
(dp3579
sg71
g3405
sg64
(lp3580
g57
(g78
g59
NtRp3581
(dp3582
g62
(dp3583
g82
g83
ssg71
g3577
sg64
(lp3584
S'HTTP_CONTENT_TYPE'
p3585
asbag57
(g78
g59
NtRp3586
(dp3587
g62
(dp3588
g89
g90
ssg71
g3577
sg64
(lp3589
S':'
asbag57
(g78
g59
NtRp3590
(dp3591
g62
(dp3592
sg71
g3577
sg64
(lp3593
g57
(g58
g59
NtRp3594
(dp3595
g62
(dp3596
g70
I3
ssg71
g3590
sg64
(lp3597
g960
asbasbasbag57
(g73
g59
NtRp3598
(dp3599
g62
(dp3600
sg71
g3405
sg64
(lp3601
g57
(g78
g59
NtRp3602
(dp3603
g62
(dp3604
g82
g83
ssg71
g3598
sg64
(lp3605
S'HTTP_COOKIE'
p3606
asbag57
(g78
g59
NtRp3607
(dp3608
g62
(dp3609
g89
g90
ssg71
g3598
sg64
(lp3610
S':'
asbag57
(g78
g59
NtRp3611
(dp3612
g62
(dp3613
sg71
g3598
sg64
(lp3614
g57
(g58
g59
NtRp3615
(dp3616
g62
(dp3617
g70
I3
ssg71
g3611
sg64
(lp3618
g1199
asbasbasbag57
(g73
g59
NtRp3619
(dp3620
g62
(dp3621
sg71
g3405
sg64
(lp3622
g57
(g78
g59
NtRp3623
(dp3624
g62
(dp3625
g82
g83
ssg71
g3619
sg64
(lp3626
S'HTTP_HOST'
p3627
asbag57
(g78
g59
NtRp3628
(dp3629
g62
(dp3630
g89
g90
ssg71
g3619
sg64
(lp3631
S':'
asbag57
(g78
g59
NtRp3632
(dp3633
g62
(dp3634
sg71
g3619
sg64
(lp3635
g57
(g58
g59
NtRp3636
(dp3637
g62
(dp3638
g70
I3
ssg71
g3632
sg64
(lp3639
g1221
asbasbasbag57
(g73
g59
NtRp3640
(dp3641
g62
(dp3642
sg71
g3405
sg64
(lp3643
g57
(g78
g59
NtRp3644
(dp3645
g62
(dp3646
g82
g83
ssg71
g3640
sg64
(lp3647
S'HTTP_ORIGIN'
p3648
asbag57
(g78
g59
NtRp3649
(dp3650
g62
(dp3651
g89
g90
ssg71
g3640
sg64
(lp3652
S':'
asbag57
(g78
g59
NtRp3653
(dp3654
g62
(dp3655
sg71
g3640
sg64
(lp3656
g57
(g58
g59
NtRp3657
(dp3658
g62
(dp3659
g70
I3
ssg71
g3653
sg64
(lp3660
g1243
asbasbasbag57
(g73
g59
NtRp3661
(dp3662
g62
(dp3663
sg71
g3405
sg64
(lp3664
g57
(g78
g59
NtRp3665
(dp3666
g62
(dp3667
g82
g83
ssg71
g3661
sg64
(lp3668
S'HTTP_REFERER'
p3669
asbag57
(g78
g59
NtRp3670
(dp3671
g62
(dp3672
g89
g90
ssg71
g3661
sg64
(lp3673
S':'
asbag57
(g78
g59
NtRp3674
(dp3675
g62
(dp3676
sg71
g3661
sg64
(lp3677
g57
(g58
g59
NtRp3678
(dp3679
g62
(dp3680
g70
I3
ssg71
g3674
sg64
(lp3681
g1265
asbasbasbag57
(g73
g59
NtRp3682
(dp3683
g62
(dp3684
sg71
g3405
sg64
(lp3685
g57
(g78
g59
NtRp3686
(dp3687
g62
(dp3688
g82
g83
ssg71
g3682
sg64
(lp3689
S'HTTP_USER_AGENT'
p3690
asbag57
(g78
g59
NtRp3691
(dp3692
g62
(dp3693
g89
g90
ssg71
g3682
sg64
(lp3694
S':'
asbag57
(g78
g59
NtRp3695
(dp3696
g62
(dp3697
sg71
g3682
sg64
(lp3698
g57
(g58
g59
NtRp3699
(dp3700
g62
(dp3701
g70
I3
ssg71
g3695
sg64
(lp3702
g1287
asbasbasbag57
(g73
g59
NtRp3703
(dp3704
g62
(dp3705
sg71
g3405
sg64
(lp3706
g57
(g78
g59
NtRp3707
(dp3708
g62
(dp3709
g82
g83
ssg71
g3703
sg64
(lp3710
S'PATH_INFO'
p3711
asbag57
(g78
g59
NtRp3712
(dp3713
g62
(dp3714
g89
g90
ssg71
g3703
sg64
(lp3715
S':'
asbag57
(g78
g59
NtRp3716
(dp3717
g62
(dp3718
sg71
g3703
sg64
(lp3719
g57
(g58
g59
NtRp3720
(dp3721
g62
(dp3722
g70
I3
ssg71
g3716
sg64
(lp3723
g1351
asbasbasbag57
(g73
g59
NtRp3724
(dp3725
g62
(dp3726
sg71
g3405
sg64
(lp3727
g57
(g78
g59
NtRp3728
(dp3729
g62
(dp3730
g82
g83
ssg71
g3724
sg64
(lp3731
S'QUERY_STRING'
p3732
asbag57
(g78
g59
NtRp3733
(dp3734
g62
(dp3735
g89
g90
ssg71
g3724
sg64
(lp3736
S':'
asbag57
(g78
g59
NtRp3737
(dp3738
g62
(dp3739
sg71
g3724
sg64
(lp3740
g57
(g58
g59
NtRp3741
(dp3742
g62
(dp3743
g70
I3
ssg71
g3737
sg64
(lp3744
S''
asbasbasbag57
(g73
g59
NtRp3745
(dp3746
g62
(dp3747
sg71
g3405
sg64
(lp3748
g57
(g78
g59
NtRp3749
(dp3750
g62
(dp3751
g82
g83
ssg71
g3745
sg64
(lp3752
S'REMOTE_ADDR'
p3753
asbag57
(g78
g59
NtRp3754
(dp3755
g62
(dp3756
g89
g90
ssg71
g3745
sg64
(lp3757
S':'
asbag57
(g78
g59
NtRp3758
(dp3759
g62
(dp3760
sg71
g3745
sg64
(lp3761
g57
(g58
g59
NtRp3762
(dp3763
g62
(dp3764
g70
I3
ssg71
g3758
sg64
(lp3765
g190
asbasbasbag57
(g73
g59
NtRp3766
(dp3767
g62
(dp3768
sg71
g3405
sg64
(lp3769
g57
(g78
g59
NtRp3770
(dp3771
g62
(dp3772
g82
g83
ssg71
g3766
sg64
(lp3773
S'REMOTE_PORT'
p3774
asbag57
(g78
g59
NtRp3775
(dp3776
g62
(dp3777
g89
g90
ssg71
g3766
sg64
(lp3778
S':'
asbag57
(g78
g59
NtRp3779
(dp3780
g62
(dp3781
sg71
g3766
sg64
(lp3782
g57
(g58
g59
NtRp3783
(dp3784
g62
(dp3785
g70
I3
ssg71
g3779
sg64
(lp3786
g1415
asbasbasbag57
(g73
g59
NtRp3787
(dp3788
g62
(dp3789
sg71
g3405
sg64
(lp3790
g57
(g78
g59
NtRp3791
(dp3792
g62
(dp3793
g82
g83
ssg71
g3787
sg64
(lp3794
S'REQUEST_METHOD'
p3795
asbag57
(g78
g59
NtRp3796
(dp3797
g62
(dp3798
g89
g90
ssg71
g3787
sg64
(lp3799
S':'
asbag57
(g78
g59
NtRp3800
(dp3801
g62
(dp3802
sg71
g3787
sg64
(lp3803
g57
(g58
g59
NtRp3804
(dp3805
g62
(dp3806
g70
I3
ssg71
g3800
sg64
(lp3807
g1437
asbasbasbag57
(g73
g59
NtRp3808
(dp3809
g62
(dp3810
sg71
g3405
sg64
(lp3811
g57
(g78
g59
NtRp3812
(dp3813
g62
(dp3814
g82
g83
ssg71
g3808
sg64
(lp3815
S'SCRIPT_NAME'
p3816
asbag57
(g78
g59
NtRp3817
(dp3818
g62
(dp3819
g89
g90
ssg71
g3808
sg64
(lp3820
S':'
asbag57
(g78
g59
NtRp3821
(dp3822
g62
(dp3823
sg71
g3808
sg64
(lp3824
g57
(g58
g59
NtRp3825
(dp3826
g62
(dp3827
g70
I3
ssg71
g3821
sg64
(lp3828
S''
asbasbasbag57
(g73
g59
NtRp3829
(dp3830
g62
(dp3831
sg71
g3405
sg64
(lp3832
g57
(g78
g59
NtRp3833
(dp3834
g62
(dp3835
g82
g83
ssg71
g3829
sg64
(lp3836
S'SERVER_NAME'
p3837
asbag57
(g78
g59
NtRp3838
(dp3839
g62
(dp3840
g89
g90
ssg71
g3829
sg64
(lp3841
S':'
asbag57
(g78
g59
NtRp3842
(dp3843
g62
(dp3844
sg71
g3829
sg64
(lp3845
g57
(g58
g59
NtRp3846
(dp3847
g62
(dp3848
g70
I3
ssg71
g3842
sg64
(lp3849
g1480
asbasbasbag57
(g73
g59
NtRp3850
(dp3851
g62
(dp3852
sg71
g3405
sg64
(lp3853
g57
(g78
g59
NtRp3854
(dp3855
g62
(dp3856
g82
g83
ssg71
g3850
sg64
(lp3857
S'SERVER_PORT'
p3858
asbag57
(g78
g59
NtRp3859
(dp3860
g62
(dp3861
g89
g90
ssg71
g3850
sg64
(lp3862
S':'
asbag57
(g78
g59
NtRp3863
(dp3864
g62
(dp3865
sg71
g3850
sg64
(lp3866
g57
(g58
g59
NtRp3867
(dp3868
g62
(dp3869
g70
I3
ssg71
g3863
sg64
(lp3870
g1502
asbasbasbag57
(g73
g59
NtRp3871
(dp3872
g62
(dp3873
sg71
g3405
sg64
(lp3874
g57
(g78
g59
NtRp3875
(dp3876
g62
(dp3877
g82
g83
ssg71
g3871
sg64
(lp3878
S'SERVER_PROTOCOL'
p3879
asbag57
(g78
g59
NtRp3880
(dp3881
g62
(dp3882
g89
g90
ssg71
g3871
sg64
(lp3883
S':'
asbag57
(g78
g59
NtRp3884
(dp3885
g62
(dp3886
sg71
g3871
sg64
(lp3887
g57
(g58
g59
NtRp3888
(dp3889
g62
(dp3890
g70
I3
ssg71
g3884
sg64
(lp3891
g1524
asbasbasbag57
(g73
g59
NtRp3892
(dp3893
g62
(dp3894
sg71
g3405
sg64
(lp3895
g57
(g78
g59
NtRp3896
(dp3897
g62
(dp3898
g82
g83
ssg71
g3892
sg64
(lp3899
S'SERVER_SOFTWARE'
p3900
asbag57
(g78
g59
NtRp3901
(dp3902
g62
(dp3903
g89
g90
ssg71
g3892
sg64
(lp3904
S':'
asbag57
(g78
g59
NtRp3905
(dp3906
g62
(dp3907
sg71
g3892
sg64
(lp3908
g57
(g58
g59
NtRp3909
(dp3910
g62
(dp3911
g70
I3
ssg71
g3905
sg64
(lp3912
g1546
asbasbasbag57
(g73
g59
NtRp3913
(dp3914
g62
(dp3915
sg71
g3405
sg64
(lp3916
g57
(g78
g59
NtRp3917
(dp3918
g62
(dp3919
g82
g83
ssg71
g3913
sg64
(lp3920
S'wsgi.errors'
p3921
asbag57
(g78
g59
NtRp3922
(dp3923
g62
(dp3924
g89
g90
ssg71
g3913
sg64
(lp3925
S':'
asbag57
(g78
g59
NtRp3926
(dp3927
g62
(dp3928
sg71
g3913
sg64
(lp3929
g57
(g58
g59
NtRp3930
(dp3931
g62
(dp3932
g70
I3
ssg71
g3926
sg64
(lp3933
S"<open file '<stderr>', mode 'w' at 0x7fc745470270>"
p3934
asbasbasbag57
(g73
g59
NtRp3935
(dp3936
g62
(dp3937
sg71
g3405
sg64
(lp3938
g57
(g78
g59
NtRp3939
(dp3940
g62
(dp3941
g82
g83
ssg71
g3935
sg64
(lp3942
S'wsgi.file_wrapper'
p3943
asbag57
(g78
g59
NtRp3944
(dp3945
g62
(dp3946
g89
g90
ssg71
g3935
sg64
(lp3947
S':'
asbag57
(g78
g59
NtRp3948
(dp3949
g62
(dp3950
sg71
g3935
sg64
(lp3951
g57
(g58
g59
NtRp3952
(dp3953
g62
(dp3954
g70
I3
ssg71
g3948
sg64
(lp3955
S'<class wsgiref.util.FileWrapper at 0x187a258>'
p3956
asbasbasbag57
(g73
g59
NtRp3957
(dp3958
g62
(dp3959
sg71
g3405
sg64
(lp3960
g57
(g78
g59
NtRp3961
(dp3962
g62
(dp3963
g82
g83
ssg71
g3957
sg64
(lp3964
S'wsgi.input'
p3965
asbag57
(g78
g59
NtRp3966
(dp3967
g62
(dp3968
g89
g90
ssg71
g3957
sg64
(lp3969
S':'
asbag57
(g78
g59
NtRp3970
(dp3971
g62
(dp3972
sg71
g3957
sg64
(lp3973
g57
(g58
g59
NtRp3974
(dp3975
g62
(dp3976
g70
I3
ssg71
g3970
sg64
(lp3977
S"<open file '<fdopen>', mode 'w+b' at 0x7fc7040ca6f0>"
p3978
asbasbasbag57
(g73
g59
NtRp3979
(dp3980
g62
(dp3981
sg71
g3405
sg64
(lp3982
g57
(g78
g59
NtRp3983
(dp3984
g62
(dp3985
g82
g83
ssg71
g3979
sg64
(lp3986
S'wsgi.multiprocess'
p3987
asbag57
(g78
g59
NtRp3988
(dp3989
g62
(dp3990
g89
g90
ssg71
g3979
sg64
(lp3991
S':'
asbag57
(g78
g59
NtRp3992
(dp3993
g62
(dp3994
sg71
g3979
sg64
(lp3995
g57
(g58
g59
NtRp3996
(dp3997
g62
(dp3998
g70
I3
ssg71
g3992
sg64
(lp3999
g100
asbasbasbag57
(g73
g59
NtRp4000
(dp4001
g62
(dp4002
sg71
g3405
sg64
(lp4003
g57
(g78
g59
NtRp4004
(dp4005
g62
(dp4006
g82
g83
ssg71
g4000
sg64
(lp4007
S'wsgi.multithread'
p4008
asbag57
(g78
g59
NtRp4009
(dp4010
g62
(dp4011
g89
g90
ssg71
g4000
sg64
(lp4012
S':'
asbag57
(g78
g59
NtRp4013
(dp4014
g62
(dp4015
sg71
g4000
sg64
(lp4016
g57
(g58
g59
NtRp4017
(dp4018
g62
(dp4019
g70
I3
ssg71
g4013
sg64
(lp4020
g1786
asbasbasbag57
(g73
g59
NtRp4021
(dp4022
g62
(dp4023
sg71
g3405
sg64
(lp4024
g57
(g78
g59
NtRp4025
(dp4026
g62
(dp4027
g82
g83
ssg71
g4021
sg64
(lp4028
S'wsgi.run_once'
p4029
asbag57
(g78
g59
NtRp4030
(dp4031
g62
(dp4032
g89
g90
ssg71
g4021
sg64
(lp4033
S':'
asbag57
(g78
g59
NtRp4034
(dp4035
g62
(dp4036
sg71
g4021
sg64
(lp4037
g57
(g58
g59
NtRp4038
(dp4039
g62
(dp4040
g70
I3
ssg71
g4034
sg64
(lp4041
g100
asbasbasbag57
(g73
g59
NtRp4042
(dp4043
g62
(dp4044
sg71
g3405
sg64
(lp4045
g57
(g78
g59
NtRp4046
(dp4047
g62
(dp4048
g82
g83
ssg71
g4042
sg64
(lp4049
S'wsgi.url_scheme'
p4050
asbag57
(g78
g59
NtRp4051
(dp4052
g62
(dp4053
g89
g90
ssg71
g4042
sg64
(lp4054
S':'
asbag57
(g78
g59
NtRp4055
(dp4056
g62
(dp4057
sg71
g4042
sg64
(lp4058
g57
(g58
g59
NtRp4059
(dp4060
g62
(dp4061
g70
I3
ssg71
g4055
sg64
(lp4062
g1829
asbasbasbag57
(g73
g59
NtRp4063
(dp4064
g62
(dp4065
sg71
g3405
sg64
(lp4066
g57
(g78
g59
NtRp4067
(dp4068
g62
(dp4069
g82
g83
ssg71
g4063
sg64
(lp4070
S'wsgi.version'
p4071
asbag57
(g78
g59
NtRp4072
(dp4073
g62
(dp4074
g89
g90
ssg71
g4063
sg64
(lp4075
S':'
asbag57
(g78
g59
NtRp4076
(dp4077
g62
(dp4078
sg71
g4063
sg64
(lp4079
g57
(g58
g59
NtRp4080
(dp4081
g62
(dp4082
g70
I3
ssg71
g4076
sg64
(lp4083
S'1'
asbasbasbasbasbasbasbasbasbasbasbasbasbsS'frames'
p4084
(lp4085
(dp4086
S'file'
p4087
S'/usr/lib/pymodules/python2.7/gluon/restricted.py'
p4088
sS'dump'
p4089
(dp4090
S'environment'
p4091
S"{'A': <class 'gluon.html.A'>, 'Auth': <class 'gluon.tools.Auth'>, 'B': <class 'gluon.html.B'>, 'BEAUTIFY': <class 'gluon.html.BEAUTIFY'>, 'BODY': <class 'gluon.html.BODY'>, 'BR': <class 'gluon.html.BR'>, 'BUTTON': <class 'gluon.html.BUTTON'>, 'CAT': <class 'gluon.html.CAT'>, 'CENTER': <class 'gluon.html.CENTER'>, 'CLEANUP': <class 'gluon.validators.CLEANUP'>, ...}"
p4092
sS'ccode'
p4093
S'<code object <module> at 0x7fc6f4345730, file "/...ations/Hadoop/views/default/action.html", line 1>'
p4094
ssS'lnum'
p4095
I204
sS'lines'
p4096
(dp4097
I199
S'    try:'
p4098
sI200
S'        if type(code) == types.CodeType:'
p4099
sI201
S'            ccode = code'
p4100
sI202
S'        else:'
p4101
sI203
S'            ccode = compile2(code,layer)'
p4102
sI204
S'        exec ccode in environment'
p4103
sI205
S'    except HTTP:'
p4104
sI206
S'        raise'
p4105
sI207
S'    except RestrictedError:'
p4106
sI208
S'        # do not encapsulate (obfuscate) the original RestrictedError'
p4107
ssS'call'
p4108
S'(code="response.write(\'<h1>This is the default/action.h...   pass\\nresponse.write(\'\\\\n</ul>\\\\n\', escape=False)", environment={\'A\': <class \'gluon.html.A\'>, \'Auth\': <class \'gluon.tools.Auth\'>, \'B\': <class \'gluon.html.B\'>, \'BEAUTIFY\': <class \'gluon.html.BEAUTIFY\'>, \'BODY\': <class \'gluon.html.BODY\'>, \'BR\': <class \'gluon.html.BR\'>, \'BUTTON\': <class \'gluon.html.BUTTON\'>, \'CAT\': <class \'gluon.html.CAT\'>, \'CENTER\': <class \'gluon.html.CENTER\'>, \'CLEANUP\': <class \'gluon.validators.CLEANUP\'>, ...}, layer=\'/home/hduser/web2py/applications/Hadoop/views/default/action.html\')'
p4109
sS'func'
p4110
S'restricted'
p4111
sa(dp4112
g4087
S'/home/hduser/web2py/applications/Hadoop/views/default/action.html'
p4113
sg4089
(dp4114
S'br'
p4115
S'undefined'
p4116
ssg4095
I2
sg4096
(dp4117
I1
S"response.write('<h1>This is the default/action.html template</h1>\\n\\n</br>\\n\\n', escape=False)"
p4118
sI2
S'response.write(posvars)'
p4119
sI3
S"response.write('</br>\\n', escape=False)"
p4120
sI4
S"items = ['a', 'b', 'c']"
p4121
sI5
S"response.write('\\n<ul>\\n', escape=False)"
p4122
sI6
S'for item in items:'
p4123
sI7
S"    response.write('<li>', escape=False)"
p4124
sI8
S'    response.write(item)'
p4125
sI9
S"    response.write('</li>', escape=False)"
p4126
sI10
S'    pass'
p4127
sI11
S"response.write('\\n</ul>\\n', escape=False)"
p4128
ssg4108
S'()'
p4129
sg4110
S'<module>'
p4130
sasS'pyver'
p4131
S'Python 2.7.3: /usr/bin/python'
p4132
sS'session'
p4133
g57
(g58
g59
NtRp4134
(dp4135
g62
(dp4136
sg64
(lp4137
g57
(g66
g59
NtRp4138
(dp4139
g62
(dp4140
g70
I5
ssg71
Nsg64
(lp4141
sbasbsS'etype'
p4142
S"<type 'exceptions.NameError'>"
p4143
sS'date'
p4144
S'Thu Jan 23 00:16:14 2014'
p4145
sS'response'
p4146
g57
(g58
g59
NtRp4147
(dp4148
g62
(dp4149
sg64
(lp4150
g57
(g66
g59
NtRp4151
(dp4152
g62
(dp4153
g70
I5
ssg71
Nsg64
(lp4154
g57
(g73
g59
NtRp4155
(dp4156
g62
(dp4157
sg71
g4151
sg64
(lp4158
g57
(g78
g59
NtRp4159
(dp4160
g62
(dp4161
g82
g83
ssg71
g4155
sg64
(lp4162
g155
asbag57
(g78
g59
NtRp4163
(dp4164
g62
(dp4165
g89
g90
ssg71
g4155
sg64
(lp4166
S':'
asbag57
(g78
g59
NtRp4167
(dp4168
g62
(dp4169
sg71
g4155
sg64
(lp4170
g57
(g58
g59
NtRp4171
(dp4172
g62
(dp4173
g70
I5
ssg71
g4167
sg64
(lp4174
S'<cStringIO.StringO object at 0x7fc6f0312ce0>'
p4175
asbasbasbag57
(g73
g59
NtRp4176
(dp4177
g62
(dp4178
sg71
g4151
sg64
(lp4179
g57
(g78
g59
NtRp4180
(dp4181
g62
(dp4182
g82
g83
ssg71
g4176
sg64
(lp4183
g221
asbag57
(g78
g59
NtRp4184
(dp4185
g62
(dp4186
g89
g90
ssg71
g4176
sg64
(lp4187
S':'
asbag57
(g78
g59
NtRp4188
(dp4189
g62
(dp4190
sg71
g4176
sg64
(lp4191
g57
(g58
g59
NtRp4192
(dp4193
g62
(dp4194
g70
I5
ssg71
g4188
sg64
(lp4195
g57
(g66
g59
NtRp4196
(dp4197
g62
(dp4198
g70
I4
ssg71
Nsg64
(lp4199
g57
(g73
g59
NtRp4200
(dp4201
g62
(dp4202
sg71
g4196
sg64
(lp4203
g57
(g78
g59
NtRp4204
(dp4205
g62
(dp4206
g82
g83
ssg71
g4200
sg64
(lp4207
S'session_id_hadoop'
p4208
asbag57
(g78
g59
NtRp4209
(dp4210
g62
(dp4211
g89
g90
ssg71
g4200
sg64
(lp4212
S':'
asbag57
(g78
g59
NtRp4213
(dp4214
g62
(dp4215
sg71
g4200
sg64
(lp4216
g57
(g58
g59
NtRp4217
(dp4218
g62
(dp4219
g70
I4
ssg71
g4213
sg64
(lp4220
g57
(g66
g59
NtRp4221
(dp4222
g62
(dp4223
g70
I3
ssg71
Nsg64
(lp4224
g57
(g73
g59
NtRp4225
(dp4226
g62
(dp4227
sg71
g4221
sg64
(lp4228
g57
(g78
g59
NtRp4229
(dp4230
g62
(dp4231
g82
g83
ssg71
g4225
sg64
(lp4232
g271
asbag57
(g78
g59
NtRp4233
(dp4234
g62
(dp4235
g89
g90
ssg71
g4225
sg64
(lp4236
S':'
asbag57
(g78
g59
NtRp4237
(dp4238
g62
(dp4239
sg71
g4225
sg64
(lp4240
g57
(g58
g59
NtRp4241
(dp4242
g62
(dp4243
g70
I3
ssg71
g4237
sg64
(lp4244
S''
asbasbasbag57
(g73
g59
NtRp4245
(dp4246
g62
(dp4247
sg71
g4221
sg64
(lp4248
g57
(g78
g59
NtRp4249
(dp4250
g62
(dp4251
g82
g83
ssg71
g4245
sg64
(lp4252
g292
asbag57
(g78
g59
NtRp4253
(dp4254
g62
(dp4255
g89
g90
ssg71
g4245
sg64
(lp4256
S':'
asbag57
(g78
g59
NtRp4257
(dp4258
g62
(dp4259
sg71
g4245
sg64
(lp4260
g57
(g58
g59
NtRp4261
(dp4262
g62
(dp4263
g70
I3
ssg71
g4257
sg64
(lp4264
S''
asbasbasbag57
(g73
g59
NtRp4265
(dp4266
g62
(dp4267
sg71
g4221
sg64
(lp4268
g57
(g78
g59
NtRp4269
(dp4270
g62
(dp4271
g82
g83
ssg71
g4265
sg64
(lp4272
g313
asbag57
(g78
g59
NtRp4273
(dp4274
g62
(dp4275
g89
g90
ssg71
g4265
sg64
(lp4276
S':'
asbag57
(g78
g59
NtRp4277
(dp4278
g62
(dp4279
sg71
g4265
sg64
(lp4280
g57
(g58
g59
NtRp4281
(dp4282
g62
(dp4283
g70
I3
ssg71
g4277
sg64
(lp4284
S''
asbasbasbag57
(g73
g59
NtRp4285
(dp4286
g62
(dp4287
sg71
g4221
sg64
(lp4288
g57
(g78
g59
NtRp4289
(dp4290
g62
(dp4291
g82
g83
ssg71
g4285
sg64
(lp4292
g334
asbag57
(g78
g59
NtRp4293
(dp4294
g62
(dp4295
g89
g90
ssg71
g4285
sg64
(lp4296
S':'
asbag57
(g78
g59
NtRp4297
(dp4298
g62
(dp4299
sg71
g4285
sg64
(lp4300
g57
(g58
g59
NtRp4301
(dp4302
g62
(dp4303
g70
I3
ssg71
g4297
sg64
(lp4304
S''
asbasbasbag57
(g73
g59
NtRp4305
(dp4306
g62
(dp4307
sg71
g4221
sg64
(lp4308
g57
(g78
g59
NtRp4309
(dp4310
g62
(dp4311
g82
g83
ssg71
g4305
sg64
(lp4312
g355
asbag57
(g78
g59
NtRp4313
(dp4314
g62
(dp4315
g89
g90
ssg71
g4305
sg64
(lp4316
S':'
asbag57
(g78
g59
NtRp4317
(dp4318
g62
(dp4319
sg71
g4305
sg64
(lp4320
g57
(g58
g59
NtRp4321
(dp4322
g62
(dp4323
g70
I3
ssg71
g4317
sg64
(lp4324
S''
asbasbasbag57
(g73
g59
NtRp4325
(dp4326
g62
(dp4327
sg71
g4221
sg64
(lp4328
g57
(g78
g59
NtRp4329
(dp4330
g62
(dp4331
g82
g83
ssg71
g4325
sg64
(lp4332
g376
asbag57
(g78
g59
NtRp4333
(dp4334
g62
(dp4335
g89
g90
ssg71
g4325
sg64
(lp4336
S':'
asbag57
(g78
g59
NtRp4337
(dp4338
g62
(dp4339
sg71
g4325
sg64
(lp4340
g57
(g58
g59
NtRp4341
(dp4342
g62
(dp4343
g70
I3
ssg71
g4337
sg64
(lp4344
S'/'
asbasbasbag57
(g73
g59
NtRp4345
(dp4346
g62
(dp4347
sg71
g4221
sg64
(lp4348
g57
(g78
g59
NtRp4349
(dp4350
g62
(dp4351
g82
g83
ssg71
g4345
sg64
(lp4352
g397
asbag57
(g78
g59
NtRp4353
(dp4354
g62
(dp4355
g89
g90
ssg71
g4345
sg64
(lp4356
S':'
asbag57
(g78
g59
NtRp4357
(dp4358
g62
(dp4359
sg71
g4345
sg64
(lp4360
g57
(g58
g59
NtRp4361
(dp4362
g62
(dp4363
g70
I3
ssg71
g4357
sg64
(lp4364
S''
asbasbasbag57
(g73
g59
NtRp4365
(dp4366
g62
(dp4367
sg71
g4221
sg64
(lp4368
g57
(g78
g59
NtRp4369
(dp4370
g62
(dp4371
g82
g83
ssg71
g4365
sg64
(lp4372
g418
asbag57
(g78
g59
NtRp4373
(dp4374
g62
(dp4375
g89
g90
ssg71
g4365
sg64
(lp4376
S':'
asbag57
(g78
g59
NtRp4377
(dp4378
g62
(dp4379
sg71
g4365
sg64
(lp4380
g57
(g58
g59
NtRp4381
(dp4382
g62
(dp4383
g70
I3
ssg71
g4377
sg64
(lp4384
S''
asbasbasbasbasbasbasbasbasbasbasbag57
(g73
g59
NtRp4385
(dp4386
g62
(dp4387
sg71
g4151
sg64
(lp4388
g57
(g78
g59
NtRp4389
(dp4390
g62
(dp4391
g82
g83
ssg71
g4385
sg64
(lp4392
S'files'
p4393
asbag57
(g78
g59
NtRp4394
(dp4395
g62
(dp4396
g89
g90
ssg71
g4385
sg64
(lp4397
S':'
asbag57
(g78
g59
NtRp4398
(dp4399
g62
(dp4400
sg71
g4385
sg64
(lp4401
g57
(g58
g59
NtRp4402
(dp4403
g62
(dp4404
g70
I5
ssg71
g4398
sg64
(lp4405
g57
(g66
g59
NtRp4406
(dp4407
g62
(dp4408
g70
I4
ssg71
Nsg64
(lp4409
sbasbasbasbag57
(g73
g59
NtRp4410
(dp4411
g62
(dp4412
sg71
g4151
sg64
(lp4413
g57
(g78
g59
NtRp4414
(dp4415
g62
(dp4416
g82
g83
ssg71
g4410
sg64
(lp4417
S'flash'
p4418
asbag57
(g78
g59
NtRp4419
(dp4420
g62
(dp4421
g89
g90
ssg71
g4410
sg64
(lp4422
S':'
asbag57
(g78
g59
NtRp4423
(dp4424
g62
(dp4425
sg71
g4410
sg64
(lp4426
g57
(g58
g59
NtRp4427
(dp4428
g62
(dp4429
g70
I5
ssg71
g4423
sg64
(lp4430
S''
asbasbasbag57
(g73
g59
NtRp4431
(dp4432
g62
(dp4433
sg71
g4151
sg64
(lp4434
g57
(g78
g59
NtRp4435
(dp4436
g62
(dp4437
g82
g83
ssg71
g4431
sg64
(lp4438
S'generic_patterns'
p4439
asbag57
(g78
g59
NtRp4440
(dp4441
g62
(dp4442
g89
g90
ssg71
g4431
sg64
(lp4443
S':'
asbag57
(g78
g59
NtRp4444
(dp4445
g62
(dp4446
sg71
g4431
sg64
(lp4447
g57
(g58
g59
NtRp4448
(dp4449
g62
(dp4450
g70
I5
ssg71
g4444
sg64
(lp4451
g57
(g66
g59
NtRp4452
(dp4453
g62
(dp4454
g70
I4
ssg71
Nsg64
(lp4455
g57
(g73
g59
NtRp4456
(dp4457
g62
(dp4458
sg71
g4452
sg64
(lp4459
g57
(g78
g59
NtRp4460
(dp4461
g62
(dp4462
sg71
g4456
sg64
(lp4463
g57
(g58
g59
NtRp4464
(dp4465
g62
(dp4466
g70
I4
ssg71
g4460
sg64
(lp4467
S'*'
asbasbasbasbasbasbasbag57
(g73
g59
NtRp4468
(dp4469
g62
(dp4470
sg71
g4151
sg64
(lp4471
g57
(g78
g59
NtRp4472
(dp4473
g62
(dp4474
g82
g83
ssg71
g4468
sg64
(lp4475
S'headers'
p4476
asbag57
(g78
g59
NtRp4477
(dp4478
g62
(dp4479
g89
g90
ssg71
g4468
sg64
(lp4480
S':'
asbag57
(g78
g59
NtRp4481
(dp4482
g62
(dp4483
sg71
g4468
sg64
(lp4484
g57
(g58
g59
NtRp4485
(dp4486
g62
(dp4487
g70
I5
ssg71
g4481
sg64
(lp4488
g57
(g66
g59
NtRp4489
(dp4490
g62
(dp4491
g70
I4
ssg71
Nsg64
(lp4492
g57
(g73
g59
NtRp4493
(dp4494
g62
(dp4495
sg71
g4489
sg64
(lp4496
g57
(g78
g59
NtRp4497
(dp4498
g62
(dp4499
g82
g83
ssg71
g4493
sg64
(lp4500
S'Cache-Control'
p4501
asbag57
(g78
g59
NtRp4502
(dp4503
g62
(dp4504
g89
g90
ssg71
g4493
sg64
(lp4505
S':'
asbag57
(g78
g59
NtRp4506
(dp4507
g62
(dp4508
sg71
g4493
sg64
(lp4509
g57
(g58
g59
NtRp4510
(dp4511
g62
(dp4512
g70
I4
ssg71
g4506
sg64
(lp4513
S'no-store, no-cache, must-revalidate, post-check=0, pre-check=0'
p4514
asbasbasbag57
(g73
g59
NtRp4515
(dp4516
g62
(dp4517
sg71
g4489
sg64
(lp4518
g57
(g78
g59
NtRp4519
(dp4520
g62
(dp4521
g82
g83
ssg71
g4515
sg64
(lp4522
S'Content-Type'
p4523
asbag57
(g78
g59
NtRp4524
(dp4525
g62
(dp4526
g89
g90
ssg71
g4515
sg64
(lp4527
S':'
asbag57
(g78
g59
NtRp4528
(dp4529
g62
(dp4530
sg71
g4515
sg64
(lp4531
g57
(g58
g59
NtRp4532
(dp4533
g62
(dp4534
g70
I4
ssg71
g4528
sg64
(lp4535
S'text/html; charset=utf-8'
p4536
asbasbasbag57
(g73
g59
NtRp4537
(dp4538
g62
(dp4539
sg71
g4489
sg64
(lp4540
g57
(g78
g59
NtRp4541
(dp4542
g62
(dp4543
g82
g83
ssg71
g4537
sg64
(lp4544
S'Expires'
p4545
asbag57
(g78
g59
NtRp4546
(dp4547
g62
(dp4548
g89
g90
ssg71
g4537
sg64
(lp4549
S':'
asbag57
(g78
g59
NtRp4550
(dp4551
g62
(dp4552
sg71
g4537
sg64
(lp4553
g57
(g58
g59
NtRp4554
(dp4555
g62
(dp4556
g70
I4
ssg71
g4550
sg64
(lp4557
S'Wed, 22 Jan 2014 18:46:14 GMT'
p4558
asbasbasbag57
(g73
g59
NtRp4559
(dp4560
g62
(dp4561
sg71
g4489
sg64
(lp4562
g57
(g78
g59
NtRp4563
(dp4564
g62
(dp4565
g82
g83
ssg71
g4559
sg64
(lp4566
S'Pragma'
p4567
asbag57
(g78
g59
NtRp4568
(dp4569
g62
(dp4570
g89
g90
ssg71
g4559
sg64
(lp4571
S':'
asbag57
(g78
g59
NtRp4572
(dp4573
g62
(dp4574
sg71
g4559
sg64
(lp4575
g57
(g58
g59
NtRp4576
(dp4577
g62
(dp4578
g70
I4
ssg71
g4572
sg64
(lp4579
S'no-cache'
p4580
asbasbasbag57
(g73
g59
NtRp4581
(dp4582
g62
(dp4583
sg71
g4489
sg64
(lp4584
g57
(g78
g59
NtRp4585
(dp4586
g62
(dp4587
g82
g83
ssg71
g4581
sg64
(lp4588
S'X-Powered-By'
p4589
asbag57
(g78
g59
NtRp4590
(dp4591
g62
(dp4592
g89
g90
ssg71
g4581
sg64
(lp4593
S':'
asbag57
(g78
g59
NtRp4594
(dp4595
g62
(dp4596
sg71
g4581
sg64
(lp4597
g57
(g58
g59
NtRp4598
(dp4599
g62
(dp4600
g70
I4
ssg71
g4594
sg64
(lp4601
S'web2py'
p4602
asbasbasbasbasbasbasbag57
(g73
g59
NtRp4603
(dp4604
g62
(dp4605
sg71
g4151
sg64
(lp4606
g57
(g78
g59
NtRp4607
(dp4608
g62
(dp4609
g82
g83
ssg71
g4603
sg64
(lp4610
S'menu'
p4611
asbag57
(g78
g59
NtRp4612
(dp4613
g62
(dp4614
g89
g90
ssg71
g4603
sg64
(lp4615
S':'
asbag57
(g78
g59
NtRp4616
(dp4617
g62
(dp4618
sg71
g4603
sg64
(lp4619
g57
(g58
g59
NtRp4620
(dp4621
g62
(dp4622
g70
I5
ssg71
g4616
sg64
(lp4623
g57
(g66
g59
NtRp4624
(dp4625
g62
(dp4626
g70
I4
ssg71
Nsg64
(lp4627
g57
(g73
g59
NtRp4628
(dp4629
g62
(dp4630
sg71
g4624
sg64
(lp4631
g57
(g78
g59
NtRp4632
(dp4633
g62
(dp4634
sg71
g4628
sg64
(lp4635
g57
(g58
g59
NtRp4636
(dp4637
g62
(dp4638
g70
I4
ssg71
g4632
sg64
(lp4639
g57
(g66
g59
NtRp4640
(dp4641
g62
(dp4642
g70
I3
ssg71
Nsg64
(lp4643
g57
(g73
g59
NtRp4644
(dp4645
g62
(dp4646
sg71
g4640
sg64
(lp4647
g57
(g78
g59
NtRp4648
(dp4649
g62
(dp4650
sg71
g4644
sg64
(lp4651
g57
(g58
g59
NtRp4652
(dp4653
g62
(dp4654
g70
I3
ssg71
g4648
sg64
(lp4655
cgluon.languages
lazyT_unpickle
p4656
(S't\x04\x00\x00\x00Home'
tRp4657
asbasbasbag57
(g73
g59
NtRp4658
(dp4659
g62
(dp4660
sg71
g4640
sg64
(lp4661
g57
(g78
g59
NtRp4662
(dp4663
g62
(dp4664
sg71
g4658
sg64
(lp4665
g57
(g58
g59
NtRp4666
(dp4667
g62
(dp4668
g70
I3
ssg71
g4662
sg64
(lp4669
g100
asbasbasbag57
(g73
g59
NtRp4670
(dp4671
g62
(dp4672
sg71
g4640
sg64
(lp4673
g57
(g78
g59
NtRp4674
(dp4675
g62
(dp4676
sg71
g4670
sg64
(lp4677
g57
(g58
g59
NtRp4678
(dp4679
g62
(dp4680
g70
I3
ssg71
g4674
sg64
(lp4681
S'/Hadoop/default/index'
p4682
asbasbasbag57
(g73
g59
NtRp4683
(dp4684
g62
(dp4685
sg71
g4640
sg64
(lp4686
g57
(g78
g59
NtRp4687
(dp4688
g62
(dp4689
sg71
g4683
sg64
(lp4690
g57
(g58
g59
NtRp4691
(dp4692
g62
(dp4693
g70
I3
ssg71
g4687
sg64
(lp4694
g57
(g66
g59
NtRp4695
(dp4696
g62
(dp4697
g70
I2
ssg71
Nsg64
(lp4698
sbasbasbasbasbasbasbasbag57
(g73
g59
NtRp4699
(dp4700
g62
(dp4701
sg71
g4624
sg64
(lp4702
g57
(g78
g59
NtRp4703
(dp4704
g62
(dp4705
sg71
g4699
sg64
(lp4706
g57
(g58
g59
NtRp4707
(dp4708
g62
(dp4709
g70
I4
ssg71
g4703
sg64
(lp4710
g57
(g66
g59
NtRp4711
(dp4712
g62
(dp4713
g70
I3
ssg71
Nsg64
(lp4714
g57
(g73
g59
NtRp4715
(dp4716
g62
(dp4717
sg71
g4711
sg64
(lp4718
g57
(g78
g59
NtRp4719
(dp4720
g62
(dp4721
sg71
g4715
sg64
(lp4722
g57
(g58
g59
NtRp4723
(dp4724
g62
(dp4725
g70
I3
ssg71
g4719
sg64
(lp4726
g57
(cgluon.html
SPAN
p4727
g59
NtRp4728
(dp4729
g62
(dp4730
g82
S'color:yellow'
p4731
ssg71
Nsg64
(lp4732
g4602
asbasbasbasbag57
(g73
g59
NtRp4733
(dp4734
g62
(dp4735
sg71
g4711
sg64
(lp4736
g57
(g78
g59
NtRp4737
(dp4738
g62
(dp4739
sg71
g4733
sg64
(lp4740
g57
(g58
g59
NtRp4741
(dp4742
g62
(dp4743
g70
I3
ssg71
g4737
sg64
(lp4744
g100
asbasbasbag57
(g73
g59
NtRp4745
(dp4746
g62
(dp4747
sg71
g4711
sg64
(lp4748
g57
(g78
g59
NtRp4749
(dp4750
g62
(dp4751
sg71
g4745
sg64
(lp4752
g57
(g58
g59
NtRp4753
(dp4754
g62
(dp4755
g70
I3
ssg71
g4749
sg64
(lp4756
S'None'
p4757
asbasbasbag57
(g73
g59
NtRp4758
(dp4759
g62
(dp4760
sg71
g4711
sg64
(lp4761
g57
(g78
g59
NtRp4762
(dp4763
g62
(dp4764
sg71
g4758
sg64
(lp4765
g57
(g58
g59
NtRp4766
(dp4767
g62
(dp4768
g70
I3
ssg71
g4762
sg64
(lp4769
g57
(g66
g59
NtRp4770
(dp4771
g62
(dp4772
g70
I2
ssg71
Nsg64
(lp4773
g57
(g73
g59
NtRp4774
(dp4775
g62
(dp4776
sg71
g4770
sg64
(lp4777
g57
(g78
g59
NtRp4778
(dp4779
g62
(dp4780
sg71
g4774
sg64
(lp4781
g57
(g58
g59
NtRp4782
(dp4783
g62
(dp4784
g70
I2
ssg71
g4778
sg64
(lp4785
g57
(g66
g59
NtRp4786
(dp4787
g62
(dp4788
g70
I1
ssg71
Nsg64
(lp4789
g57
(g73
g59
NtRp4790
(dp4791
g62
(dp4792
sg71
g4786
sg64
(lp4793
g57
(g78
g59
NtRp4794
(dp4795
g62
(dp4796
sg71
g4790
sg64
(lp4797
g57
(g58
g59
NtRp4798
(dp4799
g62
(dp4800
g70
I1
ssg71
g4794
sg64
(lp4801
g4656
(S's\x08\x00\x00\x00My Sites'
tRp4802
asbasbasbag57
(g73
g59
NtRp4803
(dp4804
g62
(dp4805
sg71
g4786
sg64
(lp4806
g57
(g78
g59
NtRp4807
(dp4808
g62
(dp4809
sg71
g4803
sg64
(lp4810
g57
(g58
g59
NtRp4811
(dp4812
g62
(dp4813
g70
I1
ssg71
g4807
sg64
(lp4814
I00
asbasbasbag57
(g73
g59
NtRp4815
(dp4816
g62
(dp4817
sg71
g4786
sg64
(lp4818
g57
(g78
g59
NtRp4819
(dp4820
g62
(dp4821
sg71
g4815
sg64
(lp4822
g57
(g58
g59
NtRp4823
(dp4824
g62
(dp4825
g70
I1
ssg71
g4819
sg64
(lp4826
S'/admin/default/site'
p4827
asbasbasbasbasbasbasbag57
(g73
g59
NtRp4828
(dp4829
g62
(dp4830
sg71
g4770
sg64
(lp4831
g57
(g78
g59
NtRp4832
(dp4833
g62
(dp4834
sg71
g4828
sg64
(lp4835
g57
(g58
g59
NtRp4836
(dp4837
g62
(dp4838
g70
I2
ssg71
g4832
sg64
(lp4839
g57
(g66
g59
NtRp4840
(dp4841
g62
(dp4842
g70
I1
ssg71
Nsg64
(lp4843
g57
(g73
g59
NtRp4844
(dp4845
g62
(dp4846
sg71
g4840
sg64
(lp4847
g57
(g78
g59
NtRp4848
(dp4849
g62
(dp4850
sg71
g4844
sg64
(lp4851
g57
(g58
g59
NtRp4852
(dp4853
g62
(dp4854
g70
I1
ssg71
g4848
sg64
(lp4855
g4656
(S's\x08\x00\x00\x00This App'
tRp4856
asbasbasbag57
(g73
g59
NtRp4857
(dp4858
g62
(dp4859
sg71
g4840
sg64
(lp4860
g57
(g78
g59
NtRp4861
(dp4862
g62
(dp4863
sg71
g4857
sg64
(lp4864
g57
(g58
g59
NtRp4865
(dp4866
g62
(dp4867
g70
I1
ssg71
g4861
sg64
(lp4868
I00
asbasbasbag57
(g73
g59
NtRp4869
(dp4870
g62
(dp4871
sg71
g4840
sg64
(lp4872
g57
(g78
g59
NtRp4873
(dp4874
g62
(dp4875
sg71
g4869
sg64
(lp4876
g57
(g58
g59
NtRp4877
(dp4878
g62
(dp4879
g70
I1
ssg71
g4873
sg64
(lp4880
S'/admin/default/design/Hadoop'
p4881
asbasbasbag57
(g73
g59
NtRp4882
(dp4883
g62
(dp4884
sg71
g4840
sg64
(lp4885
g57
(g78
g59
NtRp4886
(dp4887
g62
(dp4888
sg71
g4882
sg64
(lp4889
g57
(g58
g59
NtRp4890
(dp4891
g62
(dp4892
g70
I1
ssg71
g4886
sg64
(lp4893
(lp4894
(g4656
(S't\n\x00\x00\x00Controller'
tRp4895
I00
S'/admin/default/edit/Hadoop/controllers/default.py'
tp4896
a(g4656
(S't\x04\x00\x00\x00View'
tRp4897
I00
S'/admin/default/edit/Hadoop/views/default/action.html'
tp4898
a(g4656
(S't\x06\x00\x00\x00Layout'
tRp4899
I00
S'/admin/default/edit/Hadoop/views/layout.html'
tp4900
a(g4656
(S't\n\x00\x00\x00Stylesheet'
tRp4901
I00
S'/admin/default/edit/Hadoop/static/css/web2py.css'
tp4902
a(g4656
(S's\x08\x00\x00\x00DB Model'
tRp4903
I00
S'/admin/default/edit/Hadoop/models/db.py'
tp4904
a(g4656
(S's\n\x00\x00\x00Menu Model'
tRp4905
I00
S'/admin/default/edit/Hadoop/models/menu.py'
tp4906
a(g4656
(S't\x08\x00\x00\x00Database'
tRp4907
I00
S'/Hadoop/appadmin/index'
tp4908
a(g4656
(S't\x06\x00\x00\x00Errors'
tRp4909
I00
S'/admin/default/errors/Hadoop'
tp4910
a(g4656
(S't\x05\x00\x00\x00About'
tRp4911
I00
S'/admin/default/about/Hadoop'
tp4912
aasbasbasbasbasbasbasbag57
(g73
g59
NtRp4913
(dp4914
g62
(dp4915
sg71
g4770
sg64
(lp4916
g57
(g78
g59
NtRp4917
(dp4918
g62
(dp4919
sg71
g4913
sg64
(lp4920
g57
(g58
g59
NtRp4921
(dp4922
g62
(dp4923
g70
I2
ssg71
g4917
sg64
(lp4924
g57
(g66
g59
NtRp4925
(dp4926
g62
(dp4927
g70
I1
ssg71
Nsg64
(lp4928
g57
(g73
g59
NtRp4929
(dp4930
g62
(dp4931
sg71
g4925
sg64
(lp4932
g57
(g78
g59
NtRp4933
(dp4934
g62
(dp4935
sg71
g4929
sg64
(lp4936
g57
(g58
g59
NtRp4937
(dp4938
g62
(dp4939
g70
I1
ssg71
g4933
sg64
(lp4940
S'web2py.com'
p4941
asbasbasbag57
(g73
g59
NtRp4942
(dp4943
g62
(dp4944
sg71
g4925
sg64
(lp4945
g57
(g78
g59
NtRp4946
(dp4947
g62
(dp4948
sg71
g4942
sg64
(lp4949
g57
(g58
g59
NtRp4950
(dp4951
g62
(dp4952
g70
I1
ssg71
g4946
sg64
(lp4953
I00
asbasbasbag57
(g73
g59
NtRp4954
(dp4955
g62
(dp4956
sg71
g4925
sg64
(lp4957
g57
(g78
g59
NtRp4958
(dp4959
g62
(dp4960
sg71
g4954
sg64
(lp4961
g57
(g58
g59
NtRp4962
(dp4963
g62
(dp4964
g70
I1
ssg71
g4958
sg64
(lp4965
S'http://www.web2py.com'
p4966
asbasbasbag57
(g73
g59
NtRp4967
(dp4968
g62
(dp4969
sg71
g4925
sg64
(lp4970
g57
(g78
g59
NtRp4971
(dp4972
g62
(dp4973
sg71
g4967
sg64
(lp4974
g57
(g58
g59
NtRp4975
(dp4976
g62
(dp4977
g70
I1
ssg71
g4971
sg64
(lp4978
(lp4979
(g4656
(S't\x08\x00\x00\x00Download'
tRp4980
I00
S'http://www.web2py.com/examples/default/download'
p4981
tp4982
a(g4656
(S't\x07\x00\x00\x00Support'
tRp4983
I00
S'http://www.web2py.com/examples/default/support'
p4984
tp4985
a(g4656
(S't\x04\x00\x00\x00Demo'
tRp4986
I00
S'http://web2py.com/demo_admin'
p4987
tp4988
a(g4656
(S's\x0e\x00\x00\x00Quick Examples'
tRp4989
I00
S'http://web2py.com/examples/default/examples'
p4990
tp4991
a(g4656
(S't\x03\x00\x00\x00FAQ'
tRp4992
I00
S'http://web2py.com/AlterEgo'
p4993
tp4994
a(g4656
(S't\x06\x00\x00\x00Videos'
tRp4995
I00
S'http://www.web2py.com/examples/default/videos/'
p4996
tp4997
a(g4656
(S's\x11\x00\x00\x00Free Applications'
tRp4998
I00
S'http://web2py.com/appliances'
p4999
tp5000
a(g4656
(S't\x07\x00\x00\x00Plugins'
tRp5001
I00
S'http://web2py.com/plugins'
p5002
tp5003
a(g4656
(S't\x07\x00\x00\x00Layouts'
tRp5004
I00
S'http://web2py.com/layouts'
p5005
tp5006
a(g4656
(S't\x07\x00\x00\x00Recipes'
tRp5007
I00
S'http://web2pyslices.com/'
p5008
tp5009
a(g4656
(S't\x08\x00\x00\x00Semantic'
tRp5010
I00
S'http://web2py.com/semantic'
p5011
tp5012
aasbasbasbasbasbasbasbag57
(g73
g59
NtRp5013
(dp5014
g62
(dp5015
sg71
g4770
sg64
(lp5016
g57
(g78
g59
NtRp5017
(dp5018
g62
(dp5019
sg71
g5013
sg64
(lp5020
g57
(g58
g59
NtRp5021
(dp5022
g62
(dp5023
g70
I2
ssg71
g5017
sg64
(lp5024
g57
(g66
g59
NtRp5025
(dp5026
g62
(dp5027
g70
I1
ssg71
Nsg64
(lp5028
g57
(g73
g59
NtRp5029
(dp5030
g62
(dp5031
sg71
g5025
sg64
(lp5032
g57
(g78
g59
NtRp5033
(dp5034
g62
(dp5035
sg71
g5029
sg64
(lp5036
g57
(g58
g59
NtRp5037
(dp5038
g62
(dp5039
g70
I1
ssg71
g5033
sg64
(lp5040
g4656
(S't\r\x00\x00\x00Documentation'
tRp5041
asbasbasbag57
(g73
g59
NtRp5042
(dp5043
g62
(dp5044
sg71
g5025
sg64
(lp5045
g57
(g78
g59
NtRp5046
(dp5047
g62
(dp5048
sg71
g5042
sg64
(lp5049
g57
(g58
g59
NtRp5050
(dp5051
g62
(dp5052
g70
I1
ssg71
g5046
sg64
(lp5053
I00
asbasbasbag57
(g73
g59
NtRp5054
(dp5055
g62
(dp5056
sg71
g5025
sg64
(lp5057
g57
(g78
g59
NtRp5058
(dp5059
g62
(dp5060
sg71
g5054
sg64
(lp5061
g57
(g58
g59
NtRp5062
(dp5063
g62
(dp5064
g70
I1
ssg71
g5058
sg64
(lp5065
S'http://www.web2py.com/book'
p5066
asbasbasbag57
(g73
g59
NtRp5067
(dp5068
g62
(dp5069
sg71
g5025
sg64
(lp5070
g57
(g78
g59
NtRp5071
(dp5072
g62
(dp5073
sg71
g5067
sg64
(lp5074
g57
(g58
g59
NtRp5075
(dp5076
g62
(dp5077
g70
I1
ssg71
g5071
sg64
(lp5078
(lp5079
(g4656
(S't\x07\x00\x00\x00Preface'
tRp5080
I00
S'http://www.web2py.com/book/default/chapter/00'
p5081
tp5082
a(g4656
(S't\x0c\x00\x00\x00Introduction'
tRp5083
I00
S'http://www.web2py.com/book/default/chapter/01'
p5084
tp5085
a(g4656
(S't\x06\x00\x00\x00Python'
tRp5086
I00
S'http://www.web2py.com/book/default/chapter/02'
p5087
tp5088
a(g4656
(S't\x08\x00\x00\x00Overview'
tRp5089
I00
S'http://www.web2py.com/book/default/chapter/03'
p5090
tp5091
a(g4656
(S's\x08\x00\x00\x00The Core'
tRp5092
I00
S'http://www.web2py.com/book/default/chapter/04'
p5093
tp5094
a(g4656
(S's\t\x00\x00\x00The Views'
tRp5095
I00
S'http://www.web2py.com/book/default/chapter/05'
p5096
tp5097
a(g4656
(S't\x08\x00\x00\x00Database'
tRp5098
I00
S'http://www.web2py.com/book/default/chapter/06'
p5099
tp5100
a(g4656
(S's\x14\x00\x00\x00Forms and Validators'
tRp5101
I00
S'http://www.web2py.com/book/default/chapter/07'
p5102
tp5103
a(g4656
(S's\r\x00\x00\x00Email and SMS'
tRp5104
I00
S'http://www.web2py.com/book/default/chapter/08'
p5105
tp5106
a(g4656
(S's\x0e\x00\x00\x00Access Control'
tRp5107
I00
S'http://www.web2py.com/book/default/chapter/09'
p5108
tp5109
a(g4656
(S't\x08\x00\x00\x00Services'
tRp5110
I00
S'http://www.web2py.com/book/default/chapter/10'
p5111
tp5112
a(g4656
(S's\x0c\x00\x00\x00Ajax Recipes'
tRp5113
I00
S'http://www.web2py.com/book/default/chapter/11'
p5114
tp5115
a(g4656
(S's\x16\x00\x00\x00Components and Plugins'
tRp5116
I00
S'http://www.web2py.com/book/default/chapter/12'
p5117
tp5118
a(g4656
(S's\x12\x00\x00\x00Deployment Recipes'
tRp5119
I00
S'http://www.web2py.com/book/default/chapter/13'
p5120
tp5121
a(g4656
(S's\r\x00\x00\x00Other Recipes'
tRp5122
I00
S'http://www.web2py.com/book/default/chapter/14'
p5123
tp5124
a(g4656
(S's\r\x00\x00\x00Buy this book'
tRp5125
I00
S'http://stores.lulu.com/web2py'
p5126
tp5127
aasbasbasbasbasbasbasbag57
(g73
g59
NtRp5128
(dp5129
g62
(dp5130
sg71
g4770
sg64
(lp5131
g57
(g78
g59
NtRp5132
(dp5133
g62
(dp5134
sg71
g5128
sg64
(lp5135
g57
(g58
g59
NtRp5136
(dp5137
g62
(dp5138
g70
I2
ssg71
g5132
sg64
(lp5139
g57
(g66
g59
NtRp5140
(dp5141
g62
(dp5142
g70
I1
ssg71
Nsg64
(lp5143
g57
(g73
g59
NtRp5144
(dp5145
g62
(dp5146
sg71
g5140
sg64
(lp5147
g57
(g78
g59
NtRp5148
(dp5149
g62
(dp5150
sg71
g5144
sg64
(lp5151
g57
(g58
g59
NtRp5152
(dp5153
g62
(dp5154
g70
I1
ssg71
g5148
sg64
(lp5155
g4656
(S't\t\x00\x00\x00Community'
tRp5156
asbasbasbag57
(g73
g59
NtRp5157
(dp5158
g62
(dp5159
sg71
g5140
sg64
(lp5160
g57
(g78
g59
NtRp5161
(dp5162
g62
(dp5163
sg71
g5157
sg64
(lp5164
g57
(g58
g59
NtRp5165
(dp5166
g62
(dp5167
g70
I1
ssg71
g5161
sg64
(lp5168
I00
asbasbasbag57
(g73
g59
NtRp5169
(dp5170
g62
(dp5171
sg71
g5140
sg64
(lp5172
g57
(g78
g59
NtRp5173
(dp5174
g62
(dp5175
sg71
g5169
sg64
(lp5176
g57
(g58
g59
NtRp5177
(dp5178
g62
(dp5179
g70
I1
ssg71
g5173
sg64
(lp5180
Nasbasbasbag57
(g73
g59
NtRp5181
(dp5182
g62
(dp5183
sg71
g5140
sg64
(lp5184
g57
(g78
g59
NtRp5185
(dp5186
g62
(dp5187
sg71
g5181
sg64
(lp5188
g57
(g58
g59
NtRp5189
(dp5190
g62
(dp5191
g70
I1
ssg71
g5185
sg64
(lp5192
(lp5193
(g4656
(S't\x06\x00\x00\x00Groups'
tRp5194
I00
S'http://www.web2py.com/examples/default/usergroups'
p5195
tp5196
a(g4656
(S't\x07\x00\x00\x00Twitter'
tRp5197
I00
S'http://twitter.com/web2py'
p5198
tp5199
a(g4656
(S's\t\x00\x00\x00Live Chat'
tRp5200
I00
S'http://webchat.freenode.net/?channels=web2py'
p5201
tp5202
aasbasbasbasbasbasbasbag57
(g73
g59
NtRp5203
(dp5204
g62
(dp5205
sg71
g4770
sg64
(lp5206
g57
(g78
g59
NtRp5207
(dp5208
g62
(dp5209
sg71
g5203
sg64
(lp5210
g57
(g58
g59
NtRp5211
(dp5212
g62
(dp5213
g70
I2
ssg71
g5207
sg64
(lp5214
g57
(g66
g59
NtRp5215
(dp5216
g62
(dp5217
g70
I1
ssg71
Nsg64
(lp5218
g57
(g73
g59
NtRp5219
(dp5220
g62
(dp5221
sg71
g5215
sg64
(lp5222
g57
(g78
g59
NtRp5223
(dp5224
g62
(dp5225
sg71
g5219
sg64
(lp5226
g57
(g58
g59
NtRp5227
(dp5228
g62
(dp5229
g70
I1
ssg71
g5223
sg64
(lp5230
g4656
(S't\x07\x00\x00\x00Plugins'
tRp5231
asbasbasbag57
(g73
g59
NtRp5232
(dp5233
g62
(dp5234
sg71
g5215
sg64
(lp5235
g57
(g78
g59
NtRp5236
(dp5237
g62
(dp5238
sg71
g5232
sg64
(lp5239
g57
(g58
g59
NtRp5240
(dp5241
g62
(dp5242
g70
I1
ssg71
g5236
sg64
(lp5243
I00
asbasbasbag57
(g73
g59
NtRp5244
(dp5245
g62
(dp5246
sg71
g5215
sg64
(lp5247
g57
(g78
g59
NtRp5248
(dp5249
g62
(dp5250
sg71
g5244
sg64
(lp5251
g57
(g58
g59
NtRp5252
(dp5253
g62
(dp5254
g70
I1
ssg71
g5248
sg64
(lp5255
Nasbasbasbag57
(g73
g59
NtRp5256
(dp5257
g62
(dp5258
sg71
g5215
sg64
(lp5259
g57
(g78
g59
NtRp5260
(dp5261
g62
(dp5262
sg71
g5256
sg64
(lp5263
g57
(g58
g59
NtRp5264
(dp5265
g62
(dp5266
g70
I1
ssg71
g5260
sg64
(lp5267
(lp5268
(S'plugin_wiki'
p5269
I00
S'http://web2py.com/examples/default/download'
p5270
tp5271
a(g4656
(S's\r\x00\x00\x00Other Plugins'
tRp5272
I00
g5002
tp5273
a(g4656
(S's\x0e\x00\x00\x00Layout Plugins'
tRp5274
I00
g5005
tp5275
aasbasbasbasbasbasbasbasbasbasbasbasbasbasbasbasbasbasbasbag57
(g73
g59
NtRp5276
(dp5277
g62
(dp5278
sg71
g4151
sg64
(lp5279
g57
(g78
g59
NtRp5280
(dp5281
g62
(dp5282
g82
g83
ssg71
g5276
sg64
(lp5283
S'meta'
p5284
asbag57
(g78
g59
NtRp5285
(dp5286
g62
(dp5287
g89
g90
ssg71
g5276
sg64
(lp5288
S':'
asbag57
(g78
g59
NtRp5289
(dp5290
g62
(dp5291
sg71
g5276
sg64
(lp5292
g57
(g58
g59
NtRp5293
(dp5294
g62
(dp5295
g70
I5
ssg71
g5289
sg64
(lp5296
g57
(g66
g59
NtRp5297
(dp5298
g62
(dp5299
g70
I4
ssg71
Nsg64
(lp5300
g57
(g73
g59
NtRp5301
(dp5302
g62
(dp5303
sg71
g5297
sg64
(lp5304
g57
(g78
g59
NtRp5305
(dp5306
g62
(dp5307
g82
g83
ssg71
g5301
sg64
(lp5308
S'author'
p5309
asbag57
(g78
g59
NtRp5310
(dp5311
g62
(dp5312
g89
g90
ssg71
g5301
sg64
(lp5313
S':'
asbag57
(g78
g59
NtRp5314
(dp5315
g62
(dp5316
sg71
g5301
sg64
(lp5317
g57
(g58
g59
NtRp5318
(dp5319
g62
(dp5320
g70
I4
ssg71
g5314
sg64
(lp5321
S'Your Name <you@example.com>'
p5322
asbasbasbag57
(g73
g59
NtRp5323
(dp5324
g62
(dp5325
sg71
g5297
sg64
(lp5326
g57
(g78
g59
NtRp5327
(dp5328
g62
(dp5329
g82
g83
ssg71
g5323
sg64
(lp5330
S'copyright'
p5331
asbag57
(g78
g59
NtRp5332
(dp5333
g62
(dp5334
g89
g90
ssg71
g5323
sg64
(lp5335
S':'
asbag57
(g78
g59
NtRp5336
(dp5337
g62
(dp5338
sg71
g5323
sg64
(lp5339
g57
(g58
g59
NtRp5340
(dp5341
g62
(dp5342
g70
I4
ssg71
g5336
sg64
(lp5343
S'Copyright 2011'
p5344
asbasbasbag57
(g73
g59
NtRp5345
(dp5346
g62
(dp5347
sg71
g5297
sg64
(lp5348
g57
(g78
g59
NtRp5349
(dp5350
g62
(dp5351
g82
g83
ssg71
g5345
sg64
(lp5352
S'description'
p5353
asbag57
(g78
g59
NtRp5354
(dp5355
g62
(dp5356
g89
g90
ssg71
g5345
sg64
(lp5357
S':'
asbag57
(g78
g59
NtRp5358
(dp5359
g62
(dp5360
sg71
g5345
sg64
(lp5361
g57
(g58
g59
NtRp5362
(dp5363
g62
(dp5364
g70
I4
ssg71
g5358
sg64
(lp5365
S'a cool new app'
p5366
asbasbasbag57
(g73
g59
NtRp5367
(dp5368
g62
(dp5369
sg71
g5297
sg64
(lp5370
g57
(g78
g59
NtRp5371
(dp5372
g62
(dp5373
g82
g83
ssg71
g5367
sg64
(lp5374
S'generator'
p5375
asbag57
(g78
g59
NtRp5376
(dp5377
g62
(dp5378
g89
g90
ssg71
g5367
sg64
(lp5379
S':'
asbag57
(g78
g59
NtRp5380
(dp5381
g62
(dp5382
sg71
g5367
sg64
(lp5383
g57
(g58
g59
NtRp5384
(dp5385
g62
(dp5386
g70
I4
ssg71
g5380
sg64
(lp5387
S'Web2py Web Framework'
p5388
asbasbasbag57
(g73
g59
NtRp5389
(dp5390
g62
(dp5391
sg71
g5297
sg64
(lp5392
g57
(g78
g59
NtRp5393
(dp5394
g62
(dp5395
g82
g83
ssg71
g5389
sg64
(lp5396
S'keywords'
p5397
asbag57
(g78
g59
NtRp5398
(dp5399
g62
(dp5400
g89
g90
ssg71
g5389
sg64
(lp5401
S':'
asbag57
(g78
g59
NtRp5402
(dp5403
g62
(dp5404
sg71
g5389
sg64
(lp5405
g57
(g58
g59
NtRp5406
(dp5407
g62
(dp5408
g70
I4
ssg71
g5402
sg64
(lp5409
S'web2py, python, framework'
p5410
asbasbasbasbasbasbasbag57
(g73
g59
NtRp5411
(dp5412
g62
(dp5413
sg71
g4151
sg64
(lp5414
g57
(g78
g59
NtRp5415
(dp5416
g62
(dp5417
g82
g83
ssg71
g5411
sg64
(lp5418
S'postprocessing'
p5419
asbag57
(g78
g59
NtRp5420
(dp5421
g62
(dp5422
g89
g90
ssg71
g5411
sg64
(lp5423
S':'
asbag57
(g78
g59
NtRp5424
(dp5425
g62
(dp5426
sg71
g5411
sg64
(lp5427
g57
(g58
g59
NtRp5428
(dp5429
g62
(dp5430
g70
I5
ssg71
g5424
sg64
(lp5431
g57
(g66
g59
NtRp5432
(dp5433
g62
(dp5434
g70
I4
ssg71
Nsg64
(lp5435
sbasbasbasbag57
(g73
g59
NtRp5436
(dp5437
g62
(dp5438
sg71
g4151
sg64
(lp5439
g57
(g78
g59
NtRp5440
(dp5441
g62
(dp5442
g82
g83
ssg71
g5436
sg64
(lp5443
S'session_file'
p5444
asbag57
(g78
g59
NtRp5445
(dp5446
g62
(dp5447
g89
g90
ssg71
g5436
sg64
(lp5448
S':'
asbag57
(g78
g59
NtRp5449
(dp5450
g62
(dp5451
sg71
g5436
sg64
(lp5452
g57
(g58
g59
NtRp5453
(dp5454
g62
(dp5455
g70
I5
ssg71
g5449
sg64
(lp5456
S"<open file '/home/hduser/web2py/applications/Hadoop/sessions/127.0.0.1-97903a88-f198-4805-b4b9-82e62b67a9b6', mode 'rb+' at 0x7fc7142220c0>"
p5457
asbasbasbag57
(g73
g59
NtRp5458
(dp5459
g62
(dp5460
sg71
g4151
sg64
(lp5461
g57
(g78
g59
NtRp5462
(dp5463
g62
(dp5464
g82
g83
ssg71
g5458
sg64
(lp5465
S'session_filename'
p5466
asbag57
(g78
g59
NtRp5467
(dp5468
g62
(dp5469
g89
g90
ssg71
g5458
sg64
(lp5470
S':'
asbag57
(g78
g59
NtRp5471
(dp5472
g62
(dp5473
sg71
g5458
sg64
(lp5474
g57
(g58
g59
NtRp5475
(dp5476
g62
(dp5477
g70
I5
ssg71
g5471
sg64
(lp5478
S'/home/hduser/web2py/applications/Hadoop/sessions/127.0.0.1-97903a88-f198-4805-b4b9-82e62b67a9b6'
p5479
asbasbasbag57
(g73
g59
NtRp5480
(dp5481
g62
(dp5482
sg71
g4151
sg64
(lp5483
g57
(g78
g59
NtRp5484
(dp5485
g62
(dp5486
g82
g83
ssg71
g5480
sg64
(lp5487
S'session_id'
p5488
asbag57
(g78
g59
NtRp5489
(dp5490
g62
(dp5491
g89
g90
ssg71
g5480
sg64
(lp5492
S':'
asbag57
(g78
g59
NtRp5493
(dp5494
g62
(dp5495
sg71
g5480
sg64
(lp5496
g57
(g58
g59
NtRp5497
(dp5498
g62
(dp5499
g70
I5
ssg71
g5493
sg64
(lp5500
S'127.0.0.1-97903a88-f198-4805-b4b9-82e62b67a9b6'
p5501
asbasbasbag57
(g73
g59
NtRp5502
(dp5503
g62
(dp5504
sg71
g4151
sg64
(lp5505
g57
(g78
g59
NtRp5506
(dp5507
g62
(dp5508
g82
g83
ssg71
g5502
sg64
(lp5509
S'session_id_name'
p5510
asbag57
(g78
g59
NtRp5511
(dp5512
g62
(dp5513
g89
g90
ssg71
g5502
sg64
(lp5514
S':'
asbag57
(g78
g59
NtRp5515
(dp5516
g62
(dp5517
sg71
g5502
sg64
(lp5518
g57
(g58
g59
NtRp5519
(dp5520
g62
(dp5521
g70
I5
ssg71
g5515
sg64
(lp5522
g4208
asbasbasbag57
(g73
g59
NtRp5523
(dp5524
g62
(dp5525
sg71
g4151
sg64
(lp5526
g57
(g78
g59
NtRp5527
(dp5528
g62
(dp5529
g82
g83
ssg71
g5523
sg64
(lp5530
S'session_locked'
p5531
asbag57
(g78
g59
NtRp5532
(dp5533
g62
(dp5534
g89
g90
ssg71
g5523
sg64
(lp5535
S':'
asbag57
(g78
g59
NtRp5536
(dp5537
g62
(dp5538
sg71
g5523
sg64
(lp5539
g57
(g58
g59
NtRp5540
(dp5541
g62
(dp5542
g70
I5
ssg71
g5536
sg64
(lp5543
g1786
asbasbasbag57
(g73
g59
NtRp5544
(dp5545
g62
(dp5546
sg71
g4151
sg64
(lp5547
g57
(g78
g59
NtRp5548
(dp5549
g62
(dp5550
g82
g83
ssg71
g5544
sg64
(lp5551
S'session_new'
p5552
asbag57
(g78
g59
NtRp5553
(dp5554
g62
(dp5555
g89
g90
ssg71
g5544
sg64
(lp5556
S':'
asbag57
(g78
g59
NtRp5557
(dp5558
g62
(dp5559
sg71
g5544
sg64
(lp5560
g57
(g58
g59
NtRp5561
(dp5562
g62
(dp5563
g70
I5
ssg71
g5557
sg64
(lp5564
g100
asbasbasbag57
(g73
g59
NtRp5565
(dp5566
g62
(dp5567
sg71
g4151
sg64
(lp5568
g57
(g78
g59
NtRp5569
(dp5570
g62
(dp5571
g82
g83
ssg71
g5565
sg64
(lp5572
S'status'
p5573
asbag57
(g78
g59
NtRp5574
(dp5575
g62
(dp5576
g89
g90
ssg71
g5565
sg64
(lp5577
S':'
asbag57
(g78
g59
NtRp5578
(dp5579
g62
(dp5580
sg71
g5565
sg64
(lp5581
g57
(g58
g59
NtRp5582
(dp5583
g62
(dp5584
g70
I5
ssg71
g5578
sg64
(lp5585
S'200'
p5586
asbasbasbag57
(g73
g59
NtRp5587
(dp5588
g62
(dp5589
sg71
g4151
sg64
(lp5590
g57
(g78
g59
NtRp5591
(dp5592
g62
(dp5593
g82
g83
ssg71
g5587
sg64
(lp5594
S'subtitle'
p5595
asbag57
(g78
g59
NtRp5596
(dp5597
g62
(dp5598
g89
g90
ssg71
g5587
sg64
(lp5599
S':'
asbag57
(g78
g59
NtRp5600
(dp5601
g62
(dp5602
sg71
g5587
sg64
(lp5603
g57
(g58
g59
NtRp5604
(dp5605
g62
(dp5606
g70
I5
ssg71
g5600
sg64
(lp5607
g4656
(S's\r\x00\x00\x00customize me!'
tRp5608
asbasbasbag57
(g73
g59
NtRp5609
(dp5610
g62
(dp5611
sg71
g4151
sg64
(lp5612
g57
(g78
g59
NtRp5613
(dp5614
g62
(dp5615
g82
g83
ssg71
g5609
sg64
(lp5616
S'title'
p5617
asbag57
(g78
g59
NtRp5618
(dp5619
g62
(dp5620
g89
g90
ssg71
g5609
sg64
(lp5621
S':'
asbag57
(g78
g59
NtRp5622
(dp5623
g62
(dp5624
sg71
g5609
sg64
(lp5625
g57
(g58
g59
NtRp5626
(dp5627
g62
(dp5628
g70
I5
ssg71
g5622
sg64
(lp5629
S'Hadoop'
p5630
asbasbasbag57
(g73
g59
NtRp5631
(dp5632
g62
(dp5633
sg71
g4151
sg64
(lp5634
g57
(g78
g59
NtRp5635
(dp5636
g62
(dp5637
g82
g83
ssg71
g5631
sg64
(lp5638
g2900
asbag57
(g78
g59
NtRp5639
(dp5640
g62
(dp5641
g89
g90
ssg71
g5631
sg64
(lp5642
S':'
asbag57
(g78
g59
NtRp5643
(dp5644
g62
(dp5645
sg71
g5631
sg64
(lp5646
g57
(g58
g59
NtRp5647
(dp5648
g62
(dp5649
g70
I5
ssg71
g5643
sg64
(lp5650
g2913
asbasbasbag57
(g73
g59
NtRp5651
(dp5652
g62
(dp5653
sg71
g4151
sg64
(lp5654
g57
(g78
g59
NtRp5655
(dp5656
g62
(dp5657
g82
g83
ssg71
g5651
sg64
(lp5658
S'view'
p5659
asbag57
(g78
g59
NtRp5660
(dp5661
g62
(dp5662
g89
g90
ssg71
g5651
sg64
(lp5663
S':'
asbag57
(g78
g59
NtRp5664
(dp5665
g62
(dp5666
sg71
g5651
sg64
(lp5667
g57
(g58
g59
NtRp5668
(dp5669
g62
(dp5670
g70
I5
ssg71
g5664
sg64
(lp5671
S'default/action.html'
p5672
asbasbasbasbasbsS'locals'
p5673
(dp5674
S'Service'
p5675
S"<class 'gluon.tools.Service'>"
p5676
sS'OBJECT'
p5677
S"<class 'gluon.html.OBJECT'>"
p5678
sS'SQLDB'
p5679
S"<class 'gluon.dal.DAL'>"
p5680
sg4133
S"<Storage {'_Session__hash': '\\xfa\\x0e\\xed\\xe4\\xe... {'version': '32.0.1700.77', 'name': 'Chrome'}}}>"
p5681
sS'LINK'
p5682
S"<class 'gluon.html.LINK'>"
p5683
sS'BR'
p5684
S"<class 'gluon.html.BR'>"
p5685
sS'local_import'
p5686
S'<function <lambda>>'
p5687
sS'OPTGROUP'
p5688
S"<class 'gluon.html.OPTGROUP'>"
p5689
sS'PRE'
p5690
S"<class 'gluon.html.PRE'>"
p5691
sS'IS_INT_IN_RANGE'
p5692
S"<class 'gluon.validators.IS_INT_IN_RANGE'>"
p5693
sS'IS_LOWER'
p5694
S"<class 'gluon.validators.IS_LOWER'>"
p5695
sS'IS_STRONG'
p5696
S"<class 'gluon.validators.IS_STRONG'>"
p5697
sS'cache'
p5698
S'<gluon.cache.Cache object>'
p5699
sS'IS_IN_DB'
p5700
S"<class 'gluon.validators.IS_IN_DB'>"
p5701
sS'TAG'
p5702
S'<gluon.html.__TAG__ object>'
p5703
sS'SQLField'
p5704
S"<class 'gluon.dal.Field'>"
p5705
sS'mail'
p5706
S'<gluon.tools.Mail object>'
p5707
sS'BODY'
p5708
S"<class 'gluon.html.BODY'>"
p5709
sS'IS_DATE_IN_RANGE'
p5710
S"<class 'gluon.validators.IS_DATE_IN_RANGE'>"
p5711
sS'TH'
p5712
S"<class 'gluon.html.TH'>"
p5713
sS'URL'
p5714
S'<function URL>'
p5715
sS'__file__'
p5716
S"'/home/hduser/web2py/applications/Hadoop/views/default/action.html'"
p5717
sS'db'
p5718
S"<DAL {'auth_event': <Table {'origin': <gluon.dal...': <gluon.dal.Field object at 0x7fc70829a990>}>}>"
p5719
sS'auth'
p5720
S'<gluon.tools.Auth object>'
p5721
sS'P'
S"<class 'gluon.html.P'>"
p5722
sS'TFOOT'
p5723
S"<class 'gluon.html.TFOOT'>"
p5724
sS'XHTML'
p5725
S"<class 'gluon.html.XHTML'>"
p5726
sS'ON'
p5727
g1786
sS'OL'
p5728
S"<class 'gluon.html.OL'>"
p5729
sS'TEXTAREA'
p5730
S"<class 'gluon.html.TEXTAREA'>"
p5731
sS'MENU'
p5732
S"<class 'gluon.html.MENU'>"
p5733
sS'LOAD'
p5734
S'<function LOAD>'
p5735
sS'CODE'
p5736
S"<class 'gluon.html.CODE'>"
p5737
sS'HTTP'
p5738
S"<class 'gluon.http.HTTP'>"
p5739
sS'HR'
p5740
S"<class 'gluon.html.HR'>"
p5741
sS'IS_DATETIME'
p5742
S"<class 'gluon.validators.IS_DATETIME'>"
p5743
sS'HEAD'
p5744
S"<class 'gluon.html.HEAD'>"
p5745
sS'LABEL'
p5746
S"<class 'gluon.html.LABEL'>"
p5747
sS'CLEANUP'
p5748
S"<class 'gluon.validators.CLEANUP'>"
p5749
sS'plugins'
p5750
S'<gluon.tools.PluginManager object>'
p5751
sS'SELECT'
p5752
S"<class 'gluon.html.SELECT'>"
p5753
sS'use_janrain'
p5754
S'<function use_janrain>'
p5755
sS'CENTER'
p5756
S"<class 'gluon.html.CENTER'>"
p5757
sS'prettydate'
p5758
S'<function prettydate>'
p5759
sS'Crud'
p5760
S"<class 'gluon.tools.Crud'>"
p5761
sS'Auth'
p5762
S"<class 'gluon.tools.Auth'>"
p5763
sS'__builtins__'
p5764
S"{'ArithmeticError': <type 'exceptions.ArithmeticError'>, 'AssertionError': <type 'exceptions.AssertionError'>, 'AttributeError': <type 'exceptions.AttributeError'>, 'BaseException': <type 'exceptions.BaseException'>, 'BufferError': <type 'exceptions.BufferError'>, 'BytesWarning': <type 'exceptions.BytesWarning'>, 'DeprecationWarning': <type 'exceptions.DeprecationWarning'>, 'EOFError': <type 'exceptions.EOFError'>, 'Ellipsis': Ellipsis, 'EnvironmentError': <type 'exceptions.EnvironmentError'>, ...}"
p5765
sS'HTML'
p5766
S"<class 'gluon.html.HTML'>"
p5767
sS'SQLFORM'
p5768
S"<class 'gluon.sqlhtml.SQLFORM'>"
p5769
sS'EM'
p5770
S"<class 'gluon.html.EM'>"
p5771
sS'redirect'
p5772
S'<function redirect>'
p5773
sS'FIELDSET'
p5774
S"<class 'gluon.html.FIELDSET'>"
p5775
sS'IS_EQUAL_TO'
p5776
S"<class 'gluon.validators.IS_EQUAL_TO'>"
p5777
sS'embed64'
p5778
S'<function embed64>'
p5779
sS'IS_LIST_OF'
p5780
S"<class 'gluon.validators.IS_LIST_OF'>"
p5781
sS'INPUT'
p5782
S"<class 'gluon.html.INPUT'>"
p5783
sS'EMBED'
p5784
S"<class 'gluon.html.EMBED'>"
p5785
sS'_'
S'<function _>'
p5786
sS'FORM'
p5787
S"<class 'gluon.html.FORM'>"
p5788
sS'H2'
p5789
S"<class 'gluon.html.H2'>"
p5790
sS'H3'
p5791
S"<class 'gluon.html.H3'>"
p5792
sS'BUTTON'
p5793
S"<class 'gluon.html.BUTTON'>"
p5794
sS'H1'
p5795
S"<class 'gluon.html.H1'>"
p5796
sS'H6'
p5797
S"<class 'gluon.html.H6'>"
p5798
sS'H4'
p5799
S"<class 'gluon.html.H4'>"
p5800
sS'H5'
p5801
S"<class 'gluon.html.H5'>"
p5802
sS'UL'
p5803
S"<class 'gluon.html.UL'>"
p5804
sS'IS_UPPER'
p5805
S"<class 'gluon.validators.IS_UPPER'>"
p5806
sS'xmlescape'
p5807
S'<function xmlescape>'
p5808
sS'IS_TIME'
p5809
S"<class 'gluon.validators.IS_TIME'>"
p5810
sS'OPTION'
p5811
S"<class 'gluon.html.OPTION'>"
p5812
sS'TITLE'
p5813
S"<class 'gluon.html.TITLE'>"
p5814
sS'CRYPT'
p5815
S"<class 'gluon.validators.CRYPT'>"
p5816
sS'IS_EMPTY_OR'
p5817
S"<class 'gluon.validators.IS_EMPTY_OR'>"
p5818
sS'MARKMIN'
p5819
S"<class 'gluon.html.MARKMIN'>"
p5820
sS'message'
p5821
S"'Import from RDBMS to HDFS Failed'"
p5822
sS'COL'
p5823
S"<class 'gluon.html.COL'>"
p5824
sS'service'
p5825
S'<gluon.tools.Service object>'
p5826
sS'SCRIPT'
p5827
S"<class 'gluon.html.SCRIPT'>"
p5828
sS'TABLE'
p5829
S"<class 'gluon.html.TABLE'>"
p5830
sS'IS_IPV4'
p5831
S"<class 'gluon.validators.IS_IPV4'>"
p5832
sS'IS_LENGTH'
p5833
S"<class 'gluon.validators.IS_LENGTH'>"
p5834
sS'XML'
p5835
S"<class 'gluon.html.XML'>"
p5836
sS'B'
S"<class 'gluon.html.B'>"
p5837
sS'IMG'
p5838
S"<class 'gluon.html.IMG'>"
p5839
sS'SQLTABLE'
p5840
S"<class 'gluon.sqlhtml.SQLTABLE'>"
p5841
sS'IS_MATCH'
p5842
S"<class 'gluon.validators.IS_MATCH'>"
p5843
sS'IS_ALPHANUMERIC'
p5844
S"<class 'gluon.validators.IS_ALPHANUMERIC'>"
p5845
sS'SPAN'
p5846
S"<class 'gluon.html.SPAN'>"
p5847
sS'IS_SLUG'
p5848
S"<class 'gluon.validators.IS_SLUG'>"
p5849
sS'BEAUTIFY'
p5850
S"<class 'gluon.html.BEAUTIFY'>"
p5851
sS'META'
p5852
S"<class 'gluon.html.META'>"
p5853
sS'IS_DATE'
p5854
S"<class 'gluon.validators.IS_DATE'>"
p5855
sS'IS_EMAIL'
p5856
S"<class 'gluon.validators.IS_EMAIL'>"
p5857
sS'IS_NOT_EMPTY'
p5858
S"<class 'gluon.validators.IS_NOT_EMPTY'>"
p5859
sS'IS_FLOAT_IN_RANGE'
p5860
S"<class 'gluon.validators.IS_FLOAT_IN_RANGE'>"
p5861
sS'TBODY'
p5862
S"<class 'gluon.html.TBODY'>"
p5863
sS'CAT'
p5864
S"<class 'gluon.html.CAT'>"
p5865
sS'Field'
p5866
S"<class 'gluon.dal.Field'>"
p5867
sS'DIV'
p5868
S"<class 'gluon.html.DIV'>"
p5869
sS'LEGEND'
p5870
S"<class 'gluon.html.LEGEND'>"
p5871
sS'COLGROUP'
p5872
S"<class 'gluon.html.COLGROUP'>"
p5873
sS'DAL'
p5874
S"<class 'gluon.dal.DAL'>"
p5875
sS'TT'
p5876
S"<class 'gluon.html.TT'>"
p5877
sS'TR'
p5878
S"<class 'gluon.html.TR'>"
p5879
sS'LI'
p5880
S"<class 'gluon.html.LI'>"
p5881
sS'IFRAME'
p5882
S"<class 'gluon.html.IFRAME'>"
p5883
sS'TD'
p5884
S"<class 'gluon.html.TD'>"
p5885
sS'PluginManager'
p5886
S"<class 'gluon.tools.PluginManager'>"
p5887
sS'IS_URL'
p5888
S"<class 'gluon.validators.IS_URL'>"
p5889
sS'A'
S"<class 'gluon.html.A'>"
p5890
sS'STYLE'
p5891
S"<class 'gluon.html.STYLE'>"
p5892
sS'IS_DATETIME_IN_RANGE'
p5893
S"<class 'gluon.validators.IS_DATETIME_IN_RANGE'>"
p5894
sS'IS_IMAGE'
p5895
S"<class 'gluon.validators.IS_IMAGE'>"
p5896
sS'I'
S"<class 'gluon.html.I'>"
p5897
sS'crud'
p5898
S'<gluon.tools.Crud object>'
p5899
sS'IS_NOT_IN_DB'
p5900
S"<class 'gluon.validators.IS_NOT_IN_DB'>"
p5901
sg4146
S"<Storage {'body': <cStringIO.StringO object at 0... 0x7fc6ec282b18>, 'view': 'default/action.html'}>"
p5902
sS'THEAD'
p5903
S"<class 'gluon.html.THEAD'>"
p5904
sS'IS_NULL_OR'
p5905
S"<class 'gluon.validators.IS_EMPTY_OR'>"
p5906
sg56
S"<Storage {'body': <open file '<fdopen>', mode 'w...columns': 'username,password', 'op': 'import'}>}>"
p5907
sS'IS_EXPR'
p5908
S"<class 'gluon.validators.IS_EXPR'>"
p5909
sS'T'
S'<gluon.languages.translator object>'
p5910
sS'IS_IN_SET'
p5911
S"<class 'gluon.validators.IS_IN_SET'>"
p5912
sS'IS_UPLOAD_FILENAME'
p5913
S"<class 'gluon.validators.IS_UPLOAD_FILENAME'>"
p5914
sS'IS_DECIMAL_IN_RANGE'
p5915
S"<class 'gluon.validators.IS_DECIMAL_IN_RANGE'>"
p5916
sssS'traceback'
p5917
S'Traceback (most recent call last):\n  File "/usr/lib/pymodules/python2.7/gluon/restricted.py", line 204, in restricted\n    exec ccode in environment\n  File "/home/hduser/web2py/applications/Hadoop/views/default/action.html", line 2, in <module>\nNameError: name \'posvars\' is not defined\n'
p5918
s.