(dp1
S'output'
p2
S"<type 'exceptions.TypeError'> cannot concatenate 'str' and 'NoneType' objects"
p3
sS'layer'
p4
S'/home/hduser/web2py/applications/Hadoop/controllers/default.py'
p5
sS'code'
p6
S'# coding: utf8\n# try something like\nimport os\nimport subprocess\nimport MySQLdb\nTable = "workflow";\nmachine="localhost";\ndatabase_name="hadoop";\ndb_username="root";\npassword="hadoop";\n\ndef index():\n    redirect(URL(\'main\'))\n\n    return dict(message="hello from default.py")\ndef compile1():\n    return dict(hello="hello");\ntkns=[]\ncodegen1="";\ndef codegen(str="",table=""):\n    posvars=request.post_vars;\n#    //codegen:          generate import-export code without performing actual import/export, modify the gnerated java file, compile it to jar, give it to sqoop.\n#    global $TABLE,$machine,$password,$db_username,$database_name;\n    global codegen1;\n    if str=="":\n       # os.remove(Table+".java");\n       # os.remove(Table+".jar");\n       # os.remove(Table+".class")\n        \n        codegen1= "/home/hduser/sqoop/bin/sqoop codegen --connect jdbc:mysql://"+machine+"/"+database_name+" --username "+db_username+" --password \'"+password+"\' --table "+Table ;\n        if posvars[\'op\']=="import":\n            if posvars[\'field_delim\']!="":\n                codegen1=codegen1+" --fields-terminated-by "+"\'" +posvars[\'field_delim\']+"\'";\n            if posvars[\'line_delim\']!="":\n                codegen1=codegen1+" --lines-terminated-by "+"\'" +posvars[\'line_delim\']+"\'";\n            if \'enclosed\' in posvars:\n                if posvars[\'enclosingchar\']==\'"\':\n                    posvars[\'enclosingchar\']=\'\\"\';\n                    codegen1=codegen1+" "+posvars[\'enclosed\']+" \'"+posvars[\'enclosingchar\']+ "\'";\n\n    else:\n        os.remove(TABLE+".java");\n        os.remove(TABLE+".jar");\n        os.remove(TABLE+".class");\n        codegen1=str;\n\n    codegen1 = codegen1+" --bindir . 2> err ; echo $?"; \n    \n#    echo "codegen command=".$codegen."<br/>";\n    output = os.popen(codegen1).read()\n#    $output= shell_exec($codegen);\n    tkns=output.split(\'\\n\');\n    \n #   if output[output.__len__()-2]!="0":\n    return dict (tkns=tkns,message = "codegen wright")\n#       return "<br>??????????????Codegen error<br>";#echo $output;exit(0);\n\n\n\n\n\n\ndef main():\n    tables = []\n    path = \'/\'\n#    return dict(test = request.get_vars);\n    if \'path\' in request.get_vars:\n        path = request.get_vars[\'path\'];\n    a = "/home/hduser/hadoop/bin/hadoop fs -ls "+path+" | tr -s \' \' | cut -d \' \' -f8"\n    output = os.popen(a).read()\n    tokens = output.split(\'\\n\')\n    print "hahhaha"\n    error = ""\n    try :\n        connection = MySQLdb.connect(host=\'localhost\',user=\'root\', passwd=\'hadoop\', db=\'hadoop\')\n        print "connected"\n        cur=connection.cursor()     \n        query = "show tables";\n        cur.execute(query)\n        tables = cur.fetchall() \n        return dict(tokens=tokens,error=error,tables=tables,test = request.get_vars)\n    except:\n        print "weee"\n        error = "failed to connect to MySQL: "\n        return dict(tokens=tokens,error=error,tables=tables)   \n   # proc = subprocess.Popen([\'/home/hduser1/hadoop/bin/hadoop\',\'fs\',\'-ls\',\'"/"\',\'|\',\'tr\',\'-s\' ,a,\'|\', \'cut\', \'-d\' , a    , \'-f8\'], stdout=subprocess.PIPE,shell=True)\n  #  (output,err) = proc.communicate()\n   # print "ran"\n   # print output\n   \n  #  print tokens\n    \n#def codegen():\n#    return dict(a="apple");    \n\n#print aa;\ndef action():\n    global codegen1;\n    posvars = request.post_vars;\n    a="/home/hduser/sqoop/bin/sqoop import --connect jdbc:mysql://localhost/hadoop --username root --password \'hadoop\' --table login; echo $?"\n    comm = "/home/hduser/sqoop/bin/sqoop "+posvars[\'op\'];\n    if posvars[\'op\'] == "export":\n        if \'directory\' in posvars:   #isset($_POST[\'directory\']))\n            sourcedir=posvars[\'directory\']; #radio based input\n        if posvars[\'sourcedir\']!="":\n            sourcedir=posvars[\'sourcedir\']; #text based input : priority more\n\n        exp="";\n        if \'decrypt\' in posvars:\n            codegen();\n\n            array1=posvars[\'decrypt_columns\'].split(\',\');\n            print array1;\n            change_export(Table+".java",array1,posvars[\'deckey\']);\n            compile1();\n            exp="  --jar-file "+Table+".jar --class-name "+Table;\n    \n        comm=comm+" --connect jdbc:mysql://"+machine+"/"+database_name+" --username "+db_username+" --password \'"+password+"\' --table "+Table+" "+exp;\n\n        if \'update\' in posvars:\n            if posvars[\'refcol\']=="":\n                print "Specify the reference column<br/>";\n                exit(0);\n            comm=comm+" --update-key "+posvars[\'refcol\'];\n        comm=comm+" --export-dir "+sourcedir;\n        if \'validate\' in posvars:\n            comm=comm+" --validate";\n        if \'parallel1\' in posvars:\n            comm=comm+" -m "+posvars[\'parallel\'];\n\n        comm=comm+" ; echo $?";\n        print "Export command="+comm+"<br>";\n                       ####this is the main execute step .... not done because sqoop not working properly\n        #echo $output;\n#        val=output[strlen(output)-2];\n        val = "0";\n        if val=="0":#//;//shell_exec("echo $?");\n            print "<h2> Successfully Exported from HDFS to RDBMS:)</h2>";\n            \n        else:\n            print "<h2> Export from HDFS to RDBMS Failed :( </h2>";\n\n    elif posvars[\'op\'] == "import":\n\n        imp="";\n        if \'encrypt\' in posvars:\n            codegen();\n            array=posvars[\'encrypt_columns\'].split(\',\');#explode(",",$_POST[\'encrypt_columns\']);\n            #print_r($array);\n#            change_import($TABLE.".java",$array,$_POST[\'enckey\']);\n            compile1();\n            imp="  --jar-file "+Table+".jar --class-name "+Table;\n        comm=comm + " --connect jdbc:mysql://"+machine+"/"+database_name+" --username "+db_username+" --password \'"+password+"\' --table "+Table+" "+imp;    \n        \n        if posvars[\'targetdir\']!="":\n            comm=com+" --target-dir "+posvars[\'targetdir\'];\n        elif \'directory\' not in posvars:\n            f=0;\n        elif posvars[\'directory\']!="default":\n            comm =comm+" --target-dir "+posvars[\'directory\'];\n\n#    if(isset($_POST[\'delete\']))$comm.= " --delete-tarPOST-dir";\n\n        if \'filetype\' in posvars:\n            comm=comm+ " "+posvars[\'filetype\'];\n        \n#    if(isset($_POST[\'importall\']))\n\n        if \'append\' in posvars:\n            comm= comm + " --append";                            \n        if posvars[\'where\']!="":\n            comm= comm + \' --where "\'+posvars[\'where\']+\'"\';\n\n        elif \'validate\' in posvars:\n            comm= comm+" --validate";\n\n        if \'encrypt\' not in posvars:\n    \n            if posvars[\'columns\']!="":\n                comm=comm+ " --columns "+\'"\'+posvars[\'columns\']+\'"\';\n            if posvars[\'field_delim\']!="":\n                comm=comm+" --fields-terminated-by "+"\'" +posvars[\'field_delim\']+"\'";\n            if posvars[\'line_delim\']!="":\n                comm=comm+" --lines-terminated-by "+"\'" +posvars[\'line_delim\']+"\'";    \n            if \'enclosed\' in posvars:\n                if posvars[\'enclosingchar\']==\'"\':\n                    posvars[\'enclosingchar\']=\'\\"\';\n                comm=comm+" "+posvars[\'enclosed\']+" \'"+posvars[\'enclosingchar\']+"\'";\n\n        if \'compressed\' in posvars:\n            comm=comm+" -z";\n        if \'parallel1\' in posvars:\n            comm=comm+" -m "+posvars[\'parallel\'];\n\n        comm=comm+ " ; echo $?";\n    #$comm="ls ; echo $?";\n#    echo "comm<br/>"; \n    output = os.popen(comm).read();\n#    output= shell_exec($comm);\n#    echo $output;\n    val=output[output.__len__()-2];\n#    echo $val;\n#    echo "---".$output[strlen($output)-1]."---"."---".$output[strlen($output)-2]."---"."---".$output[strlen($output)-3]."---"."<br/>";\n    if val=="0": #{//;//shell_exec("echo $?");\n        return dict(message = "Successfully Imported from RDBMS to HDFS",val=val,tkns=tkns,codegen1=codegen1,comm=comm);\n    else:\n        return dict(comm=comm,message = "Failed!",val = val,codegen1=codegen1);\n\n\n        \n#    return dict(posvars = request.post_vars);\n\nresponse._vars=response._caller(action)\n'
p7
sS'snapshot'
p8
(dp9
S'exception'
p10
(dp11
S'__hash__'
p12
S"<method-wrapper '__hash__' of exceptions.TypeError object>"
p13
sS'__setattr__'
p14
S"<method-wrapper '__setattr__' of exceptions.TypeError object>"
p15
sS'__reduce_ex__'
p16
S'<built-in method __reduce_ex__ of exceptions.TypeError object>'
p17
sS'__getslice__'
p18
S"<method-wrapper '__getslice__' of exceptions.TypeError object>"
p19
sS'__getitem__'
p20
S"<method-wrapper '__getitem__' of exceptions.TypeError object>"
p21
sS'__setstate__'
p22
S'<built-in method __setstate__ of exceptions.TypeError object>'
p23
sS'args'
p24
S'("cannot concatenate \'str\' and \'NoneType\' objects",)'
p25
sS'__reduce__'
p26
S'<built-in method __reduce__ of exceptions.TypeError object>'
p27
sS'__str__'
p28
S"<method-wrapper '__str__' of exceptions.TypeError object>"
p29
sS'__format__'
p30
S'<built-in method __format__ of exceptions.TypeError object>'
p31
sS'__getattribute__'
p32
S"<method-wrapper '__getattribute__' of exceptions.TypeError object>"
p33
sS'__class__'
p34
S"<type 'exceptions.TypeError'>"
p35
sS'__unicode__'
p36
S'<built-in method __unicode__ of exceptions.TypeError object>'
p37
sS'__delattr__'
p38
S"<method-wrapper '__delattr__' of exceptions.TypeError object>"
p39
sS'__subclasshook__'
p40
S'<built-in method __subclasshook__ of type object>'
p41
sS'__repr__'
p42
S"<method-wrapper '__repr__' of exceptions.TypeError object>"
p43
sS'__dict__'
p44
S'{}'
p45
sS'__sizeof__'
p46
S'<built-in method __sizeof__ of exceptions.TypeError object>'
p47
sS'__doc__'
p48
S"'Inappropriate argument type.'"
p49
sS'__init__'
p50
S"<method-wrapper '__init__' of exceptions.TypeError object>"
p51
sS'__new__'
p52
S'<built-in method __new__ of type object>'
p53
ssS'evalue'
p54
S"cannot concatenate 'str' and 'NoneType' objects"
p55
sS'request'
p56
ccopy_reg
_reconstructor
p57
(cgluon.html
BEAUTIFY
p58
c__builtin__
object
p59
NtRp60
(dp61
S'attributes'
p62
(dp63
sS'components'
p64
(lp65
g57
(cgluon.html
TABLE
p66
g59
NtRp67
(dp68
g62
(dp69
S'level'
p70
I5
ssS'parent'
p71
Nsg64
(lp72
g57
(cgluon.html
TR
p73
g59
NtRp74
(dp75
g62
(dp76
sg71
g67
sg64
(lp77
g57
(cgluon.html
TD
p78
g59
NtRp79
(dp80
g62
(dp81
S'_style'
p82
S'font-weight:bold;vertical-align:top'
p83
ssg71
g74
sg64
(lp84
S'ajax'
p85
asbag57
(g78
g59
NtRp86
(dp87
g62
(dp88
S'_valign'
p89
S'top'
p90
ssg71
g74
sg64
(lp91
S':'
asbag57
(g78
g59
NtRp92
(dp93
g62
(dp94
sg71
g74
sg64
(lp95
g57
(g58
g59
NtRp96
(dp97
g62
(dp98
g70
I5
ssg71
g92
sg64
(lp99
S'False'
p100
asbasbasbag57
(g73
g59
NtRp101
(dp102
g62
(dp103
sg71
g67
sg64
(lp104
g57
(g78
g59
NtRp105
(dp106
g62
(dp107
g82
g83
ssg71
g101
sg64
(lp108
S'application'
p109
asbag57
(g78
g59
NtRp110
(dp111
g62
(dp112
g89
g90
ssg71
g101
sg64
(lp113
S':'
asbag57
(g78
g59
NtRp114
(dp115
g62
(dp116
sg71
g101
sg64
(lp117
g57
(g58
g59
NtRp118
(dp119
g62
(dp120
g70
I5
ssg71
g114
sg64
(lp121
S'Hadoop'
p122
asbasbasbag57
(g73
g59
NtRp123
(dp124
g62
(dp125
sg71
g67
sg64
(lp126
g57
(g78
g59
NtRp127
(dp128
g62
(dp129
g82
g83
ssg71
g123
sg64
(lp130
g24
asbag57
(g78
g59
NtRp131
(dp132
g62
(dp133
g89
g90
ssg71
g123
sg64
(lp134
S':'
asbag57
(g78
g59
NtRp135
(dp136
g62
(dp137
sg71
g123
sg64
(lp138
g57
(g58
g59
NtRp139
(dp140
g62
(dp141
g70
I5
ssg71
g135
sg64
(lp142
g57
(g66
g59
NtRp143
(dp144
g62
(dp145
g70
I4
ssg71
Nsg64
(lp146
sbasbasbasbag57
(g73
g59
NtRp147
(dp148
g62
(dp149
sg71
g67
sg64
(lp150
g57
(g78
g59
NtRp151
(dp152
g62
(dp153
g82
g83
ssg71
g147
sg64
(lp154
S'body'
p155
asbag57
(g78
g59
NtRp156
(dp157
g62
(dp158
g89
g90
ssg71
g147
sg64
(lp159
S':'
asbag57
(g78
g59
NtRp160
(dp161
g62
(dp162
sg71
g147
sg64
(lp163
g57
(g58
g59
NtRp164
(dp165
g62
(dp166
g70
I5
ssg71
g160
sg64
(lp167
S'<cStringIO.StringO object at 0x7fbd004d1c38>'
p168
asbasbasbag57
(g73
g59
NtRp169
(dp170
g62
(dp171
sg71
g67
sg64
(lp172
g57
(g78
g59
NtRp173
(dp174
g62
(dp175
g82
g83
ssg71
g169
sg64
(lp176
S'client'
p177
asbag57
(g78
g59
NtRp178
(dp179
g62
(dp180
g89
g90
ssg71
g169
sg64
(lp181
S':'
asbag57
(g78
g59
NtRp182
(dp183
g62
(dp184
sg71
g169
sg64
(lp185
g57
(g58
g59
NtRp186
(dp187
g62
(dp188
g70
I5
ssg71
g182
sg64
(lp189
S'127.0.0.1'
p190
asbasbasbag57
(g73
g59
NtRp191
(dp192
g62
(dp193
sg71
g67
sg64
(lp194
g57
(g78
g59
NtRp195
(dp196
g62
(dp197
g82
g83
ssg71
g191
sg64
(lp198
S'controller'
p199
asbag57
(g78
g59
NtRp200
(dp201
g62
(dp202
g89
g90
ssg71
g191
sg64
(lp203
S':'
asbag57
(g78
g59
NtRp204
(dp205
g62
(dp206
sg71
g191
sg64
(lp207
g57
(g58
g59
NtRp208
(dp209
g62
(dp210
g70
I5
ssg71
g204
sg64
(lp211
S'default'
p212
asbasbasbag57
(g73
g59
NtRp213
(dp214
g62
(dp215
sg71
g67
sg64
(lp216
g57
(g78
g59
NtRp217
(dp218
g62
(dp219
g82
g83
ssg71
g213
sg64
(lp220
S'cookies'
p221
asbag57
(g78
g59
NtRp222
(dp223
g62
(dp224
g89
g90
ssg71
g213
sg64
(lp225
S':'
asbag57
(g78
g59
NtRp226
(dp227
g62
(dp228
sg71
g213
sg64
(lp229
g57
(g58
g59
NtRp230
(dp231
g62
(dp232
g70
I5
ssg71
g226
sg64
(lp233
g57
(g66
g59
NtRp234
(dp235
g62
(dp236
g70
I4
ssg71
Nsg64
(lp237
g57
(g73
g59
NtRp238
(dp239
g62
(dp240
sg71
g234
sg64
(lp241
g57
(g78
g59
NtRp242
(dp243
g62
(dp244
g82
g83
ssg71
g238
sg64
(lp245
S'session_id_admin'
p246
asbag57
(g78
g59
NtRp247
(dp248
g62
(dp249
g89
g90
ssg71
g238
sg64
(lp250
S':'
asbag57
(g78
g59
NtRp251
(dp252
g62
(dp253
sg71
g238
sg64
(lp254
g57
(g58
g59
NtRp255
(dp256
g62
(dp257
g70
I4
ssg71
g251
sg64
(lp258
g57
(g66
g59
NtRp259
(dp260
g62
(dp261
g70
I3
ssg71
Nsg64
(lp262
g57
(g73
g59
NtRp263
(dp264
g62
(dp265
sg71
g259
sg64
(lp266
g57
(g78
g59
NtRp267
(dp268
g62
(dp269
g82
g83
ssg71
g263
sg64
(lp270
S'comment'
p271
asbag57
(g78
g59
NtRp272
(dp273
g62
(dp274
g89
g90
ssg71
g263
sg64
(lp275
S':'
asbag57
(g78
g59
NtRp276
(dp277
g62
(dp278
sg71
g263
sg64
(lp279
g57
(g58
g59
NtRp280
(dp281
g62
(dp282
g70
I3
ssg71
g276
sg64
(lp283
S''
asbasbasbag57
(g73
g59
NtRp284
(dp285
g62
(dp286
sg71
g259
sg64
(lp287
g57
(g78
g59
NtRp288
(dp289
g62
(dp290
g82
g83
ssg71
g284
sg64
(lp291
S'domain'
p292
asbag57
(g78
g59
NtRp293
(dp294
g62
(dp295
g89
g90
ssg71
g284
sg64
(lp296
S':'
asbag57
(g78
g59
NtRp297
(dp298
g62
(dp299
sg71
g284
sg64
(lp300
g57
(g58
g59
NtRp301
(dp302
g62
(dp303
g70
I3
ssg71
g297
sg64
(lp304
S''
asbasbasbag57
(g73
g59
NtRp305
(dp306
g62
(dp307
sg71
g259
sg64
(lp308
g57
(g78
g59
NtRp309
(dp310
g62
(dp311
g82
g83
ssg71
g305
sg64
(lp312
S'expires'
p313
asbag57
(g78
g59
NtRp314
(dp315
g62
(dp316
g89
g90
ssg71
g305
sg64
(lp317
S':'
asbag57
(g78
g59
NtRp318
(dp319
g62
(dp320
sg71
g305
sg64
(lp321
g57
(g58
g59
NtRp322
(dp323
g62
(dp324
g70
I3
ssg71
g318
sg64
(lp325
S''
asbasbasbag57
(g73
g59
NtRp326
(dp327
g62
(dp328
sg71
g259
sg64
(lp329
g57
(g78
g59
NtRp330
(dp331
g62
(dp332
g82
g83
ssg71
g326
sg64
(lp333
S'httponly'
p334
asbag57
(g78
g59
NtRp335
(dp336
g62
(dp337
g89
g90
ssg71
g326
sg64
(lp338
S':'
asbag57
(g78
g59
NtRp339
(dp340
g62
(dp341
sg71
g326
sg64
(lp342
g57
(g58
g59
NtRp343
(dp344
g62
(dp345
g70
I3
ssg71
g339
sg64
(lp346
S''
asbasbasbag57
(g73
g59
NtRp347
(dp348
g62
(dp349
sg71
g259
sg64
(lp350
g57
(g78
g59
NtRp351
(dp352
g62
(dp353
g82
g83
ssg71
g347
sg64
(lp354
S'max-age'
p355
asbag57
(g78
g59
NtRp356
(dp357
g62
(dp358
g89
g90
ssg71
g347
sg64
(lp359
S':'
asbag57
(g78
g59
NtRp360
(dp361
g62
(dp362
sg71
g347
sg64
(lp363
g57
(g58
g59
NtRp364
(dp365
g62
(dp366
g70
I3
ssg71
g360
sg64
(lp367
S''
asbasbasbag57
(g73
g59
NtRp368
(dp369
g62
(dp370
sg71
g259
sg64
(lp371
g57
(g78
g59
NtRp372
(dp373
g62
(dp374
g82
g83
ssg71
g368
sg64
(lp375
S'path'
p376
asbag57
(g78
g59
NtRp377
(dp378
g62
(dp379
g89
g90
ssg71
g368
sg64
(lp380
S':'
asbag57
(g78
g59
NtRp381
(dp382
g62
(dp383
sg71
g368
sg64
(lp384
g57
(g58
g59
NtRp385
(dp386
g62
(dp387
g70
I3
ssg71
g381
sg64
(lp388
S''
asbasbasbag57
(g73
g59
NtRp389
(dp390
g62
(dp391
sg71
g259
sg64
(lp392
g57
(g78
g59
NtRp393
(dp394
g62
(dp395
g82
g83
ssg71
g389
sg64
(lp396
S'secure'
p397
asbag57
(g78
g59
NtRp398
(dp399
g62
(dp400
g89
g90
ssg71
g389
sg64
(lp401
S':'
asbag57
(g78
g59
NtRp402
(dp403
g62
(dp404
sg71
g389
sg64
(lp405
g57
(g58
g59
NtRp406
(dp407
g62
(dp408
g70
I3
ssg71
g402
sg64
(lp409
S''
asbasbasbag57
(g73
g59
NtRp410
(dp411
g62
(dp412
sg71
g259
sg64
(lp413
g57
(g78
g59
NtRp414
(dp415
g62
(dp416
g82
g83
ssg71
g410
sg64
(lp417
S'version'
p418
asbag57
(g78
g59
NtRp419
(dp420
g62
(dp421
g89
g90
ssg71
g410
sg64
(lp422
S':'
asbag57
(g78
g59
NtRp423
(dp424
g62
(dp425
sg71
g410
sg64
(lp426
g57
(g58
g59
NtRp427
(dp428
g62
(dp429
g70
I3
ssg71
g423
sg64
(lp430
S''
asbasbasbasbasbasbasbag57
(g73
g59
NtRp431
(dp432
g62
(dp433
sg71
g234
sg64
(lp434
g57
(g78
g59
NtRp435
(dp436
g62
(dp437
g82
g83
ssg71
g431
sg64
(lp438
S'session_id_hadoop'
p439
asbag57
(g78
g59
NtRp440
(dp441
g62
(dp442
g89
g90
ssg71
g431
sg64
(lp443
S':'
asbag57
(g78
g59
NtRp444
(dp445
g62
(dp446
sg71
g431
sg64
(lp447
g57
(g58
g59
NtRp448
(dp449
g62
(dp450
g70
I4
ssg71
g444
sg64
(lp451
g57
(g66
g59
NtRp452
(dp453
g62
(dp454
g70
I3
ssg71
Nsg64
(lp455
g57
(g73
g59
NtRp456
(dp457
g62
(dp458
sg71
g452
sg64
(lp459
g57
(g78
g59
NtRp460
(dp461
g62
(dp462
g82
g83
ssg71
g456
sg64
(lp463
g271
asbag57
(g78
g59
NtRp464
(dp465
g62
(dp466
g89
g90
ssg71
g456
sg64
(lp467
S':'
asbag57
(g78
g59
NtRp468
(dp469
g62
(dp470
sg71
g456
sg64
(lp471
g57
(g58
g59
NtRp472
(dp473
g62
(dp474
g70
I3
ssg71
g468
sg64
(lp475
S''
asbasbasbag57
(g73
g59
NtRp476
(dp477
g62
(dp478
sg71
g452
sg64
(lp479
g57
(g78
g59
NtRp480
(dp481
g62
(dp482
g82
g83
ssg71
g476
sg64
(lp483
g292
asbag57
(g78
g59
NtRp484
(dp485
g62
(dp486
g89
g90
ssg71
g476
sg64
(lp487
S':'
asbag57
(g78
g59
NtRp488
(dp489
g62
(dp490
sg71
g476
sg64
(lp491
g57
(g58
g59
NtRp492
(dp493
g62
(dp494
g70
I3
ssg71
g488
sg64
(lp495
S''
asbasbasbag57
(g73
g59
NtRp496
(dp497
g62
(dp498
sg71
g452
sg64
(lp499
g57
(g78
g59
NtRp500
(dp501
g62
(dp502
g82
g83
ssg71
g496
sg64
(lp503
g313
asbag57
(g78
g59
NtRp504
(dp505
g62
(dp506
g89
g90
ssg71
g496
sg64
(lp507
S':'
asbag57
(g78
g59
NtRp508
(dp509
g62
(dp510
sg71
g496
sg64
(lp511
g57
(g58
g59
NtRp512
(dp513
g62
(dp514
g70
I3
ssg71
g508
sg64
(lp515
S''
asbasbasbag57
(g73
g59
NtRp516
(dp517
g62
(dp518
sg71
g452
sg64
(lp519
g57
(g78
g59
NtRp520
(dp521
g62
(dp522
g82
g83
ssg71
g516
sg64
(lp523
g334
asbag57
(g78
g59
NtRp524
(dp525
g62
(dp526
g89
g90
ssg71
g516
sg64
(lp527
S':'
asbag57
(g78
g59
NtRp528
(dp529
g62
(dp530
sg71
g516
sg64
(lp531
g57
(g58
g59
NtRp532
(dp533
g62
(dp534
g70
I3
ssg71
g528
sg64
(lp535
S''
asbasbasbag57
(g73
g59
NtRp536
(dp537
g62
(dp538
sg71
g452
sg64
(lp539
g57
(g78
g59
NtRp540
(dp541
g62
(dp542
g82
g83
ssg71
g536
sg64
(lp543
g355
asbag57
(g78
g59
NtRp544
(dp545
g62
(dp546
g89
g90
ssg71
g536
sg64
(lp547
S':'
asbag57
(g78
g59
NtRp548
(dp549
g62
(dp550
sg71
g536
sg64
(lp551
g57
(g58
g59
NtRp552
(dp553
g62
(dp554
g70
I3
ssg71
g548
sg64
(lp555
S''
asbasbasbag57
(g73
g59
NtRp556
(dp557
g62
(dp558
sg71
g452
sg64
(lp559
g57
(g78
g59
NtRp560
(dp561
g62
(dp562
g82
g83
ssg71
g556
sg64
(lp563
g376
asbag57
(g78
g59
NtRp564
(dp565
g62
(dp566
g89
g90
ssg71
g556
sg64
(lp567
S':'
asbag57
(g78
g59
NtRp568
(dp569
g62
(dp570
sg71
g556
sg64
(lp571
g57
(g58
g59
NtRp572
(dp573
g62
(dp574
g70
I3
ssg71
g568
sg64
(lp575
S''
asbasbasbag57
(g73
g59
NtRp576
(dp577
g62
(dp578
sg71
g452
sg64
(lp579
g57
(g78
g59
NtRp580
(dp581
g62
(dp582
g82
g83
ssg71
g576
sg64
(lp583
g397
asbag57
(g78
g59
NtRp584
(dp585
g62
(dp586
g89
g90
ssg71
g576
sg64
(lp587
S':'
asbag57
(g78
g59
NtRp588
(dp589
g62
(dp590
sg71
g576
sg64
(lp591
g57
(g58
g59
NtRp592
(dp593
g62
(dp594
g70
I3
ssg71
g588
sg64
(lp595
S''
asbasbasbag57
(g73
g59
NtRp596
(dp597
g62
(dp598
sg71
g452
sg64
(lp599
g57
(g78
g59
NtRp600
(dp601
g62
(dp602
g82
g83
ssg71
g596
sg64
(lp603
g418
asbag57
(g78
g59
NtRp604
(dp605
g62
(dp606
g89
g90
ssg71
g596
sg64
(lp607
S':'
asbag57
(g78
g59
NtRp608
(dp609
g62
(dp610
sg71
g596
sg64
(lp611
g57
(g58
g59
NtRp612
(dp613
g62
(dp614
g70
I3
ssg71
g608
sg64
(lp615
S''
asbasbasbasbasbasbasbag57
(g73
g59
NtRp616
(dp617
g62
(dp618
sg71
g234
sg64
(lp619
g57
(g78
g59
NtRp620
(dp621
g62
(dp622
g82
g83
ssg71
g616
sg64
(lp623
S'session_id_welcome'
p624
asbag57
(g78
g59
NtRp625
(dp626
g62
(dp627
g89
g90
ssg71
g616
sg64
(lp628
S':'
asbag57
(g78
g59
NtRp629
(dp630
g62
(dp631
sg71
g616
sg64
(lp632
g57
(g58
g59
NtRp633
(dp634
g62
(dp635
g70
I4
ssg71
g629
sg64
(lp636
g57
(g66
g59
NtRp637
(dp638
g62
(dp639
g70
I3
ssg71
Nsg64
(lp640
g57
(g73
g59
NtRp641
(dp642
g62
(dp643
sg71
g637
sg64
(lp644
g57
(g78
g59
NtRp645
(dp646
g62
(dp647
g82
g83
ssg71
g641
sg64
(lp648
g271
asbag57
(g78
g59
NtRp649
(dp650
g62
(dp651
g89
g90
ssg71
g641
sg64
(lp652
S':'
asbag57
(g78
g59
NtRp653
(dp654
g62
(dp655
sg71
g641
sg64
(lp656
g57
(g58
g59
NtRp657
(dp658
g62
(dp659
g70
I3
ssg71
g653
sg64
(lp660
S''
asbasbasbag57
(g73
g59
NtRp661
(dp662
g62
(dp663
sg71
g637
sg64
(lp664
g57
(g78
g59
NtRp665
(dp666
g62
(dp667
g82
g83
ssg71
g661
sg64
(lp668
g292
asbag57
(g78
g59
NtRp669
(dp670
g62
(dp671
g89
g90
ssg71
g661
sg64
(lp672
S':'
asbag57
(g78
g59
NtRp673
(dp674
g62
(dp675
sg71
g661
sg64
(lp676
g57
(g58
g59
NtRp677
(dp678
g62
(dp679
g70
I3
ssg71
g673
sg64
(lp680
S''
asbasbasbag57
(g73
g59
NtRp681
(dp682
g62
(dp683
sg71
g637
sg64
(lp684
g57
(g78
g59
NtRp685
(dp686
g62
(dp687
g82
g83
ssg71
g681
sg64
(lp688
g313
asbag57
(g78
g59
NtRp689
(dp690
g62
(dp691
g89
g90
ssg71
g681
sg64
(lp692
S':'
asbag57
(g78
g59
NtRp693
(dp694
g62
(dp695
sg71
g681
sg64
(lp696
g57
(g58
g59
NtRp697
(dp698
g62
(dp699
g70
I3
ssg71
g693
sg64
(lp700
S''
asbasbasbag57
(g73
g59
NtRp701
(dp702
g62
(dp703
sg71
g637
sg64
(lp704
g57
(g78
g59
NtRp705
(dp706
g62
(dp707
g82
g83
ssg71
g701
sg64
(lp708
g334
asbag57
(g78
g59
NtRp709
(dp710
g62
(dp711
g89
g90
ssg71
g701
sg64
(lp712
S':'
asbag57
(g78
g59
NtRp713
(dp714
g62
(dp715
sg71
g701
sg64
(lp716
g57
(g58
g59
NtRp717
(dp718
g62
(dp719
g70
I3
ssg71
g713
sg64
(lp720
S''
asbasbasbag57
(g73
g59
NtRp721
(dp722
g62
(dp723
sg71
g637
sg64
(lp724
g57
(g78
g59
NtRp725
(dp726
g62
(dp727
g82
g83
ssg71
g721
sg64
(lp728
g355
asbag57
(g78
g59
NtRp729
(dp730
g62
(dp731
g89
g90
ssg71
g721
sg64
(lp732
S':'
asbag57
(g78
g59
NtRp733
(dp734
g62
(dp735
sg71
g721
sg64
(lp736
g57
(g58
g59
NtRp737
(dp738
g62
(dp739
g70
I3
ssg71
g733
sg64
(lp740
S''
asbasbasbag57
(g73
g59
NtRp741
(dp742
g62
(dp743
sg71
g637
sg64
(lp744
g57
(g78
g59
NtRp745
(dp746
g62
(dp747
g82
g83
ssg71
g741
sg64
(lp748
g376
asbag57
(g78
g59
NtRp749
(dp750
g62
(dp751
g89
g90
ssg71
g741
sg64
(lp752
S':'
asbag57
(g78
g59
NtRp753
(dp754
g62
(dp755
sg71
g741
sg64
(lp756
g57
(g58
g59
NtRp757
(dp758
g62
(dp759
g70
I3
ssg71
g753
sg64
(lp760
S''
asbasbasbag57
(g73
g59
NtRp761
(dp762
g62
(dp763
sg71
g637
sg64
(lp764
g57
(g78
g59
NtRp765
(dp766
g62
(dp767
g82
g83
ssg71
g761
sg64
(lp768
g397
asbag57
(g78
g59
NtRp769
(dp770
g62
(dp771
g89
g90
ssg71
g761
sg64
(lp772
S':'
asbag57
(g78
g59
NtRp773
(dp774
g62
(dp775
sg71
g761
sg64
(lp776
g57
(g58
g59
NtRp777
(dp778
g62
(dp779
g70
I3
ssg71
g773
sg64
(lp780
S''
asbasbasbag57
(g73
g59
NtRp781
(dp782
g62
(dp783
sg71
g637
sg64
(lp784
g57
(g78
g59
NtRp785
(dp786
g62
(dp787
g82
g83
ssg71
g781
sg64
(lp788
g418
asbag57
(g78
g59
NtRp789
(dp790
g62
(dp791
g89
g90
ssg71
g781
sg64
(lp792
S':'
asbag57
(g78
g59
NtRp793
(dp794
g62
(dp795
sg71
g781
sg64
(lp796
g57
(g58
g59
NtRp797
(dp798
g62
(dp799
g70
I3
ssg71
g793
sg64
(lp800
S''
asbasbasbasbasbasbasbasbasbasbasbag57
(g73
g59
NtRp801
(dp802
g62
(dp803
sg71
g67
sg64
(lp804
g57
(g78
g59
NtRp805
(dp806
g62
(dp807
g82
g83
ssg71
g801
sg64
(lp808
S'env'
p809
asbag57
(g78
g59
NtRp810
(dp811
g62
(dp812
g89
g90
ssg71
g801
sg64
(lp813
S':'
asbag57
(g78
g59
NtRp814
(dp815
g62
(dp816
sg71
g801
sg64
(lp817
g57
(g58
g59
NtRp818
(dp819
g62
(dp820
g70
I5
ssg71
g814
sg64
(lp821
g57
(g66
g59
NtRp822
(dp823
g62
(dp824
g70
I4
ssg71
Nsg64
(lp825
g57
(g73
g59
NtRp826
(dp827
g62
(dp828
sg71
g822
sg64
(lp829
g57
(g78
g59
NtRp830
(dp831
g62
(dp832
g82
g83
ssg71
g826
sg64
(lp833
S'app_folders'
p834
asbag57
(g78
g59
NtRp835
(dp836
g62
(dp837
g89
g90
ssg71
g826
sg64
(lp838
S':'
asbag57
(g78
g59
NtRp839
(dp840
g62
(dp841
sg71
g826
sg64
(lp842
g57
(g58
g59
NtRp843
(dp844
g62
(dp845
g70
I4
ssg71
g839
sg64
(lp846
S"set(['/home/hduser/web2py/applications/admin/', '/home/hduser/web2py/applications/welcome/', '/home/hduser/web2py/applications/Hadoop/'])"
p847
asbasbasbag57
(g73
g59
NtRp848
(dp849
g62
(dp850
sg71
g822
sg64
(lp851
g57
(g78
g59
NtRp852
(dp853
g62
(dp854
g82
g83
ssg71
g848
sg64
(lp855
S'applications_parent'
p856
asbag57
(g78
g59
NtRp857
(dp858
g62
(dp859
g89
g90
ssg71
g848
sg64
(lp860
S':'
asbag57
(g78
g59
NtRp861
(dp862
g62
(dp863
sg71
g848
sg64
(lp864
g57
(g58
g59
NtRp865
(dp866
g62
(dp867
g70
I4
ssg71
g861
sg64
(lp868
S'/home/hduser/web2py'
p869
asbasbasbag57
(g73
g59
NtRp870
(dp871
g62
(dp872
sg71
g822
sg64
(lp873
g57
(g78
g59
NtRp874
(dp875
g62
(dp876
g82
g83
ssg71
g870
sg64
(lp877
S'cmd_args'
p878
asbag57
(g78
g59
NtRp879
(dp880
g62
(dp881
g89
g90
ssg71
g870
sg64
(lp882
S':'
asbag57
(g78
g59
NtRp883
(dp884
g62
(dp885
sg71
g870
sg64
(lp886
g57
(g58
g59
NtRp887
(dp888
g62
(dp889
g70
I4
ssg71
g883
sg64
(lp890
g57
(g66
g59
NtRp891
(dp892
g62
(dp893
g70
I3
ssg71
Nsg64
(lp894
sbasbasbasbag57
(g73
g59
NtRp895
(dp896
g62
(dp897
sg71
g822
sg64
(lp898
g57
(g78
g59
NtRp899
(dp900
g62
(dp901
g82
g83
ssg71
g895
sg64
(lp902
S'cmd_options'
p903
asbag57
(g78
g59
NtRp904
(dp905
g62
(dp906
g89
g90
ssg71
g895
sg64
(lp907
S':'
asbag57
(g78
g59
NtRp908
(dp909
g62
(dp910
sg71
g895
sg64
(lp911
g57
(g58
g59
NtRp912
(dp913
g62
(dp914
g70
I4
ssg71
g908
sg64
(lp915
S"<Values at 0x29ff248: {'verbose': False, 'ip': '127.0.0.1', 'shutdown_timeout': 5, 'taskbar': False, 'port': 8000, 'maxthreads': None, 'softcron': False, 'server_name': 'Dell-XPS', 'bpython': False, 'nogui': False, 'nocron': False, 'extcron': False, 'debuglevel': 30, 'test': None, 'folder': '/home/hduser/web2py', 'config': '', 'import_models': False, 'winservice': '', 'shell': None, 'run': '', 'log_filename': 'httpserver.log', 'args': [''], 'socket_timeout': 1, 'profiler_filename': None, 'ssl_private_key': '', 'password': '<ask>', 'request_queue_size': 5, 'ssl_certificate': '', 'cronjob': False, 'plain': False, 'quiet': False, 'interfaces': None, 'minthreads': None, 'timeout': 10, 'numthreads': None, 'nobanner': False, 'pid_filename': 'httpserver.pid'}>"
p916
asbasbasbag57
(g73
g59
NtRp917
(dp918
g62
(dp919
sg71
g822
sg64
(lp920
g57
(g78
g59
NtRp921
(dp922
g62
(dp923
g82
g83
ssg71
g917
sg64
(lp924
S'db_sessions'
p925
asbag57
(g78
g59
NtRp926
(dp927
g62
(dp928
g89
g90
ssg71
g917
sg64
(lp929
S':'
asbag57
(g78
g59
NtRp930
(dp931
g62
(dp932
sg71
g917
sg64
(lp933
g57
(g58
g59
NtRp934
(dp935
g62
(dp936
g70
I4
ssg71
g930
sg64
(lp937
S'set([])'
p938
asbasbasbag57
(g73
g59
NtRp939
(dp940
g62
(dp941
sg71
g822
sg64
(lp942
g57
(g78
g59
NtRp943
(dp944
g62
(dp945
g82
g83
ssg71
g939
sg64
(lp946
S'debugging'
p947
asbag57
(g78
g59
NtRp948
(dp949
g62
(dp950
g89
g90
ssg71
g939
sg64
(lp951
S':'
asbag57
(g78
g59
NtRp952
(dp953
g62
(dp954
sg71
g939
sg64
(lp955
g57
(g58
g59
NtRp956
(dp957
g62
(dp958
g70
I4
ssg71
g952
sg64
(lp959
g100
asbasbasbag57
(g73
g59
NtRp960
(dp961
g62
(dp962
sg71
g822
sg64
(lp963
g57
(g78
g59
NtRp964
(dp965
g62
(dp966
g82
g83
ssg71
g960
sg64
(lp967
S'gluon_parent'
p968
asbag57
(g78
g59
NtRp969
(dp970
g62
(dp971
g89
g90
ssg71
g960
sg64
(lp972
S':'
asbag57
(g78
g59
NtRp973
(dp974
g62
(dp975
sg71
g960
sg64
(lp976
g57
(g58
g59
NtRp977
(dp978
g62
(dp979
g70
I4
ssg71
g973
sg64
(lp980
S'/usr/share/web2py'
p981
asbasbasbag57
(g73
g59
NtRp982
(dp983
g62
(dp984
sg71
g822
sg64
(lp985
g57
(g78
g59
NtRp986
(dp987
g62
(dp988
g82
g83
ssg71
g982
sg64
(lp989
S'http_accept'
p990
asbag57
(g78
g59
NtRp991
(dp992
g62
(dp993
g89
g90
ssg71
g982
sg64
(lp994
S':'
asbag57
(g78
g59
NtRp995
(dp996
g62
(dp997
sg71
g982
sg64
(lp998
g57
(g58
g59
NtRp999
(dp1000
g62
(dp1001
g70
I4
ssg71
g995
sg64
(lp1002
S'text/html,application/xhtml+xml,application/xml;q=0.9,image/webp,*/*;q=0.8'
p1003
asbasbasbag57
(g73
g59
NtRp1004
(dp1005
g62
(dp1006
sg71
g822
sg64
(lp1007
g57
(g78
g59
NtRp1008
(dp1009
g62
(dp1010
g82
g83
ssg71
g1004
sg64
(lp1011
S'http_accept_encoding'
p1012
asbag57
(g78
g59
NtRp1013
(dp1014
g62
(dp1015
g89
g90
ssg71
g1004
sg64
(lp1016
S':'
asbag57
(g78
g59
NtRp1017
(dp1018
g62
(dp1019
sg71
g1004
sg64
(lp1020
g57
(g58
g59
NtRp1021
(dp1022
g62
(dp1023
g70
I4
ssg71
g1017
sg64
(lp1024
S'gzip,deflate,sdch'
p1025
asbasbasbag57
(g73
g59
NtRp1026
(dp1027
g62
(dp1028
sg71
g822
sg64
(lp1029
g57
(g78
g59
NtRp1030
(dp1031
g62
(dp1032
g82
g83
ssg71
g1026
sg64
(lp1033
S'http_accept_language'
p1034
asbag57
(g78
g59
NtRp1035
(dp1036
g62
(dp1037
g89
g90
ssg71
g1026
sg64
(lp1038
S':'
asbag57
(g78
g59
NtRp1039
(dp1040
g62
(dp1041
sg71
g1026
sg64
(lp1042
g57
(g58
g59
NtRp1043
(dp1044
g62
(dp1045
g70
I4
ssg71
g1039
sg64
(lp1046
S'en-US,en;q=0.8'
p1047
asbasbasbag57
(g73
g59
NtRp1048
(dp1049
g62
(dp1050
sg71
g822
sg64
(lp1051
g57
(g78
g59
NtRp1052
(dp1053
g62
(dp1054
g82
g83
ssg71
g1048
sg64
(lp1055
S'http_cache_control'
p1056
asbag57
(g78
g59
NtRp1057
(dp1058
g62
(dp1059
g89
g90
ssg71
g1048
sg64
(lp1060
S':'
asbag57
(g78
g59
NtRp1061
(dp1062
g62
(dp1063
sg71
g1048
sg64
(lp1064
g57
(g58
g59
NtRp1065
(dp1066
g62
(dp1067
g70
I4
ssg71
g1061
sg64
(lp1068
S'max-age=0'
p1069
asbasbasbag57
(g73
g59
NtRp1070
(dp1071
g62
(dp1072
sg71
g822
sg64
(lp1073
g57
(g78
g59
NtRp1074
(dp1075
g62
(dp1076
g82
g83
ssg71
g1070
sg64
(lp1077
S'http_connection'
p1078
asbag57
(g78
g59
NtRp1079
(dp1080
g62
(dp1081
g89
g90
ssg71
g1070
sg64
(lp1082
S':'
asbag57
(g78
g59
NtRp1083
(dp1084
g62
(dp1085
sg71
g1070
sg64
(lp1086
g57
(g58
g59
NtRp1087
(dp1088
g62
(dp1089
g70
I4
ssg71
g1083
sg64
(lp1090
S'keep-alive'
p1091
asbasbasbag57
(g73
g59
NtRp1092
(dp1093
g62
(dp1094
sg71
g822
sg64
(lp1095
g57
(g78
g59
NtRp1096
(dp1097
g62
(dp1098
g82
g83
ssg71
g1092
sg64
(lp1099
S'http_cookie'
p1100
asbag57
(g78
g59
NtRp1101
(dp1102
g62
(dp1103
g89
g90
ssg71
g1092
sg64
(lp1104
S':'
asbag57
(g78
g59
NtRp1105
(dp1106
g62
(dp1107
sg71
g1092
sg64
(lp1108
g57
(g58
g59
NtRp1109
(dp1110
g62
(dp1111
g70
I4
ssg71
g1105
sg64
(lp1112
S'session_id_welcome=127.0.0.1-0af3cd4b-da4c-4ad4-8c69-c3b67ab36175; session_id_admin=127.0.0.1-2db8f2c1-40f4-42bd-b68d-23ac43f11292; session_id_hadoop=127.0.0.1-c917538c-3f57-402e-a51b-6c0b3b37bcff'
p1113
asbasbasbag57
(g73
g59
NtRp1114
(dp1115
g62
(dp1116
sg71
g822
sg64
(lp1117
g57
(g78
g59
NtRp1118
(dp1119
g62
(dp1120
g82
g83
ssg71
g1114
sg64
(lp1121
S'http_host'
p1122
asbag57
(g78
g59
NtRp1123
(dp1124
g62
(dp1125
g89
g90
ssg71
g1114
sg64
(lp1126
S':'
asbag57
(g78
g59
NtRp1127
(dp1128
g62
(dp1129
sg71
g1114
sg64
(lp1130
g57
(g58
g59
NtRp1131
(dp1132
g62
(dp1133
g70
I4
ssg71
g1127
sg64
(lp1134
S'127.0.0.1:8000'
p1135
asbasbasbag57
(g73
g59
NtRp1136
(dp1137
g62
(dp1138
sg71
g822
sg64
(lp1139
g57
(g78
g59
NtRp1140
(dp1141
g62
(dp1142
g82
g83
ssg71
g1136
sg64
(lp1143
S'http_user_agent'
p1144
asbag57
(g78
g59
NtRp1145
(dp1146
g62
(dp1147
g89
g90
ssg71
g1136
sg64
(lp1148
S':'
asbag57
(g78
g59
NtRp1149
(dp1150
g62
(dp1151
sg71
g1136
sg64
(lp1152
g57
(g58
g59
NtRp1153
(dp1154
g62
(dp1155
g70
I4
ssg71
g1149
sg64
(lp1156
S'Mozilla/5.0 (X11; Linux x86_64) AppleWebKit/537.36 (KHTML, like Gecko) Chrome/32.0.1700.107 Safari/537.36'
p1157
asbasbasbag57
(g73
g59
NtRp1158
(dp1159
g62
(dp1160
sg71
g822
sg64
(lp1161
g57
(g78
g59
NtRp1162
(dp1163
g62
(dp1164
g82
g83
ssg71
g1158
sg64
(lp1165
S'is_jython'
p1166
asbag57
(g78
g59
NtRp1167
(dp1168
g62
(dp1169
g89
g90
ssg71
g1158
sg64
(lp1170
S':'
asbag57
(g78
g59
NtRp1171
(dp1172
g62
(dp1173
sg71
g1158
sg64
(lp1174
g57
(g58
g59
NtRp1175
(dp1176
g62
(dp1177
g70
I4
ssg71
g1171
sg64
(lp1178
g100
asbasbasbag57
(g73
g59
NtRp1179
(dp1180
g62
(dp1181
sg71
g822
sg64
(lp1182
g57
(g78
g59
NtRp1183
(dp1184
g62
(dp1185
g82
g83
ssg71
g1179
sg64
(lp1186
S'is_pypy'
p1187
asbag57
(g78
g59
NtRp1188
(dp1189
g62
(dp1190
g89
g90
ssg71
g1179
sg64
(lp1191
S':'
asbag57
(g78
g59
NtRp1192
(dp1193
g62
(dp1194
sg71
g1179
sg64
(lp1195
g57
(g58
g59
NtRp1196
(dp1197
g62
(dp1198
g70
I4
ssg71
g1192
sg64
(lp1199
g100
asbasbasbag57
(g73
g59
NtRp1200
(dp1201
g62
(dp1202
sg71
g822
sg64
(lp1203
g57
(g78
g59
NtRp1204
(dp1205
g62
(dp1206
g82
g83
ssg71
g1200
sg64
(lp1207
S'path_info'
p1208
asbag57
(g78
g59
NtRp1209
(dp1210
g62
(dp1211
g89
g90
ssg71
g1200
sg64
(lp1212
S':'
asbag57
(g78
g59
NtRp1213
(dp1214
g62
(dp1215
sg71
g1200
sg64
(lp1216
g57
(g58
g59
NtRp1217
(dp1218
g62
(dp1219
g70
I4
ssg71
g1213
sg64
(lp1220
S'/Hadoop/default/action'
p1221
asbasbasbag57
(g73
g59
NtRp1222
(dp1223
g62
(dp1224
sg71
g822
sg64
(lp1225
g57
(g78
g59
NtRp1226
(dp1227
g62
(dp1228
g82
g83
ssg71
g1222
sg64
(lp1229
S'query_string'
p1230
asbag57
(g78
g59
NtRp1231
(dp1232
g62
(dp1233
g89
g90
ssg71
g1222
sg64
(lp1234
S':'
asbag57
(g78
g59
NtRp1235
(dp1236
g62
(dp1237
sg71
g1222
sg64
(lp1238
g57
(g58
g59
NtRp1239
(dp1240
g62
(dp1241
g70
I4
ssg71
g1235
sg64
(lp1242
S''
asbasbasbag57
(g73
g59
NtRp1243
(dp1244
g62
(dp1245
sg71
g822
sg64
(lp1246
g57
(g78
g59
NtRp1247
(dp1248
g62
(dp1249
g82
g83
ssg71
g1243
sg64
(lp1250
S'remote_addr'
p1251
asbag57
(g78
g59
NtRp1252
(dp1253
g62
(dp1254
g89
g90
ssg71
g1243
sg64
(lp1255
S':'
asbag57
(g78
g59
NtRp1256
(dp1257
g62
(dp1258
sg71
g1243
sg64
(lp1259
g57
(g58
g59
NtRp1260
(dp1261
g62
(dp1262
g70
I4
ssg71
g1256
sg64
(lp1263
g190
asbasbasbag57
(g73
g59
NtRp1264
(dp1265
g62
(dp1266
sg71
g822
sg64
(lp1267
g57
(g78
g59
NtRp1268
(dp1269
g62
(dp1270
g82
g83
ssg71
g1264
sg64
(lp1271
S'remote_port'
p1272
asbag57
(g78
g59
NtRp1273
(dp1274
g62
(dp1275
g89
g90
ssg71
g1264
sg64
(lp1276
S':'
asbag57
(g78
g59
NtRp1277
(dp1278
g62
(dp1279
sg71
g1264
sg64
(lp1280
g57
(g58
g59
NtRp1281
(dp1282
g62
(dp1283
g70
I4
ssg71
g1277
sg64
(lp1284
S'32873'
p1285
asbasbasbag57
(g73
g59
NtRp1286
(dp1287
g62
(dp1288
sg71
g822
sg64
(lp1289
g57
(g78
g59
NtRp1290
(dp1291
g62
(dp1292
g82
g83
ssg71
g1286
sg64
(lp1293
S'request_method'
p1294
asbag57
(g78
g59
NtRp1295
(dp1296
g62
(dp1297
g89
g90
ssg71
g1286
sg64
(lp1298
S':'
asbag57
(g78
g59
NtRp1299
(dp1300
g62
(dp1301
sg71
g1286
sg64
(lp1302
g57
(g58
g59
NtRp1303
(dp1304
g62
(dp1305
g70
I4
ssg71
g1299
sg64
(lp1306
S'GET'
p1307
asbasbasbag57
(g73
g59
NtRp1308
(dp1309
g62
(dp1310
sg71
g822
sg64
(lp1311
g57
(g78
g59
NtRp1312
(dp1313
g62
(dp1314
g82
g83
ssg71
g1308
sg64
(lp1315
S'script_name'
p1316
asbag57
(g78
g59
NtRp1317
(dp1318
g62
(dp1319
g89
g90
ssg71
g1308
sg64
(lp1320
S':'
asbag57
(g78
g59
NtRp1321
(dp1322
g62
(dp1323
sg71
g1308
sg64
(lp1324
g57
(g58
g59
NtRp1325
(dp1326
g62
(dp1327
g70
I4
ssg71
g1321
sg64
(lp1328
S''
asbasbasbag57
(g73
g59
NtRp1329
(dp1330
g62
(dp1331
sg71
g822
sg64
(lp1332
g57
(g78
g59
NtRp1333
(dp1334
g62
(dp1335
g82
g83
ssg71
g1329
sg64
(lp1336
S'server_name'
p1337
asbag57
(g78
g59
NtRp1338
(dp1339
g62
(dp1340
g89
g90
ssg71
g1329
sg64
(lp1341
S':'
asbag57
(g78
g59
NtRp1342
(dp1343
g62
(dp1344
sg71
g1329
sg64
(lp1345
g57
(g58
g59
NtRp1346
(dp1347
g62
(dp1348
g70
I4
ssg71
g1342
sg64
(lp1349
S'Dell-XPS'
p1350
asbasbasbag57
(g73
g59
NtRp1351
(dp1352
g62
(dp1353
sg71
g822
sg64
(lp1354
g57
(g78
g59
NtRp1355
(dp1356
g62
(dp1357
g82
g83
ssg71
g1351
sg64
(lp1358
S'server_port'
p1359
asbag57
(g78
g59
NtRp1360
(dp1361
g62
(dp1362
g89
g90
ssg71
g1351
sg64
(lp1363
S':'
asbag57
(g78
g59
NtRp1364
(dp1365
g62
(dp1366
sg71
g1351
sg64
(lp1367
g57
(g58
g59
NtRp1368
(dp1369
g62
(dp1370
g70
I4
ssg71
g1364
sg64
(lp1371
S'8000'
p1372
asbasbasbag57
(g73
g59
NtRp1373
(dp1374
g62
(dp1375
sg71
g822
sg64
(lp1376
g57
(g78
g59
NtRp1377
(dp1378
g62
(dp1379
g82
g83
ssg71
g1373
sg64
(lp1380
S'server_protocol'
p1381
asbag57
(g78
g59
NtRp1382
(dp1383
g62
(dp1384
g89
g90
ssg71
g1373
sg64
(lp1385
S':'
asbag57
(g78
g59
NtRp1386
(dp1387
g62
(dp1388
sg71
g1373
sg64
(lp1389
g57
(g58
g59
NtRp1390
(dp1391
g62
(dp1392
g70
I4
ssg71
g1386
sg64
(lp1393
S'HTTP/1.1'
p1394
asbasbasbag57
(g73
g59
NtRp1395
(dp1396
g62
(dp1397
sg71
g822
sg64
(lp1398
g57
(g78
g59
NtRp1399
(dp1400
g62
(dp1401
g82
g83
ssg71
g1395
sg64
(lp1402
S'server_software'
p1403
asbag57
(g78
g59
NtRp1404
(dp1405
g62
(dp1406
g89
g90
ssg71
g1395
sg64
(lp1407
S':'
asbag57
(g78
g59
NtRp1408
(dp1409
g62
(dp1410
sg71
g1395
sg64
(lp1411
g57
(g58
g59
NtRp1412
(dp1413
g62
(dp1414
g70
I4
ssg71
g1408
sg64
(lp1415
S'Rocket 1.2.4'
p1416
asbasbasbag57
(g73
g59
NtRp1417
(dp1418
g62
(dp1419
sg71
g822
sg64
(lp1420
g57
(g78
g59
NtRp1421
(dp1422
g62
(dp1423
g82
g83
ssg71
g1417
sg64
(lp1424
S'web2py_crontype'
p1425
asbag57
(g78
g59
NtRp1426
(dp1427
g62
(dp1428
g89
g90
ssg71
g1417
sg64
(lp1429
S':'
asbag57
(g78
g59
NtRp1430
(dp1431
g62
(dp1432
sg71
g1417
sg64
(lp1433
g57
(g58
g59
NtRp1434
(dp1435
g62
(dp1436
g70
I4
ssg71
g1430
sg64
(lp1437
S'hard'
p1438
asbasbasbag57
(g73
g59
NtRp1439
(dp1440
g62
(dp1441
sg71
g822
sg64
(lp1442
g57
(g78
g59
NtRp1443
(dp1444
g62
(dp1445
g82
g83
ssg71
g1439
sg64
(lp1446
S'web2py_path'
p1447
asbag57
(g78
g59
NtRp1448
(dp1449
g62
(dp1450
g89
g90
ssg71
g1439
sg64
(lp1451
S':'
asbag57
(g78
g59
NtRp1452
(dp1453
g62
(dp1454
sg71
g1439
sg64
(lp1455
g57
(g58
g59
NtRp1456
(dp1457
g62
(dp1458
g70
I4
ssg71
g1452
sg64
(lp1459
g869
asbasbasbag57
(g73
g59
NtRp1460
(dp1461
g62
(dp1462
sg71
g822
sg64
(lp1463
g57
(g78
g59
NtRp1464
(dp1465
g62
(dp1466
g82
g83
ssg71
g1460
sg64
(lp1467
S'web2py_version'
p1468
asbag57
(g78
g59
NtRp1469
(dp1470
g62
(dp1471
g89
g90
ssg71
g1460
sg64
(lp1472
S':'
asbag57
(g78
g59
NtRp1473
(dp1474
g62
(dp1475
sg71
g1460
sg64
(lp1476
g57
(g58
g59
NtRp1477
(dp1478
g62
(dp1479
g70
I4
ssg71
g1473
sg64
(lp1480
g57
(g66
g59
NtRp1481
(dp1482
g62
(dp1483
g70
I3
ssg71
Nsg64
(lp1484
g57
(g73
g59
NtRp1485
(dp1486
g62
(dp1487
sg71
g1481
sg64
(lp1488
g57
(g78
g59
NtRp1489
(dp1490
g62
(dp1491
sg71
g1485
sg64
(lp1492
g57
(g58
g59
NtRp1493
(dp1494
g62
(dp1495
g70
I3
ssg71
g1489
sg64
(lp1496
S'1'
asbasbasbag57
(g73
g59
NtRp1497
(dp1498
g62
(dp1499
sg71
g1481
sg64
(lp1500
g57
(g78
g59
NtRp1501
(dp1502
g62
(dp1503
sg71
g1497
sg64
(lp1504
g57
(g58
g59
NtRp1505
(dp1506
g62
(dp1507
g70
I3
ssg71
g1501
sg64
(lp1508
S'99'
p1509
asbasbasbag57
(g73
g59
NtRp1510
(dp1511
g62
(dp1512
sg71
g1481
sg64
(lp1513
g57
(g78
g59
NtRp1514
(dp1515
g62
(dp1516
sg71
g1510
sg64
(lp1517
g57
(g58
g59
NtRp1518
(dp1519
g62
(dp1520
g70
I3
ssg71
g1514
sg64
(lp1521
S'4'
asbasbasbag57
(g73
g59
NtRp1522
(dp1523
g62
(dp1524
sg71
g1481
sg64
(lp1525
g57
(g78
g59
NtRp1526
(dp1527
g62
(dp1528
sg71
g1522
sg64
(lp1529
g57
(g58
g59
NtRp1530
(dp1531
g62
(dp1532
g70
I3
ssg71
g1526
sg64
(lp1533
S'datetime.datetime(2011, 12, 14, 14, 46, 14)'
p1534
asbasbasbag57
(g73
g59
NtRp1535
(dp1536
g62
(dp1537
sg71
g1481
sg64
(lp1538
g57
(g78
g59
NtRp1539
(dp1540
g62
(dp1541
sg71
g1535
sg64
(lp1542
g57
(g58
g59
NtRp1543
(dp1544
g62
(dp1545
g70
I3
ssg71
g1539
sg64
(lp1546
S'stable'
p1547
asbasbasbasbasbasbasbag57
(g73
g59
NtRp1548
(dp1549
g62
(dp1550
sg71
g822
sg64
(lp1551
g57
(g78
g59
NtRp1552
(dp1553
g62
(dp1554
g82
g83
ssg71
g1548
sg64
(lp1555
S'wsgi_errors'
p1556
asbag57
(g78
g59
NtRp1557
(dp1558
g62
(dp1559
g89
g90
ssg71
g1548
sg64
(lp1560
S':'
asbag57
(g78
g59
NtRp1561
(dp1562
g62
(dp1563
sg71
g1548
sg64
(lp1564
g57
(g58
g59
NtRp1565
(dp1566
g62
(dp1567
g70
I4
ssg71
g1561
sg64
(lp1568
S"<open file '<stderr>', mode 'w' at 0x7fbd2c730270>"
p1569
asbasbasbag57
(g73
g59
NtRp1570
(dp1571
g62
(dp1572
sg71
g822
sg64
(lp1573
g57
(g78
g59
NtRp1574
(dp1575
g62
(dp1576
g82
g83
ssg71
g1570
sg64
(lp1577
S'wsgi_file_wrapper'
p1578
asbag57
(g78
g59
NtRp1579
(dp1580
g62
(dp1581
g89
g90
ssg71
g1570
sg64
(lp1582
S':'
asbag57
(g78
g59
NtRp1583
(dp1584
g62
(dp1585
sg71
g1570
sg64
(lp1586
g57
(g58
g59
NtRp1587
(dp1588
g62
(dp1589
g70
I4
ssg71
g1583
sg64
(lp1590
S'<class wsgiref.util.FileWrapper at 0x29451f0>'
p1591
asbasbasbag57
(g73
g59
NtRp1592
(dp1593
g62
(dp1594
sg71
g822
sg64
(lp1595
g57
(g78
g59
NtRp1596
(dp1597
g62
(dp1598
g82
g83
ssg71
g1592
sg64
(lp1599
S'wsgi_input'
p1600
asbag57
(g78
g59
NtRp1601
(dp1602
g62
(dp1603
g89
g90
ssg71
g1592
sg64
(lp1604
S':'
asbag57
(g78
g59
NtRp1605
(dp1606
g62
(dp1607
sg71
g1592
sg64
(lp1608
g57
(g58
g59
NtRp1609
(dp1610
g62
(dp1611
g70
I4
ssg71
g1605
sg64
(lp1612
S'<socket._fileobject object at 0x2f75750>'
p1613
asbasbasbag57
(g73
g59
NtRp1614
(dp1615
g62
(dp1616
sg71
g822
sg64
(lp1617
g57
(g78
g59
NtRp1618
(dp1619
g62
(dp1620
g82
g83
ssg71
g1614
sg64
(lp1621
S'wsgi_multiprocess'
p1622
asbag57
(g78
g59
NtRp1623
(dp1624
g62
(dp1625
g89
g90
ssg71
g1614
sg64
(lp1626
S':'
asbag57
(g78
g59
NtRp1627
(dp1628
g62
(dp1629
sg71
g1614
sg64
(lp1630
g57
(g58
g59
NtRp1631
(dp1632
g62
(dp1633
g70
I4
ssg71
g1627
sg64
(lp1634
g100
asbasbasbag57
(g73
g59
NtRp1635
(dp1636
g62
(dp1637
sg71
g822
sg64
(lp1638
g57
(g78
g59
NtRp1639
(dp1640
g62
(dp1641
g82
g83
ssg71
g1635
sg64
(lp1642
S'wsgi_multithread'
p1643
asbag57
(g78
g59
NtRp1644
(dp1645
g62
(dp1646
g89
g90
ssg71
g1635
sg64
(lp1647
S':'
asbag57
(g78
g59
NtRp1648
(dp1649
g62
(dp1650
sg71
g1635
sg64
(lp1651
g57
(g58
g59
NtRp1652
(dp1653
g62
(dp1654
g70
I4
ssg71
g1648
sg64
(lp1655
S'True'
p1656
asbasbasbag57
(g73
g59
NtRp1657
(dp1658
g62
(dp1659
sg71
g822
sg64
(lp1660
g57
(g78
g59
NtRp1661
(dp1662
g62
(dp1663
g82
g83
ssg71
g1657
sg64
(lp1664
S'wsgi_run_once'
p1665
asbag57
(g78
g59
NtRp1666
(dp1667
g62
(dp1668
g89
g90
ssg71
g1657
sg64
(lp1669
S':'
asbag57
(g78
g59
NtRp1670
(dp1671
g62
(dp1672
sg71
g1657
sg64
(lp1673
g57
(g58
g59
NtRp1674
(dp1675
g62
(dp1676
g70
I4
ssg71
g1670
sg64
(lp1677
g100
asbasbasbag57
(g73
g59
NtRp1678
(dp1679
g62
(dp1680
sg71
g822
sg64
(lp1681
g57
(g78
g59
NtRp1682
(dp1683
g62
(dp1684
g82
g83
ssg71
g1678
sg64
(lp1685
S'wsgi_url_scheme'
p1686
asbag57
(g78
g59
NtRp1687
(dp1688
g62
(dp1689
g89
g90
ssg71
g1678
sg64
(lp1690
S':'
asbag57
(g78
g59
NtRp1691
(dp1692
g62
(dp1693
sg71
g1678
sg64
(lp1694
g57
(g58
g59
NtRp1695
(dp1696
g62
(dp1697
g70
I4
ssg71
g1691
sg64
(lp1698
S'http'
p1699
asbasbasbag57
(g73
g59
NtRp1700
(dp1701
g62
(dp1702
sg71
g822
sg64
(lp1703
g57
(g78
g59
NtRp1704
(dp1705
g62
(dp1706
g82
g83
ssg71
g1700
sg64
(lp1707
S'wsgi_version'
p1708
asbag57
(g78
g59
NtRp1709
(dp1710
g62
(dp1711
g89
g90
ssg71
g1700
sg64
(lp1712
S':'
asbag57
(g78
g59
NtRp1713
(dp1714
g62
(dp1715
sg71
g1700
sg64
(lp1716
g57
(g58
g59
NtRp1717
(dp1718
g62
(dp1719
g70
I4
ssg71
g1713
sg64
(lp1720
g57
(g66
g59
NtRp1721
(dp1722
g62
(dp1723
g70
I3
ssg71
Nsg64
(lp1724
g57
(g73
g59
NtRp1725
(dp1726
g62
(dp1727
sg71
g1721
sg64
(lp1728
g57
(g78
g59
NtRp1729
(dp1730
g62
(dp1731
sg71
g1725
sg64
(lp1732
g57
(g58
g59
NtRp1733
(dp1734
g62
(dp1735
g70
I3
ssg71
g1729
sg64
(lp1736
S'1'
asbasbasbag57
(g73
g59
NtRp1737
(dp1738
g62
(dp1739
sg71
g1721
sg64
(lp1740
g57
(g78
g59
NtRp1741
(dp1742
g62
(dp1743
sg71
g1737
sg64
(lp1744
g57
(g58
g59
NtRp1745
(dp1746
g62
(dp1747
g70
I3
ssg71
g1741
sg64
(lp1748
S'0'
asbasbasbasbasbasbasbasbasbasbasbag57
(g73
g59
NtRp1749
(dp1750
g62
(dp1751
sg71
g67
sg64
(lp1752
g57
(g78
g59
NtRp1753
(dp1754
g62
(dp1755
g82
g83
ssg71
g1749
sg64
(lp1756
S'extension'
p1757
asbag57
(g78
g59
NtRp1758
(dp1759
g62
(dp1760
g89
g90
ssg71
g1749
sg64
(lp1761
S':'
asbag57
(g78
g59
NtRp1762
(dp1763
g62
(dp1764
sg71
g1749
sg64
(lp1765
g57
(g58
g59
NtRp1766
(dp1767
g62
(dp1768
g70
I5
ssg71
g1762
sg64
(lp1769
S'html'
p1770
asbasbasbag57
(g73
g59
NtRp1771
(dp1772
g62
(dp1773
sg71
g67
sg64
(lp1774
g57
(g78
g59
NtRp1775
(dp1776
g62
(dp1777
g82
g83
ssg71
g1771
sg64
(lp1778
S'folder'
p1779
asbag57
(g78
g59
NtRp1780
(dp1781
g62
(dp1782
g89
g90
ssg71
g1771
sg64
(lp1783
S':'
asbag57
(g78
g59
NtRp1784
(dp1785
g62
(dp1786
sg71
g1771
sg64
(lp1787
g57
(g58
g59
NtRp1788
(dp1789
g62
(dp1790
g70
I5
ssg71
g1784
sg64
(lp1791
S'/home/hduser/web2py/applications/Hadoop/'
p1792
asbasbasbag57
(g73
g59
NtRp1793
(dp1794
g62
(dp1795
sg71
g67
sg64
(lp1796
g57
(g78
g59
NtRp1797
(dp1798
g62
(dp1799
g82
g83
ssg71
g1793
sg64
(lp1800
S'function'
p1801
asbag57
(g78
g59
NtRp1802
(dp1803
g62
(dp1804
g89
g90
ssg71
g1793
sg64
(lp1805
S':'
asbag57
(g78
g59
NtRp1806
(dp1807
g62
(dp1808
sg71
g1793
sg64
(lp1809
g57
(g58
g59
NtRp1810
(dp1811
g62
(dp1812
g70
I5
ssg71
g1806
sg64
(lp1813
S'action'
p1814
asbasbasbag57
(g73
g59
NtRp1815
(dp1816
g62
(dp1817
sg71
g67
sg64
(lp1818
g57
(g78
g59
NtRp1819
(dp1820
g62
(dp1821
g82
g83
ssg71
g1815
sg64
(lp1822
S'get_vars'
p1823
asbag57
(g78
g59
NtRp1824
(dp1825
g62
(dp1826
g89
g90
ssg71
g1815
sg64
(lp1827
S':'
asbag57
(g78
g59
NtRp1828
(dp1829
g62
(dp1830
sg71
g1815
sg64
(lp1831
g57
(g58
g59
NtRp1832
(dp1833
g62
(dp1834
g70
I5
ssg71
g1828
sg64
(lp1835
g57
(g66
g59
NtRp1836
(dp1837
g62
(dp1838
g70
I4
ssg71
Nsg64
(lp1839
sbasbasbasbag57
(g73
g59
NtRp1840
(dp1841
g62
(dp1842
sg71
g67
sg64
(lp1843
g57
(g78
g59
NtRp1844
(dp1845
g62
(dp1846
g82
g83
ssg71
g1840
sg64
(lp1847
S'global_settings'
p1848
asbag57
(g78
g59
NtRp1849
(dp1850
g62
(dp1851
g89
g90
ssg71
g1840
sg64
(lp1852
S':'
asbag57
(g78
g59
NtRp1853
(dp1854
g62
(dp1855
sg71
g1840
sg64
(lp1856
g57
(g58
g59
NtRp1857
(dp1858
g62
(dp1859
g70
I5
ssg71
g1853
sg64
(lp1860
g57
(g66
g59
NtRp1861
(dp1862
g62
(dp1863
g70
I4
ssg71
Nsg64
(lp1864
g57
(g73
g59
NtRp1865
(dp1866
g62
(dp1867
sg71
g1861
sg64
(lp1868
g57
(g78
g59
NtRp1869
(dp1870
g62
(dp1871
g82
g83
ssg71
g1865
sg64
(lp1872
g834
asbag57
(g78
g59
NtRp1873
(dp1874
g62
(dp1875
g89
g90
ssg71
g1865
sg64
(lp1876
S':'
asbag57
(g78
g59
NtRp1877
(dp1878
g62
(dp1879
sg71
g1865
sg64
(lp1880
g57
(g58
g59
NtRp1881
(dp1882
g62
(dp1883
g70
I4
ssg71
g1877
sg64
(lp1884
S"set(['/home/hduser/web2py/applications/admin/', '/home/hduser/web2py/applications/welcome/', '/home/hduser/web2py/applications/Hadoop/'])"
p1885
asbasbasbag57
(g73
g59
NtRp1886
(dp1887
g62
(dp1888
sg71
g1861
sg64
(lp1889
g57
(g78
g59
NtRp1890
(dp1891
g62
(dp1892
g82
g83
ssg71
g1886
sg64
(lp1893
g856
asbag57
(g78
g59
NtRp1894
(dp1895
g62
(dp1896
g89
g90
ssg71
g1886
sg64
(lp1897
S':'
asbag57
(g78
g59
NtRp1898
(dp1899
g62
(dp1900
sg71
g1886
sg64
(lp1901
g57
(g58
g59
NtRp1902
(dp1903
g62
(dp1904
g70
I4
ssg71
g1898
sg64
(lp1905
g869
asbasbasbag57
(g73
g59
NtRp1906
(dp1907
g62
(dp1908
sg71
g1861
sg64
(lp1909
g57
(g78
g59
NtRp1910
(dp1911
g62
(dp1912
g82
g83
ssg71
g1906
sg64
(lp1913
g878
asbag57
(g78
g59
NtRp1914
(dp1915
g62
(dp1916
g89
g90
ssg71
g1906
sg64
(lp1917
S':'
asbag57
(g78
g59
NtRp1918
(dp1919
g62
(dp1920
sg71
g1906
sg64
(lp1921
g57
(g58
g59
NtRp1922
(dp1923
g62
(dp1924
g70
I4
ssg71
g1918
sg64
(lp1925
g57
(g66
g59
NtRp1926
(dp1927
g62
(dp1928
g70
I3
ssg71
Nsg64
(lp1929
sbasbasbasbag57
(g73
g59
NtRp1930
(dp1931
g62
(dp1932
sg71
g1861
sg64
(lp1933
g57
(g78
g59
NtRp1934
(dp1935
g62
(dp1936
g82
g83
ssg71
g1930
sg64
(lp1937
g903
asbag57
(g78
g59
NtRp1938
(dp1939
g62
(dp1940
g89
g90
ssg71
g1930
sg64
(lp1941
S':'
asbag57
(g78
g59
NtRp1942
(dp1943
g62
(dp1944
sg71
g1930
sg64
(lp1945
g57
(g58
g59
NtRp1946
(dp1947
g62
(dp1948
g70
I4
ssg71
g1942
sg64
(lp1949
S"<Values at 0x29ff248: {'verbose': False, 'ip': '127.0.0.1', 'shutdown_timeout': 5, 'taskbar': False, 'port': 8000, 'maxthreads': None, 'softcron': False, 'server_name': 'Dell-XPS', 'bpython': False, 'nogui': False, 'nocron': False, 'extcron': False, 'debuglevel': 30, 'test': None, 'folder': '/home/hduser/web2py', 'config': '', 'import_models': False, 'winservice': '', 'shell': None, 'run': '', 'log_filename': 'httpserver.log', 'args': [''], 'socket_timeout': 1, 'profiler_filename': None, 'ssl_private_key': '', 'password': '<ask>', 'request_queue_size': 5, 'ssl_certificate': '', 'cronjob': False, 'plain': False, 'quiet': False, 'interfaces': None, 'minthreads': None, 'timeout': 10, 'numthreads': None, 'nobanner': False, 'pid_filename': 'httpserver.pid'}>"
p1950
asbasbasbag57
(g73
g59
NtRp1951
(dp1952
g62
(dp1953
sg71
g1861
sg64
(lp1954
g57
(g78
g59
NtRp1955
(dp1956
g62
(dp1957
g82
g83
ssg71
g1951
sg64
(lp1958
g925
asbag57
(g78
g59
NtRp1959
(dp1960
g62
(dp1961
g89
g90
ssg71
g1951
sg64
(lp1962
S':'
asbag57
(g78
g59
NtRp1963
(dp1964
g62
(dp1965
sg71
g1951
sg64
(lp1966
g57
(g58
g59
NtRp1967
(dp1968
g62
(dp1969
g70
I4
ssg71
g1963
sg64
(lp1970
S'set([])'
p1971
asbasbasbag57
(g73
g59
NtRp1972
(dp1973
g62
(dp1974
sg71
g1861
sg64
(lp1975
g57
(g78
g59
NtRp1976
(dp1977
g62
(dp1978
g82
g83
ssg71
g1972
sg64
(lp1979
g947
asbag57
(g78
g59
NtRp1980
(dp1981
g62
(dp1982
g89
g90
ssg71
g1972
sg64
(lp1983
S':'
asbag57
(g78
g59
NtRp1984
(dp1985
g62
(dp1986
sg71
g1972
sg64
(lp1987
g57
(g58
g59
NtRp1988
(dp1989
g62
(dp1990
g70
I4
ssg71
g1984
sg64
(lp1991
g100
asbasbasbag57
(g73
g59
NtRp1992
(dp1993
g62
(dp1994
sg71
g1861
sg64
(lp1995
g57
(g78
g59
NtRp1996
(dp1997
g62
(dp1998
g82
g83
ssg71
g1992
sg64
(lp1999
g968
asbag57
(g78
g59
NtRp2000
(dp2001
g62
(dp2002
g89
g90
ssg71
g1992
sg64
(lp2003
S':'
asbag57
(g78
g59
NtRp2004
(dp2005
g62
(dp2006
sg71
g1992
sg64
(lp2007
g57
(g58
g59
NtRp2008
(dp2009
g62
(dp2010
g70
I4
ssg71
g2004
sg64
(lp2011
g981
asbasbasbag57
(g73
g59
NtRp2012
(dp2013
g62
(dp2014
sg71
g1861
sg64
(lp2015
g57
(g78
g59
NtRp2016
(dp2017
g62
(dp2018
g82
g83
ssg71
g2012
sg64
(lp2019
g1166
asbag57
(g78
g59
NtRp2020
(dp2021
g62
(dp2022
g89
g90
ssg71
g2012
sg64
(lp2023
S':'
asbag57
(g78
g59
NtRp2024
(dp2025
g62
(dp2026
sg71
g2012
sg64
(lp2027
g57
(g58
g59
NtRp2028
(dp2029
g62
(dp2030
g70
I4
ssg71
g2024
sg64
(lp2031
g100
asbasbasbag57
(g73
g59
NtRp2032
(dp2033
g62
(dp2034
sg71
g1861
sg64
(lp2035
g57
(g78
g59
NtRp2036
(dp2037
g62
(dp2038
g82
g83
ssg71
g2032
sg64
(lp2039
g1187
asbag57
(g78
g59
NtRp2040
(dp2041
g62
(dp2042
g89
g90
ssg71
g2032
sg64
(lp2043
S':'
asbag57
(g78
g59
NtRp2044
(dp2045
g62
(dp2046
sg71
g2032
sg64
(lp2047
g57
(g58
g59
NtRp2048
(dp2049
g62
(dp2050
g70
I4
ssg71
g2044
sg64
(lp2051
g100
asbasbasbag57
(g73
g59
NtRp2052
(dp2053
g62
(dp2054
sg71
g1861
sg64
(lp2055
g57
(g78
g59
NtRp2056
(dp2057
g62
(dp2058
g82
g83
ssg71
g2052
sg64
(lp2059
g1425
asbag57
(g78
g59
NtRp2060
(dp2061
g62
(dp2062
g89
g90
ssg71
g2052
sg64
(lp2063
S':'
asbag57
(g78
g59
NtRp2064
(dp2065
g62
(dp2066
sg71
g2052
sg64
(lp2067
g57
(g58
g59
NtRp2068
(dp2069
g62
(dp2070
g70
I4
ssg71
g2064
sg64
(lp2071
g1438
asbasbasbag57
(g73
g59
NtRp2072
(dp2073
g62
(dp2074
sg71
g1861
sg64
(lp2075
g57
(g78
g59
NtRp2076
(dp2077
g62
(dp2078
g82
g83
ssg71
g2072
sg64
(lp2079
g1468
asbag57
(g78
g59
NtRp2080
(dp2081
g62
(dp2082
g89
g90
ssg71
g2072
sg64
(lp2083
S':'
asbag57
(g78
g59
NtRp2084
(dp2085
g62
(dp2086
sg71
g2072
sg64
(lp2087
g57
(g58
g59
NtRp2088
(dp2089
g62
(dp2090
g70
I4
ssg71
g2084
sg64
(lp2091
g57
(g66
g59
NtRp2092
(dp2093
g62
(dp2094
g70
I3
ssg71
Nsg64
(lp2095
g57
(g73
g59
NtRp2096
(dp2097
g62
(dp2098
sg71
g2092
sg64
(lp2099
g57
(g78
g59
NtRp2100
(dp2101
g62
(dp2102
sg71
g2096
sg64
(lp2103
g57
(g58
g59
NtRp2104
(dp2105
g62
(dp2106
g70
I3
ssg71
g2100
sg64
(lp2107
S'1'
asbasbasbag57
(g73
g59
NtRp2108
(dp2109
g62
(dp2110
sg71
g2092
sg64
(lp2111
g57
(g78
g59
NtRp2112
(dp2113
g62
(dp2114
sg71
g2108
sg64
(lp2115
g57
(g58
g59
NtRp2116
(dp2117
g62
(dp2118
g70
I3
ssg71
g2112
sg64
(lp2119
S'99'
p2120
asbasbasbag57
(g73
g59
NtRp2121
(dp2122
g62
(dp2123
sg71
g2092
sg64
(lp2124
g57
(g78
g59
NtRp2125
(dp2126
g62
(dp2127
sg71
g2121
sg64
(lp2128
g57
(g58
g59
NtRp2129
(dp2130
g62
(dp2131
g70
I3
ssg71
g2125
sg64
(lp2132
S'4'
asbasbasbag57
(g73
g59
NtRp2133
(dp2134
g62
(dp2135
sg71
g2092
sg64
(lp2136
g57
(g78
g59
NtRp2137
(dp2138
g62
(dp2139
sg71
g2133
sg64
(lp2140
g57
(g58
g59
NtRp2141
(dp2142
g62
(dp2143
g70
I3
ssg71
g2137
sg64
(lp2144
S'datetime.datetime(2011, 12, 14, 14, 46, 14)'
p2145
asbasbasbag57
(g73
g59
NtRp2146
(dp2147
g62
(dp2148
sg71
g2092
sg64
(lp2149
g57
(g78
g59
NtRp2150
(dp2151
g62
(dp2152
sg71
g2146
sg64
(lp2153
g57
(g58
g59
NtRp2154
(dp2155
g62
(dp2156
g70
I3
ssg71
g2150
sg64
(lp2157
g1547
asbasbasbasbasbasbasbasbasbasbasbag57
(g73
g59
NtRp2158
(dp2159
g62
(dp2160
sg71
g67
sg64
(lp2161
g57
(g78
g59
NtRp2162
(dp2163
g62
(dp2164
g82
g83
ssg71
g2158
sg64
(lp2165
S'is_https'
p2166
asbag57
(g78
g59
NtRp2167
(dp2168
g62
(dp2169
g89
g90
ssg71
g2158
sg64
(lp2170
S':'
asbag57
(g78
g59
NtRp2171
(dp2172
g62
(dp2173
sg71
g2158
sg64
(lp2174
g57
(g58
g59
NtRp2175
(dp2176
g62
(dp2177
g70
I5
ssg71
g2171
sg64
(lp2178
g100
asbasbasbag57
(g73
g59
NtRp2179
(dp2180
g62
(dp2181
sg71
g67
sg64
(lp2182
g57
(g78
g59
NtRp2183
(dp2184
g62
(dp2185
g82
g83
ssg71
g2179
sg64
(lp2186
S'is_local'
p2187
asbag57
(g78
g59
NtRp2188
(dp2189
g62
(dp2190
g89
g90
ssg71
g2179
sg64
(lp2191
S':'
asbag57
(g78
g59
NtRp2192
(dp2193
g62
(dp2194
sg71
g2179
sg64
(lp2195
g57
(g58
g59
NtRp2196
(dp2197
g62
(dp2198
g70
I5
ssg71
g2192
sg64
(lp2199
g1656
asbasbasbag57
(g73
g59
NtRp2200
(dp2201
g62
(dp2202
sg71
g67
sg64
(lp2203
g57
(g78
g59
NtRp2204
(dp2205
g62
(dp2206
g82
g83
ssg71
g2200
sg64
(lp2207
S'is_restful'
p2208
asbag57
(g78
g59
NtRp2209
(dp2210
g62
(dp2211
g89
g90
ssg71
g2200
sg64
(lp2212
S':'
asbag57
(g78
g59
NtRp2213
(dp2214
g62
(dp2215
sg71
g2200
sg64
(lp2216
g57
(g58
g59
NtRp2217
(dp2218
g62
(dp2219
g70
I5
ssg71
g2213
sg64
(lp2220
g100
asbasbasbag57
(g73
g59
NtRp2221
(dp2222
g62
(dp2223
sg71
g67
sg64
(lp2224
g57
(g78
g59
NtRp2225
(dp2226
g62
(dp2227
g82
g83
ssg71
g2221
sg64
(lp2228
S'now'
p2229
asbag57
(g78
g59
NtRp2230
(dp2231
g62
(dp2232
g89
g90
ssg71
g2221
sg64
(lp2233
S':'
asbag57
(g78
g59
NtRp2234
(dp2235
g62
(dp2236
sg71
g2221
sg64
(lp2237
g57
(g58
g59
NtRp2238
(dp2239
g62
(dp2240
g70
I5
ssg71
g2234
sg64
(lp2241
S'datetime.datetime(2014, 2, 25, 15, 4, 1, 38900)'
p2242
asbasbasbag57
(g73
g59
NtRp2243
(dp2244
g62
(dp2245
sg71
g67
sg64
(lp2246
g57
(g78
g59
NtRp2247
(dp2248
g62
(dp2249
g82
g83
ssg71
g2243
sg64
(lp2250
S'post_vars'
p2251
asbag57
(g78
g59
NtRp2252
(dp2253
g62
(dp2254
g89
g90
ssg71
g2243
sg64
(lp2255
S':'
asbag57
(g78
g59
NtRp2256
(dp2257
g62
(dp2258
sg71
g2243
sg64
(lp2259
g57
(g58
g59
NtRp2260
(dp2261
g62
(dp2262
g70
I5
ssg71
g2256
sg64
(lp2263
g57
(g66
g59
NtRp2264
(dp2265
g62
(dp2266
g70
I4
ssg71
Nsg64
(lp2267
sbasbasbasbag57
(g73
g59
NtRp2268
(dp2269
g62
(dp2270
sg71
g67
sg64
(lp2271
g57
(g78
g59
NtRp2272
(dp2273
g62
(dp2274
g82
g83
ssg71
g2268
sg64
(lp2275
S'url'
p2276
asbag57
(g78
g59
NtRp2277
(dp2278
g62
(dp2279
g89
g90
ssg71
g2268
sg64
(lp2280
S':'
asbag57
(g78
g59
NtRp2281
(dp2282
g62
(dp2283
sg71
g2268
sg64
(lp2284
g57
(g58
g59
NtRp2285
(dp2286
g62
(dp2287
g70
I5
ssg71
g2281
sg64
(lp2288
S'/Hadoop/default/action'
p2289
asbasbasbag57
(g73
g59
NtRp2290
(dp2291
g62
(dp2292
sg71
g67
sg64
(lp2293
g57
(g78
g59
NtRp2294
(dp2295
g62
(dp2296
g82
g83
ssg71
g2290
sg64
(lp2297
S'utcnow'
p2298
asbag57
(g78
g59
NtRp2299
(dp2300
g62
(dp2301
g89
g90
ssg71
g2290
sg64
(lp2302
S':'
asbag57
(g78
g59
NtRp2303
(dp2304
g62
(dp2305
sg71
g2290
sg64
(lp2306
g57
(g58
g59
NtRp2307
(dp2308
g62
(dp2309
g70
I5
ssg71
g2303
sg64
(lp2310
S'datetime.datetime(2014, 2, 25, 9, 34, 1, 38929)'
p2311
asbasbasbag57
(g73
g59
NtRp2312
(dp2313
g62
(dp2314
sg71
g67
sg64
(lp2315
g57
(g78
g59
NtRp2316
(dp2317
g62
(dp2318
g82
g83
ssg71
g2312
sg64
(lp2319
S'uuid'
p2320
asbag57
(g78
g59
NtRp2321
(dp2322
g62
(dp2323
g89
g90
ssg71
g2312
sg64
(lp2324
S':'
asbag57
(g78
g59
NtRp2325
(dp2326
g62
(dp2327
sg71
g2312
sg64
(lp2328
g57
(g58
g59
NtRp2329
(dp2330
g62
(dp2331
g70
I5
ssg71
g2325
sg64
(lp2332
S'Hadoop/127.0.0.1.2014-02-25.15-04-01.eb6e24ae-97e8-414c-a064-d540c0011827'
p2333
asbasbasbag57
(g73
g59
NtRp2334
(dp2335
g62
(dp2336
sg71
g67
sg64
(lp2337
g57
(g78
g59
NtRp2338
(dp2339
g62
(dp2340
g82
g83
ssg71
g2334
sg64
(lp2341
S'vars'
p2342
asbag57
(g78
g59
NtRp2343
(dp2344
g62
(dp2345
g89
g90
ssg71
g2334
sg64
(lp2346
S':'
asbag57
(g78
g59
NtRp2347
(dp2348
g62
(dp2349
sg71
g2334
sg64
(lp2350
g57
(g58
g59
NtRp2351
(dp2352
g62
(dp2353
g70
I5
ssg71
g2347
sg64
(lp2354
g57
(g66
g59
NtRp2355
(dp2356
g62
(dp2357
g70
I4
ssg71
Nsg64
(lp2358
sbasbasbasbag57
(g73
g59
NtRp2359
(dp2360
g62
(dp2361
sg71
g67
sg64
(lp2362
g57
(g78
g59
NtRp2363
(dp2364
g62
(dp2365
g82
g83
ssg71
g2359
sg64
(lp2366
S'wsgi'
p2367
asbag57
(g78
g59
NtRp2368
(dp2369
g62
(dp2370
g89
g90
ssg71
g2359
sg64
(lp2371
S':'
asbag57
(g78
g59
NtRp2372
(dp2373
g62
(dp2374
sg71
g2359
sg64
(lp2375
g57
(g58
g59
NtRp2376
(dp2377
g62
(dp2378
g70
I5
ssg71
g2372
sg64
(lp2379
g57
(g66
g59
NtRp2380
(dp2381
g62
(dp2382
g70
I4
ssg71
Nsg64
(lp2383
g57
(g73
g59
NtRp2384
(dp2385
g62
(dp2386
sg71
g2380
sg64
(lp2387
g57
(g78
g59
NtRp2388
(dp2389
g62
(dp2390
g82
g83
ssg71
g2384
sg64
(lp2391
S'environ'
p2392
asbag57
(g78
g59
NtRp2393
(dp2394
g62
(dp2395
g89
g90
ssg71
g2384
sg64
(lp2396
S':'
asbag57
(g78
g59
NtRp2397
(dp2398
g62
(dp2399
sg71
g2384
sg64
(lp2400
g57
(g58
g59
NtRp2401
(dp2402
g62
(dp2403
g70
I4
ssg71
g2397
sg64
(lp2404
g57
(g66
g59
NtRp2405
(dp2406
g62
(dp2407
g70
I3
ssg71
Nsg64
(lp2408
g57
(g73
g59
NtRp2409
(dp2410
g62
(dp2411
sg71
g2405
sg64
(lp2412
g57
(g78
g59
NtRp2413
(dp2414
g62
(dp2415
g82
g83
ssg71
g2409
sg64
(lp2416
S'HTTP_ACCEPT'
p2417
asbag57
(g78
g59
NtRp2418
(dp2419
g62
(dp2420
g89
g90
ssg71
g2409
sg64
(lp2421
S':'
asbag57
(g78
g59
NtRp2422
(dp2423
g62
(dp2424
sg71
g2409
sg64
(lp2425
g57
(g58
g59
NtRp2426
(dp2427
g62
(dp2428
g70
I3
ssg71
g2422
sg64
(lp2429
g1003
asbasbasbag57
(g73
g59
NtRp2430
(dp2431
g62
(dp2432
sg71
g2405
sg64
(lp2433
g57
(g78
g59
NtRp2434
(dp2435
g62
(dp2436
g82
g83
ssg71
g2430
sg64
(lp2437
S'HTTP_ACCEPT_ENCODING'
p2438
asbag57
(g78
g59
NtRp2439
(dp2440
g62
(dp2441
g89
g90
ssg71
g2430
sg64
(lp2442
S':'
asbag57
(g78
g59
NtRp2443
(dp2444
g62
(dp2445
sg71
g2430
sg64
(lp2446
g57
(g58
g59
NtRp2447
(dp2448
g62
(dp2449
g70
I3
ssg71
g2443
sg64
(lp2450
g1025
asbasbasbag57
(g73
g59
NtRp2451
(dp2452
g62
(dp2453
sg71
g2405
sg64
(lp2454
g57
(g78
g59
NtRp2455
(dp2456
g62
(dp2457
g82
g83
ssg71
g2451
sg64
(lp2458
S'HTTP_ACCEPT_LANGUAGE'
p2459
asbag57
(g78
g59
NtRp2460
(dp2461
g62
(dp2462
g89
g90
ssg71
g2451
sg64
(lp2463
S':'
asbag57
(g78
g59
NtRp2464
(dp2465
g62
(dp2466
sg71
g2451
sg64
(lp2467
g57
(g58
g59
NtRp2468
(dp2469
g62
(dp2470
g70
I3
ssg71
g2464
sg64
(lp2471
g1047
asbasbasbag57
(g73
g59
NtRp2472
(dp2473
g62
(dp2474
sg71
g2405
sg64
(lp2475
g57
(g78
g59
NtRp2476
(dp2477
g62
(dp2478
g82
g83
ssg71
g2472
sg64
(lp2479
S'HTTP_CACHE_CONTROL'
p2480
asbag57
(g78
g59
NtRp2481
(dp2482
g62
(dp2483
g89
g90
ssg71
g2472
sg64
(lp2484
S':'
asbag57
(g78
g59
NtRp2485
(dp2486
g62
(dp2487
sg71
g2472
sg64
(lp2488
g57
(g58
g59
NtRp2489
(dp2490
g62
(dp2491
g70
I3
ssg71
g2485
sg64
(lp2492
g1069
asbasbasbag57
(g73
g59
NtRp2493
(dp2494
g62
(dp2495
sg71
g2405
sg64
(lp2496
g57
(g78
g59
NtRp2497
(dp2498
g62
(dp2499
g82
g83
ssg71
g2493
sg64
(lp2500
S'HTTP_CONNECTION'
p2501
asbag57
(g78
g59
NtRp2502
(dp2503
g62
(dp2504
g89
g90
ssg71
g2493
sg64
(lp2505
S':'
asbag57
(g78
g59
NtRp2506
(dp2507
g62
(dp2508
sg71
g2493
sg64
(lp2509
g57
(g58
g59
NtRp2510
(dp2511
g62
(dp2512
g70
I3
ssg71
g2506
sg64
(lp2513
g1091
asbasbasbag57
(g73
g59
NtRp2514
(dp2515
g62
(dp2516
sg71
g2405
sg64
(lp2517
g57
(g78
g59
NtRp2518
(dp2519
g62
(dp2520
g82
g83
ssg71
g2514
sg64
(lp2521
S'HTTP_COOKIE'
p2522
asbag57
(g78
g59
NtRp2523
(dp2524
g62
(dp2525
g89
g90
ssg71
g2514
sg64
(lp2526
S':'
asbag57
(g78
g59
NtRp2527
(dp2528
g62
(dp2529
sg71
g2514
sg64
(lp2530
g57
(g58
g59
NtRp2531
(dp2532
g62
(dp2533
g70
I3
ssg71
g2527
sg64
(lp2534
g1113
asbasbasbag57
(g73
g59
NtRp2535
(dp2536
g62
(dp2537
sg71
g2405
sg64
(lp2538
g57
(g78
g59
NtRp2539
(dp2540
g62
(dp2541
g82
g83
ssg71
g2535
sg64
(lp2542
S'HTTP_HOST'
p2543
asbag57
(g78
g59
NtRp2544
(dp2545
g62
(dp2546
g89
g90
ssg71
g2535
sg64
(lp2547
S':'
asbag57
(g78
g59
NtRp2548
(dp2549
g62
(dp2550
sg71
g2535
sg64
(lp2551
g57
(g58
g59
NtRp2552
(dp2553
g62
(dp2554
g70
I3
ssg71
g2548
sg64
(lp2555
g1135
asbasbasbag57
(g73
g59
NtRp2556
(dp2557
g62
(dp2558
sg71
g2405
sg64
(lp2559
g57
(g78
g59
NtRp2560
(dp2561
g62
(dp2562
g82
g83
ssg71
g2556
sg64
(lp2563
S'HTTP_USER_AGENT'
p2564
asbag57
(g78
g59
NtRp2565
(dp2566
g62
(dp2567
g89
g90
ssg71
g2556
sg64
(lp2568
S':'
asbag57
(g78
g59
NtRp2569
(dp2570
g62
(dp2571
sg71
g2556
sg64
(lp2572
g57
(g58
g59
NtRp2573
(dp2574
g62
(dp2575
g70
I3
ssg71
g2569
sg64
(lp2576
g1157
asbasbasbag57
(g73
g59
NtRp2577
(dp2578
g62
(dp2579
sg71
g2405
sg64
(lp2580
g57
(g78
g59
NtRp2581
(dp2582
g62
(dp2583
g82
g83
ssg71
g2577
sg64
(lp2584
S'PATH_INFO'
p2585
asbag57
(g78
g59
NtRp2586
(dp2587
g62
(dp2588
g89
g90
ssg71
g2577
sg64
(lp2589
S':'
asbag57
(g78
g59
NtRp2590
(dp2591
g62
(dp2592
sg71
g2577
sg64
(lp2593
g57
(g58
g59
NtRp2594
(dp2595
g62
(dp2596
g70
I3
ssg71
g2590
sg64
(lp2597
g1221
asbasbasbag57
(g73
g59
NtRp2598
(dp2599
g62
(dp2600
sg71
g2405
sg64
(lp2601
g57
(g78
g59
NtRp2602
(dp2603
g62
(dp2604
g82
g83
ssg71
g2598
sg64
(lp2605
S'QUERY_STRING'
p2606
asbag57
(g78
g59
NtRp2607
(dp2608
g62
(dp2609
g89
g90
ssg71
g2598
sg64
(lp2610
S':'
asbag57
(g78
g59
NtRp2611
(dp2612
g62
(dp2613
sg71
g2598
sg64
(lp2614
g57
(g58
g59
NtRp2615
(dp2616
g62
(dp2617
g70
I3
ssg71
g2611
sg64
(lp2618
S''
asbasbasbag57
(g73
g59
NtRp2619
(dp2620
g62
(dp2621
sg71
g2405
sg64
(lp2622
g57
(g78
g59
NtRp2623
(dp2624
g62
(dp2625
g82
g83
ssg71
g2619
sg64
(lp2626
S'REMOTE_ADDR'
p2627
asbag57
(g78
g59
NtRp2628
(dp2629
g62
(dp2630
g89
g90
ssg71
g2619
sg64
(lp2631
S':'
asbag57
(g78
g59
NtRp2632
(dp2633
g62
(dp2634
sg71
g2619
sg64
(lp2635
g57
(g58
g59
NtRp2636
(dp2637
g62
(dp2638
g70
I3
ssg71
g2632
sg64
(lp2639
g190
asbasbasbag57
(g73
g59
NtRp2640
(dp2641
g62
(dp2642
sg71
g2405
sg64
(lp2643
g57
(g78
g59
NtRp2644
(dp2645
g62
(dp2646
g82
g83
ssg71
g2640
sg64
(lp2647
S'REMOTE_PORT'
p2648
asbag57
(g78
g59
NtRp2649
(dp2650
g62
(dp2651
g89
g90
ssg71
g2640
sg64
(lp2652
S':'
asbag57
(g78
g59
NtRp2653
(dp2654
g62
(dp2655
sg71
g2640
sg64
(lp2656
g57
(g58
g59
NtRp2657
(dp2658
g62
(dp2659
g70
I3
ssg71
g2653
sg64
(lp2660
g1285
asbasbasbag57
(g73
g59
NtRp2661
(dp2662
g62
(dp2663
sg71
g2405
sg64
(lp2664
g57
(g78
g59
NtRp2665
(dp2666
g62
(dp2667
g82
g83
ssg71
g2661
sg64
(lp2668
S'REQUEST_METHOD'
p2669
asbag57
(g78
g59
NtRp2670
(dp2671
g62
(dp2672
g89
g90
ssg71
g2661
sg64
(lp2673
S':'
asbag57
(g78
g59
NtRp2674
(dp2675
g62
(dp2676
sg71
g2661
sg64
(lp2677
g57
(g58
g59
NtRp2678
(dp2679
g62
(dp2680
g70
I3
ssg71
g2674
sg64
(lp2681
g1307
asbasbasbag57
(g73
g59
NtRp2682
(dp2683
g62
(dp2684
sg71
g2405
sg64
(lp2685
g57
(g78
g59
NtRp2686
(dp2687
g62
(dp2688
g82
g83
ssg71
g2682
sg64
(lp2689
S'SCRIPT_NAME'
p2690
asbag57
(g78
g59
NtRp2691
(dp2692
g62
(dp2693
g89
g90
ssg71
g2682
sg64
(lp2694
S':'
asbag57
(g78
g59
NtRp2695
(dp2696
g62
(dp2697
sg71
g2682
sg64
(lp2698
g57
(g58
g59
NtRp2699
(dp2700
g62
(dp2701
g70
I3
ssg71
g2695
sg64
(lp2702
S''
asbasbasbag57
(g73
g59
NtRp2703
(dp2704
g62
(dp2705
sg71
g2405
sg64
(lp2706
g57
(g78
g59
NtRp2707
(dp2708
g62
(dp2709
g82
g83
ssg71
g2703
sg64
(lp2710
S'SERVER_NAME'
p2711
asbag57
(g78
g59
NtRp2712
(dp2713
g62
(dp2714
g89
g90
ssg71
g2703
sg64
(lp2715
S':'
asbag57
(g78
g59
NtRp2716
(dp2717
g62
(dp2718
sg71
g2703
sg64
(lp2719
g57
(g58
g59
NtRp2720
(dp2721
g62
(dp2722
g70
I3
ssg71
g2716
sg64
(lp2723
g1350
asbasbasbag57
(g73
g59
NtRp2724
(dp2725
g62
(dp2726
sg71
g2405
sg64
(lp2727
g57
(g78
g59
NtRp2728
(dp2729
g62
(dp2730
g82
g83
ssg71
g2724
sg64
(lp2731
S'SERVER_PORT'
p2732
asbag57
(g78
g59
NtRp2733
(dp2734
g62
(dp2735
g89
g90
ssg71
g2724
sg64
(lp2736
S':'
asbag57
(g78
g59
NtRp2737
(dp2738
g62
(dp2739
sg71
g2724
sg64
(lp2740
g57
(g58
g59
NtRp2741
(dp2742
g62
(dp2743
g70
I3
ssg71
g2737
sg64
(lp2744
g1372
asbasbasbag57
(g73
g59
NtRp2745
(dp2746
g62
(dp2747
sg71
g2405
sg64
(lp2748
g57
(g78
g59
NtRp2749
(dp2750
g62
(dp2751
g82
g83
ssg71
g2745
sg64
(lp2752
S'SERVER_PROTOCOL'
p2753
asbag57
(g78
g59
NtRp2754
(dp2755
g62
(dp2756
g89
g90
ssg71
g2745
sg64
(lp2757
S':'
asbag57
(g78
g59
NtRp2758
(dp2759
g62
(dp2760
sg71
g2745
sg64
(lp2761
g57
(g58
g59
NtRp2762
(dp2763
g62
(dp2764
g70
I3
ssg71
g2758
sg64
(lp2765
g1394
asbasbasbag57
(g73
g59
NtRp2766
(dp2767
g62
(dp2768
sg71
g2405
sg64
(lp2769
g57
(g78
g59
NtRp2770
(dp2771
g62
(dp2772
g82
g83
ssg71
g2766
sg64
(lp2773
S'SERVER_SOFTWARE'
p2774
asbag57
(g78
g59
NtRp2775
(dp2776
g62
(dp2777
g89
g90
ssg71
g2766
sg64
(lp2778
S':'
asbag57
(g78
g59
NtRp2779
(dp2780
g62
(dp2781
sg71
g2766
sg64
(lp2782
g57
(g58
g59
NtRp2783
(dp2784
g62
(dp2785
g70
I3
ssg71
g2779
sg64
(lp2786
g1416
asbasbasbag57
(g73
g59
NtRp2787
(dp2788
g62
(dp2789
sg71
g2405
sg64
(lp2790
g57
(g78
g59
NtRp2791
(dp2792
g62
(dp2793
g82
g83
ssg71
g2787
sg64
(lp2794
S'wsgi.errors'
p2795
asbag57
(g78
g59
NtRp2796
(dp2797
g62
(dp2798
g89
g90
ssg71
g2787
sg64
(lp2799
S':'
asbag57
(g78
g59
NtRp2800
(dp2801
g62
(dp2802
sg71
g2787
sg64
(lp2803
g57
(g58
g59
NtRp2804
(dp2805
g62
(dp2806
g70
I3
ssg71
g2800
sg64
(lp2807
S"<open file '<stderr>', mode 'w' at 0x7fbd2c730270>"
p2808
asbasbasbag57
(g73
g59
NtRp2809
(dp2810
g62
(dp2811
sg71
g2405
sg64
(lp2812
g57
(g78
g59
NtRp2813
(dp2814
g62
(dp2815
g82
g83
ssg71
g2809
sg64
(lp2816
S'wsgi.file_wrapper'
p2817
asbag57
(g78
g59
NtRp2818
(dp2819
g62
(dp2820
g89
g90
ssg71
g2809
sg64
(lp2821
S':'
asbag57
(g78
g59
NtRp2822
(dp2823
g62
(dp2824
sg71
g2809
sg64
(lp2825
g57
(g58
g59
NtRp2826
(dp2827
g62
(dp2828
g70
I3
ssg71
g2822
sg64
(lp2829
S'<class wsgiref.util.FileWrapper at 0x29451f0>'
p2830
asbasbasbag57
(g73
g59
NtRp2831
(dp2832
g62
(dp2833
sg71
g2405
sg64
(lp2834
g57
(g78
g59
NtRp2835
(dp2836
g62
(dp2837
g82
g83
ssg71
g2831
sg64
(lp2838
S'wsgi.input'
p2839
asbag57
(g78
g59
NtRp2840
(dp2841
g62
(dp2842
g89
g90
ssg71
g2831
sg64
(lp2843
S':'
asbag57
(g78
g59
NtRp2844
(dp2845
g62
(dp2846
sg71
g2831
sg64
(lp2847
g57
(g58
g59
NtRp2848
(dp2849
g62
(dp2850
g70
I3
ssg71
g2844
sg64
(lp2851
S'<cStringIO.StringO object at 0x7fbd004d1c38>'
p2852
asbasbasbag57
(g73
g59
NtRp2853
(dp2854
g62
(dp2855
sg71
g2405
sg64
(lp2856
g57
(g78
g59
NtRp2857
(dp2858
g62
(dp2859
g82
g83
ssg71
g2853
sg64
(lp2860
S'wsgi.multiprocess'
p2861
asbag57
(g78
g59
NtRp2862
(dp2863
g62
(dp2864
g89
g90
ssg71
g2853
sg64
(lp2865
S':'
asbag57
(g78
g59
NtRp2866
(dp2867
g62
(dp2868
sg71
g2853
sg64
(lp2869
g57
(g58
g59
NtRp2870
(dp2871
g62
(dp2872
g70
I3
ssg71
g2866
sg64
(lp2873
g100
asbasbasbag57
(g73
g59
NtRp2874
(dp2875
g62
(dp2876
sg71
g2405
sg64
(lp2877
g57
(g78
g59
NtRp2878
(dp2879
g62
(dp2880
g82
g83
ssg71
g2874
sg64
(lp2881
S'wsgi.multithread'
p2882
asbag57
(g78
g59
NtRp2883
(dp2884
g62
(dp2885
g89
g90
ssg71
g2874
sg64
(lp2886
S':'
asbag57
(g78
g59
NtRp2887
(dp2888
g62
(dp2889
sg71
g2874
sg64
(lp2890
g57
(g58
g59
NtRp2891
(dp2892
g62
(dp2893
g70
I3
ssg71
g2887
sg64
(lp2894
g1656
asbasbasbag57
(g73
g59
NtRp2895
(dp2896
g62
(dp2897
sg71
g2405
sg64
(lp2898
g57
(g78
g59
NtRp2899
(dp2900
g62
(dp2901
g82
g83
ssg71
g2895
sg64
(lp2902
S'wsgi.run_once'
p2903
asbag57
(g78
g59
NtRp2904
(dp2905
g62
(dp2906
g89
g90
ssg71
g2895
sg64
(lp2907
S':'
asbag57
(g78
g59
NtRp2908
(dp2909
g62
(dp2910
sg71
g2895
sg64
(lp2911
g57
(g58
g59
NtRp2912
(dp2913
g62
(dp2914
g70
I3
ssg71
g2908
sg64
(lp2915
g100
asbasbasbag57
(g73
g59
NtRp2916
(dp2917
g62
(dp2918
sg71
g2405
sg64
(lp2919
g57
(g78
g59
NtRp2920
(dp2921
g62
(dp2922
g82
g83
ssg71
g2916
sg64
(lp2923
S'wsgi.url_scheme'
p2924
asbag57
(g78
g59
NtRp2925
(dp2926
g62
(dp2927
g89
g90
ssg71
g2916
sg64
(lp2928
S':'
asbag57
(g78
g59
NtRp2929
(dp2930
g62
(dp2931
sg71
g2916
sg64
(lp2932
g57
(g58
g59
NtRp2933
(dp2934
g62
(dp2935
g70
I3
ssg71
g2929
sg64
(lp2936
g1699
asbasbasbag57
(g73
g59
NtRp2937
(dp2938
g62
(dp2939
sg71
g2405
sg64
(lp2940
g57
(g78
g59
NtRp2941
(dp2942
g62
(dp2943
g82
g83
ssg71
g2937
sg64
(lp2944
S'wsgi.version'
p2945
asbag57
(g78
g59
NtRp2946
(dp2947
g62
(dp2948
g89
g90
ssg71
g2937
sg64
(lp2949
S':'
asbag57
(g78
g59
NtRp2950
(dp2951
g62
(dp2952
sg71
g2937
sg64
(lp2953
g57
(g58
g59
NtRp2954
(dp2955
g62
(dp2956
g70
I3
ssg71
g2950
sg64
(lp2957
S'1'
asbasbasbasbasbasbasbasbasbasbasbasbasbsS'frames'
p2958
(lp2959
(dp2960
S'file'
p2961
S'/usr/lib/pymodules/python2.7/gluon/restricted.py'
p2962
sS'dump'
p2963
(dp2964
S'environment'
p2965
S"{'A': <class 'gluon.html.A'>, 'Auth': <class 'gluon.tools.Auth'>, 'B': <class 'gluon.html.B'>, 'BEAUTIFY': <class 'gluon.html.BEAUTIFY'>, 'BODY': <class 'gluon.html.BODY'>, 'BR': <class 'gluon.html.BR'>, 'BUTTON': <class 'gluon.html.BUTTON'>, 'CAT': <class 'gluon.html.CAT'>, 'CENTER': <class 'gluon.html.CENTER'>, 'CLEANUP': <class 'gluon.validators.CLEANUP'>, ...}"
p2966
sS'ccode'
p2967
S'<code object <module> at 0x7fbd004d48b0, file "/...lications/Hadoop/controllers/default.py", line 3>'
p2968
ssS'lnum'
p2969
I204
sS'lines'
p2970
(dp2971
I199
S'    try:'
p2972
sI200
S'        if type(code) == types.CodeType:'
p2973
sI201
S'            ccode = code'
p2974
sI202
S'        else:'
p2975
sI203
S'            ccode = compile2(code,layer)'
p2976
sI204
S'        exec ccode in environment'
p2977
sI205
S'    except HTTP:'
p2978
sI206
S'        raise'
p2979
sI207
S'    except RestrictedError:'
p2980
sI208
S'        # do not encapsulate (obfuscate) the original RestrictedError'
p2981
ssS'call'
p2982
S"(code='# coding: utf8\\n# try something like\\nimport os\\nim..._vars);\\n\\nresponse._vars=response._caller(action)\\n', environment={'A': <class 'gluon.html.A'>, 'Auth': <class 'gluon.tools.Auth'>, 'B': <class 'gluon.html.B'>, 'BEAUTIFY': <class 'gluon.html.BEAUTIFY'>, 'BODY': <class 'gluon.html.BODY'>, 'BR': <class 'gluon.html.BR'>, 'BUTTON': <class 'gluon.html.BUTTON'>, 'CAT': <class 'gluon.html.CAT'>, 'CENTER': <class 'gluon.html.CENTER'>, 'CLEANUP': <class 'gluon.validators.CLEANUP'>, ...}, layer='/home/hduser/web2py/applications/Hadoop/controllers/default.py')"
p2983
sS'func'
p2984
S'restricted'
p2985
sa(dp2986
g2961
S'/home/hduser/web2py/applications/Hadoop/controllers/default.py'
p2987
sg2963
(dp2988
sg2969
I213
sg2970
(dp2989
I202
S'#    echo $val;'
p2990
sI203
S'#    echo "---".$output[strlen($output)-1]."---"."---".$output[strlen($output)-2]."---"."---".$output[strlen($output)-3]."---"."<br/>";'
p2991
sI204
S'    if val=="0": #{//;//shell_exec("echo $?");'
p2992
sI205
S'        return dict(message = "Successfully Imported from RDBMS to HDFS",val=val,tkns=tkns,codegen1=codegen1,comm=comm);'
p2993
sI206
S'    else:'
p2994
sI207
S'        return dict(comm=comm,message = "Failed!",val = val,codegen1=codegen1);'
p2995
sI208
S''
sI209
S''
sI210
S''
sI211
S'#    return dict(posvars = request.post_vars);'
p2996
ssg2982
S'()'
p2997
sg2984
S'<module>'
p2998
sa(dp2999
g2961
S'/usr/lib/pymodules/python2.7/gluon/globals.py'
p3000
sg2963
(dp3001
S'self'
p3002
S'undefined'
p3003
sS'f'
S'<function action>'
p3004
ssg2969
I172
sg2970
(dp3005
I167
S'        self.meta = Storage()      # used by web2py_ajax.html'
p3006
sI168
S'        self.menu = []             # used by the default view layout'
p3007
sI169
S'        self.files = []            # used by web2py_ajax.html'
p3008
sI170
S'        self.generic_patterns = [] # patterns to allow generic views'
p3009
sI171
S'        self._vars = None'
p3010
sI172
S'        self._caller = lambda f: f()'
p3011
sI173
S'        self._view_environment = None'
p3012
sI174
S'        self._custom_commit = None'
p3013
sI175
S'        self._custom_rollback = None'
p3014
sI176
S''
ssg2982
S'(f=<function action>)'
p3015
sg2984
S'<lambda>'
p3016
sa(dp3017
g2961
S'/home/hduser/web2py/applications/Hadoop/controllers/default.py'
p3018
sg2963
(dp3019
S'posvars'
p3020
S'<Storage {}>'
p3021
sS'comm'
p3022
g3003
ssg2969
I101
sg2970
(dp3023
I96
S'#print aa;'
p3024
sI97
S'def action():'
p3025
sI98
S'    global codegen1;'
p3026
sI99
S'    posvars = request.post_vars;'
p3027
sI100
S'    a="/home/hduser/sqoop/bin/sqoop import --connect jdbc:mysql://localhost/hadoop --username root --password \'hadoop\' --table login; echo $?"'
p3028
sI101
S'    comm = "/home/hduser/sqoop/bin/sqoop "+posvars[\'op\'];'
p3029
sI102
S'    if posvars[\'op\'] == "export":'
p3030
sI103
S"        if 'directory' in posvars:   #isset($_POST['directory']))"
p3031
sI104
S"            sourcedir=posvars['directory']; #radio based input"
p3032
sI105
S'        if posvars[\'sourcedir\']!="":'
p3033
ssg2982
S'()'
p3034
sg2984
S'action'
p3035
sasS'pyver'
p3036
S'Python 2.7.3: /usr/bin/python'
p3037
sS'session'
p3038
g57
(g58
g59
NtRp3039
(dp3040
g62
(dp3041
sg64
(lp3042
g57
(g66
g59
NtRp3043
(dp3044
g62
(dp3045
g70
I5
ssg71
Nsg64
(lp3046
sbasbsS'etype'
p3047
S"<type 'exceptions.TypeError'>"
p3048
sS'date'
p3049
S'Tue Feb 25 15:04:01 2014'
p3050
sS'response'
p3051
g57
(g58
g59
NtRp3052
(dp3053
g62
(dp3054
sg64
(lp3055
g57
(g66
g59
NtRp3056
(dp3057
g62
(dp3058
g70
I5
ssg71
Nsg64
(lp3059
g57
(g73
g59
NtRp3060
(dp3061
g62
(dp3062
sg71
g3056
sg64
(lp3063
g57
(g78
g59
NtRp3064
(dp3065
g62
(dp3066
g82
g83
ssg71
g3060
sg64
(lp3067
g155
asbag57
(g78
g59
NtRp3068
(dp3069
g62
(dp3070
g89
g90
ssg71
g3060
sg64
(lp3071
S':'
asbag57
(g78
g59
NtRp3072
(dp3073
g62
(dp3074
sg71
g3060
sg64
(lp3075
g57
(g58
g59
NtRp3076
(dp3077
g62
(dp3078
g70
I5
ssg71
g3072
sg64
(lp3079
S'<cStringIO.StringO object at 0x2f98810>'
p3080
asbasbasbag57
(g73
g59
NtRp3081
(dp3082
g62
(dp3083
sg71
g3056
sg64
(lp3084
g57
(g78
g59
NtRp3085
(dp3086
g62
(dp3087
g82
g83
ssg71
g3081
sg64
(lp3088
g221
asbag57
(g78
g59
NtRp3089
(dp3090
g62
(dp3091
g89
g90
ssg71
g3081
sg64
(lp3092
S':'
asbag57
(g78
g59
NtRp3093
(dp3094
g62
(dp3095
sg71
g3081
sg64
(lp3096
g57
(g58
g59
NtRp3097
(dp3098
g62
(dp3099
g70
I5
ssg71
g3093
sg64
(lp3100
g57
(g66
g59
NtRp3101
(dp3102
g62
(dp3103
g70
I4
ssg71
Nsg64
(lp3104
g57
(g73
g59
NtRp3105
(dp3106
g62
(dp3107
sg71
g3101
sg64
(lp3108
g57
(g78
g59
NtRp3109
(dp3110
g62
(dp3111
g82
g83
ssg71
g3105
sg64
(lp3112
S'session_id_hadoop'
p3113
asbag57
(g78
g59
NtRp3114
(dp3115
g62
(dp3116
g89
g90
ssg71
g3105
sg64
(lp3117
S':'
asbag57
(g78
g59
NtRp3118
(dp3119
g62
(dp3120
sg71
g3105
sg64
(lp3121
g57
(g58
g59
NtRp3122
(dp3123
g62
(dp3124
g70
I4
ssg71
g3118
sg64
(lp3125
g57
(g66
g59
NtRp3126
(dp3127
g62
(dp3128
g70
I3
ssg71
Nsg64
(lp3129
g57
(g73
g59
NtRp3130
(dp3131
g62
(dp3132
sg71
g3126
sg64
(lp3133
g57
(g78
g59
NtRp3134
(dp3135
g62
(dp3136
g82
g83
ssg71
g3130
sg64
(lp3137
g271
asbag57
(g78
g59
NtRp3138
(dp3139
g62
(dp3140
g89
g90
ssg71
g3130
sg64
(lp3141
S':'
asbag57
(g78
g59
NtRp3142
(dp3143
g62
(dp3144
sg71
g3130
sg64
(lp3145
g57
(g58
g59
NtRp3146
(dp3147
g62
(dp3148
g70
I3
ssg71
g3142
sg64
(lp3149
S''
asbasbasbag57
(g73
g59
NtRp3150
(dp3151
g62
(dp3152
sg71
g3126
sg64
(lp3153
g57
(g78
g59
NtRp3154
(dp3155
g62
(dp3156
g82
g83
ssg71
g3150
sg64
(lp3157
g292
asbag57
(g78
g59
NtRp3158
(dp3159
g62
(dp3160
g89
g90
ssg71
g3150
sg64
(lp3161
S':'
asbag57
(g78
g59
NtRp3162
(dp3163
g62
(dp3164
sg71
g3150
sg64
(lp3165
g57
(g58
g59
NtRp3166
(dp3167
g62
(dp3168
g70
I3
ssg71
g3162
sg64
(lp3169
S''
asbasbasbag57
(g73
g59
NtRp3170
(dp3171
g62
(dp3172
sg71
g3126
sg64
(lp3173
g57
(g78
g59
NtRp3174
(dp3175
g62
(dp3176
g82
g83
ssg71
g3170
sg64
(lp3177
g313
asbag57
(g78
g59
NtRp3178
(dp3179
g62
(dp3180
g89
g90
ssg71
g3170
sg64
(lp3181
S':'
asbag57
(g78
g59
NtRp3182
(dp3183
g62
(dp3184
sg71
g3170
sg64
(lp3185
g57
(g58
g59
NtRp3186
(dp3187
g62
(dp3188
g70
I3
ssg71
g3182
sg64
(lp3189
S''
asbasbasbag57
(g73
g59
NtRp3190
(dp3191
g62
(dp3192
sg71
g3126
sg64
(lp3193
g57
(g78
g59
NtRp3194
(dp3195
g62
(dp3196
g82
g83
ssg71
g3190
sg64
(lp3197
g334
asbag57
(g78
g59
NtRp3198
(dp3199
g62
(dp3200
g89
g90
ssg71
g3190
sg64
(lp3201
S':'
asbag57
(g78
g59
NtRp3202
(dp3203
g62
(dp3204
sg71
g3190
sg64
(lp3205
g57
(g58
g59
NtRp3206
(dp3207
g62
(dp3208
g70
I3
ssg71
g3202
sg64
(lp3209
S''
asbasbasbag57
(g73
g59
NtRp3210
(dp3211
g62
(dp3212
sg71
g3126
sg64
(lp3213
g57
(g78
g59
NtRp3214
(dp3215
g62
(dp3216
g82
g83
ssg71
g3210
sg64
(lp3217
g355
asbag57
(g78
g59
NtRp3218
(dp3219
g62
(dp3220
g89
g90
ssg71
g3210
sg64
(lp3221
S':'
asbag57
(g78
g59
NtRp3222
(dp3223
g62
(dp3224
sg71
g3210
sg64
(lp3225
g57
(g58
g59
NtRp3226
(dp3227
g62
(dp3228
g70
I3
ssg71
g3222
sg64
(lp3229
S''
asbasbasbag57
(g73
g59
NtRp3230
(dp3231
g62
(dp3232
sg71
g3126
sg64
(lp3233
g57
(g78
g59
NtRp3234
(dp3235
g62
(dp3236
g82
g83
ssg71
g3230
sg64
(lp3237
g376
asbag57
(g78
g59
NtRp3238
(dp3239
g62
(dp3240
g89
g90
ssg71
g3230
sg64
(lp3241
S':'
asbag57
(g78
g59
NtRp3242
(dp3243
g62
(dp3244
sg71
g3230
sg64
(lp3245
g57
(g58
g59
NtRp3246
(dp3247
g62
(dp3248
g70
I3
ssg71
g3242
sg64
(lp3249
S'/'
asbasbasbag57
(g73
g59
NtRp3250
(dp3251
g62
(dp3252
sg71
g3126
sg64
(lp3253
g57
(g78
g59
NtRp3254
(dp3255
g62
(dp3256
g82
g83
ssg71
g3250
sg64
(lp3257
g397
asbag57
(g78
g59
NtRp3258
(dp3259
g62
(dp3260
g89
g90
ssg71
g3250
sg64
(lp3261
S':'
asbag57
(g78
g59
NtRp3262
(dp3263
g62
(dp3264
sg71
g3250
sg64
(lp3265
g57
(g58
g59
NtRp3266
(dp3267
g62
(dp3268
g70
I3
ssg71
g3262
sg64
(lp3269
S''
asbasbasbag57
(g73
g59
NtRp3270
(dp3271
g62
(dp3272
sg71
g3126
sg64
(lp3273
g57
(g78
g59
NtRp3274
(dp3275
g62
(dp3276
g82
g83
ssg71
g3270
sg64
(lp3277
g418
asbag57
(g78
g59
NtRp3278
(dp3279
g62
(dp3280
g89
g90
ssg71
g3270
sg64
(lp3281
S':'
asbag57
(g78
g59
NtRp3282
(dp3283
g62
(dp3284
sg71
g3270
sg64
(lp3285
g57
(g58
g59
NtRp3286
(dp3287
g62
(dp3288
g70
I3
ssg71
g3282
sg64
(lp3289
S''
asbasbasbasbasbasbasbasbasbasbasbag57
(g73
g59
NtRp3290
(dp3291
g62
(dp3292
sg71
g3056
sg64
(lp3293
g57
(g78
g59
NtRp3294
(dp3295
g62
(dp3296
g82
g83
ssg71
g3290
sg64
(lp3297
S'files'
p3298
asbag57
(g78
g59
NtRp3299
(dp3300
g62
(dp3301
g89
g90
ssg71
g3290
sg64
(lp3302
S':'
asbag57
(g78
g59
NtRp3303
(dp3304
g62
(dp3305
sg71
g3290
sg64
(lp3306
g57
(g58
g59
NtRp3307
(dp3308
g62
(dp3309
g70
I5
ssg71
g3303
sg64
(lp3310
g57
(g66
g59
NtRp3311
(dp3312
g62
(dp3313
g70
I4
ssg71
Nsg64
(lp3314
sbasbasbasbag57
(g73
g59
NtRp3315
(dp3316
g62
(dp3317
sg71
g3056
sg64
(lp3318
g57
(g78
g59
NtRp3319
(dp3320
g62
(dp3321
g82
g83
ssg71
g3315
sg64
(lp3322
S'flash'
p3323
asbag57
(g78
g59
NtRp3324
(dp3325
g62
(dp3326
g89
g90
ssg71
g3315
sg64
(lp3327
S':'
asbag57
(g78
g59
NtRp3328
(dp3329
g62
(dp3330
sg71
g3315
sg64
(lp3331
g57
(g58
g59
NtRp3332
(dp3333
g62
(dp3334
g70
I5
ssg71
g3328
sg64
(lp3335
S''
asbasbasbag57
(g73
g59
NtRp3336
(dp3337
g62
(dp3338
sg71
g3056
sg64
(lp3339
g57
(g78
g59
NtRp3340
(dp3341
g62
(dp3342
g82
g83
ssg71
g3336
sg64
(lp3343
S'generic_patterns'
p3344
asbag57
(g78
g59
NtRp3345
(dp3346
g62
(dp3347
g89
g90
ssg71
g3336
sg64
(lp3348
S':'
asbag57
(g78
g59
NtRp3349
(dp3350
g62
(dp3351
sg71
g3336
sg64
(lp3352
g57
(g58
g59
NtRp3353
(dp3354
g62
(dp3355
g70
I5
ssg71
g3349
sg64
(lp3356
g57
(g66
g59
NtRp3357
(dp3358
g62
(dp3359
g70
I4
ssg71
Nsg64
(lp3360
g57
(g73
g59
NtRp3361
(dp3362
g62
(dp3363
sg71
g3357
sg64
(lp3364
g57
(g78
g59
NtRp3365
(dp3366
g62
(dp3367
sg71
g3361
sg64
(lp3368
g57
(g58
g59
NtRp3369
(dp3370
g62
(dp3371
g70
I4
ssg71
g3365
sg64
(lp3372
S'*'
asbasbasbasbasbasbasbag57
(g73
g59
NtRp3373
(dp3374
g62
(dp3375
sg71
g3056
sg64
(lp3376
g57
(g78
g59
NtRp3377
(dp3378
g62
(dp3379
g82
g83
ssg71
g3373
sg64
(lp3380
S'headers'
p3381
asbag57
(g78
g59
NtRp3382
(dp3383
g62
(dp3384
g89
g90
ssg71
g3373
sg64
(lp3385
S':'
asbag57
(g78
g59
NtRp3386
(dp3387
g62
(dp3388
sg71
g3373
sg64
(lp3389
g57
(g58
g59
NtRp3390
(dp3391
g62
(dp3392
g70
I5
ssg71
g3386
sg64
(lp3393
g57
(g66
g59
NtRp3394
(dp3395
g62
(dp3396
g70
I4
ssg71
Nsg64
(lp3397
g57
(g73
g59
NtRp3398
(dp3399
g62
(dp3400
sg71
g3394
sg64
(lp3401
g57
(g78
g59
NtRp3402
(dp3403
g62
(dp3404
g82
g83
ssg71
g3398
sg64
(lp3405
S'Cache-Control'
p3406
asbag57
(g78
g59
NtRp3407
(dp3408
g62
(dp3409
g89
g90
ssg71
g3398
sg64
(lp3410
S':'
asbag57
(g78
g59
NtRp3411
(dp3412
g62
(dp3413
sg71
g3398
sg64
(lp3414
g57
(g58
g59
NtRp3415
(dp3416
g62
(dp3417
g70
I4
ssg71
g3411
sg64
(lp3418
S'no-store, no-cache, must-revalidate, post-check=0, pre-check=0'
p3419
asbasbasbag57
(g73
g59
NtRp3420
(dp3421
g62
(dp3422
sg71
g3394
sg64
(lp3423
g57
(g78
g59
NtRp3424
(dp3425
g62
(dp3426
g82
g83
ssg71
g3420
sg64
(lp3427
S'Content-Type'
p3428
asbag57
(g78
g59
NtRp3429
(dp3430
g62
(dp3431
g89
g90
ssg71
g3420
sg64
(lp3432
S':'
asbag57
(g78
g59
NtRp3433
(dp3434
g62
(dp3435
sg71
g3420
sg64
(lp3436
g57
(g58
g59
NtRp3437
(dp3438
g62
(dp3439
g70
I4
ssg71
g3433
sg64
(lp3440
S'text/html; charset=utf-8'
p3441
asbasbasbag57
(g73
g59
NtRp3442
(dp3443
g62
(dp3444
sg71
g3394
sg64
(lp3445
g57
(g78
g59
NtRp3446
(dp3447
g62
(dp3448
g82
g83
ssg71
g3442
sg64
(lp3449
S'Expires'
p3450
asbag57
(g78
g59
NtRp3451
(dp3452
g62
(dp3453
g89
g90
ssg71
g3442
sg64
(lp3454
S':'
asbag57
(g78
g59
NtRp3455
(dp3456
g62
(dp3457
sg71
g3442
sg64
(lp3458
g57
(g58
g59
NtRp3459
(dp3460
g62
(dp3461
g70
I4
ssg71
g3455
sg64
(lp3462
S'Tue, 25 Feb 2014 09:34:01 GMT'
p3463
asbasbasbag57
(g73
g59
NtRp3464
(dp3465
g62
(dp3466
sg71
g3394
sg64
(lp3467
g57
(g78
g59
NtRp3468
(dp3469
g62
(dp3470
g82
g83
ssg71
g3464
sg64
(lp3471
S'Pragma'
p3472
asbag57
(g78
g59
NtRp3473
(dp3474
g62
(dp3475
g89
g90
ssg71
g3464
sg64
(lp3476
S':'
asbag57
(g78
g59
NtRp3477
(dp3478
g62
(dp3479
sg71
g3464
sg64
(lp3480
g57
(g58
g59
NtRp3481
(dp3482
g62
(dp3483
g70
I4
ssg71
g3477
sg64
(lp3484
S'no-cache'
p3485
asbasbasbag57
(g73
g59
NtRp3486
(dp3487
g62
(dp3488
sg71
g3394
sg64
(lp3489
g57
(g78
g59
NtRp3490
(dp3491
g62
(dp3492
g82
g83
ssg71
g3486
sg64
(lp3493
S'X-Powered-By'
p3494
asbag57
(g78
g59
NtRp3495
(dp3496
g62
(dp3497
g89
g90
ssg71
g3486
sg64
(lp3498
S':'
asbag57
(g78
g59
NtRp3499
(dp3500
g62
(dp3501
sg71
g3486
sg64
(lp3502
g57
(g58
g59
NtRp3503
(dp3504
g62
(dp3505
g70
I4
ssg71
g3499
sg64
(lp3506
S'web2py'
p3507
asbasbasbasbasbasbasbag57
(g73
g59
NtRp3508
(dp3509
g62
(dp3510
sg71
g3056
sg64
(lp3511
g57
(g78
g59
NtRp3512
(dp3513
g62
(dp3514
g82
g83
ssg71
g3508
sg64
(lp3515
S'menu'
p3516
asbag57
(g78
g59
NtRp3517
(dp3518
g62
(dp3519
g89
g90
ssg71
g3508
sg64
(lp3520
S':'
asbag57
(g78
g59
NtRp3521
(dp3522
g62
(dp3523
sg71
g3508
sg64
(lp3524
g57
(g58
g59
NtRp3525
(dp3526
g62
(dp3527
g70
I5
ssg71
g3521
sg64
(lp3528
g57
(g66
g59
NtRp3529
(dp3530
g62
(dp3531
g70
I4
ssg71
Nsg64
(lp3532
g57
(g73
g59
NtRp3533
(dp3534
g62
(dp3535
sg71
g3529
sg64
(lp3536
g57
(g78
g59
NtRp3537
(dp3538
g62
(dp3539
sg71
g3533
sg64
(lp3540
g57
(g58
g59
NtRp3541
(dp3542
g62
(dp3543
g70
I4
ssg71
g3537
sg64
(lp3544
g57
(g66
g59
NtRp3545
(dp3546
g62
(dp3547
g70
I3
ssg71
Nsg64
(lp3548
g57
(g73
g59
NtRp3549
(dp3550
g62
(dp3551
sg71
g3545
sg64
(lp3552
g57
(g78
g59
NtRp3553
(dp3554
g62
(dp3555
sg71
g3549
sg64
(lp3556
g57
(g58
g59
NtRp3557
(dp3558
g62
(dp3559
g70
I3
ssg71
g3553
sg64
(lp3560
cgluon.languages
lazyT_unpickle
p3561
(S't\x04\x00\x00\x00Home'
tRp3562
asbasbasbag57
(g73
g59
NtRp3563
(dp3564
g62
(dp3565
sg71
g3545
sg64
(lp3566
g57
(g78
g59
NtRp3567
(dp3568
g62
(dp3569
sg71
g3563
sg64
(lp3570
g57
(g58
g59
NtRp3571
(dp3572
g62
(dp3573
g70
I3
ssg71
g3567
sg64
(lp3574
g100
asbasbasbag57
(g73
g59
NtRp3575
(dp3576
g62
(dp3577
sg71
g3545
sg64
(lp3578
g57
(g78
g59
NtRp3579
(dp3580
g62
(dp3581
sg71
g3575
sg64
(lp3582
g57
(g58
g59
NtRp3583
(dp3584
g62
(dp3585
g70
I3
ssg71
g3579
sg64
(lp3586
S'/Hadoop/default/index'
p3587
asbasbasbag57
(g73
g59
NtRp3588
(dp3589
g62
(dp3590
sg71
g3545
sg64
(lp3591
g57
(g78
g59
NtRp3592
(dp3593
g62
(dp3594
sg71
g3588
sg64
(lp3595
g57
(g58
g59
NtRp3596
(dp3597
g62
(dp3598
g70
I3
ssg71
g3592
sg64
(lp3599
g57
(g66
g59
NtRp3600
(dp3601
g62
(dp3602
g70
I2
ssg71
Nsg64
(lp3603
sbasbasbasbasbasbasbasbag57
(g73
g59
NtRp3604
(dp3605
g62
(dp3606
sg71
g3529
sg64
(lp3607
g57
(g78
g59
NtRp3608
(dp3609
g62
(dp3610
sg71
g3604
sg64
(lp3611
g57
(g58
g59
NtRp3612
(dp3613
g62
(dp3614
g70
I4
ssg71
g3608
sg64
(lp3615
g57
(g66
g59
NtRp3616
(dp3617
g62
(dp3618
g70
I3
ssg71
Nsg64
(lp3619
g57
(g73
g59
NtRp3620
(dp3621
g62
(dp3622
sg71
g3616
sg64
(lp3623
g57
(g78
g59
NtRp3624
(dp3625
g62
(dp3626
sg71
g3620
sg64
(lp3627
g57
(g58
g59
NtRp3628
(dp3629
g62
(dp3630
g70
I3
ssg71
g3624
sg64
(lp3631
g57
(cgluon.html
SPAN
p3632
g59
NtRp3633
(dp3634
g62
(dp3635
g82
S'color:yellow'
p3636
ssg71
Nsg64
(lp3637
g3507
asbasbasbasbag57
(g73
g59
NtRp3638
(dp3639
g62
(dp3640
sg71
g3616
sg64
(lp3641
g57
(g78
g59
NtRp3642
(dp3643
g62
(dp3644
sg71
g3638
sg64
(lp3645
g57
(g58
g59
NtRp3646
(dp3647
g62
(dp3648
g70
I3
ssg71
g3642
sg64
(lp3649
g100
asbasbasbag57
(g73
g59
NtRp3650
(dp3651
g62
(dp3652
sg71
g3616
sg64
(lp3653
g57
(g78
g59
NtRp3654
(dp3655
g62
(dp3656
sg71
g3650
sg64
(lp3657
g57
(g58
g59
NtRp3658
(dp3659
g62
(dp3660
g70
I3
ssg71
g3654
sg64
(lp3661
S'None'
p3662
asbasbasbag57
(g73
g59
NtRp3663
(dp3664
g62
(dp3665
sg71
g3616
sg64
(lp3666
g57
(g78
g59
NtRp3667
(dp3668
g62
(dp3669
sg71
g3663
sg64
(lp3670
g57
(g58
g59
NtRp3671
(dp3672
g62
(dp3673
g70
I3
ssg71
g3667
sg64
(lp3674
g57
(g66
g59
NtRp3675
(dp3676
g62
(dp3677
g70
I2
ssg71
Nsg64
(lp3678
g57
(g73
g59
NtRp3679
(dp3680
g62
(dp3681
sg71
g3675
sg64
(lp3682
g57
(g78
g59
NtRp3683
(dp3684
g62
(dp3685
sg71
g3679
sg64
(lp3686
g57
(g58
g59
NtRp3687
(dp3688
g62
(dp3689
g70
I2
ssg71
g3683
sg64
(lp3690
g57
(g66
g59
NtRp3691
(dp3692
g62
(dp3693
g70
I1
ssg71
Nsg64
(lp3694
g57
(g73
g59
NtRp3695
(dp3696
g62
(dp3697
sg71
g3691
sg64
(lp3698
g57
(g78
g59
NtRp3699
(dp3700
g62
(dp3701
sg71
g3695
sg64
(lp3702
g57
(g58
g59
NtRp3703
(dp3704
g62
(dp3705
g70
I1
ssg71
g3699
sg64
(lp3706
g3561
(S's\x08\x00\x00\x00My Sites'
tRp3707
asbasbasbag57
(g73
g59
NtRp3708
(dp3709
g62
(dp3710
sg71
g3691
sg64
(lp3711
g57
(g78
g59
NtRp3712
(dp3713
g62
(dp3714
sg71
g3708
sg64
(lp3715
g57
(g58
g59
NtRp3716
(dp3717
g62
(dp3718
g70
I1
ssg71
g3712
sg64
(lp3719
I00
asbasbasbag57
(g73
g59
NtRp3720
(dp3721
g62
(dp3722
sg71
g3691
sg64
(lp3723
g57
(g78
g59
NtRp3724
(dp3725
g62
(dp3726
sg71
g3720
sg64
(lp3727
g57
(g58
g59
NtRp3728
(dp3729
g62
(dp3730
g70
I1
ssg71
g3724
sg64
(lp3731
S'/admin/default/site'
p3732
asbasbasbasbasbasbasbag57
(g73
g59
NtRp3733
(dp3734
g62
(dp3735
sg71
g3675
sg64
(lp3736
g57
(g78
g59
NtRp3737
(dp3738
g62
(dp3739
sg71
g3733
sg64
(lp3740
g57
(g58
g59
NtRp3741
(dp3742
g62
(dp3743
g70
I2
ssg71
g3737
sg64
(lp3744
g57
(g66
g59
NtRp3745
(dp3746
g62
(dp3747
g70
I1
ssg71
Nsg64
(lp3748
g57
(g73
g59
NtRp3749
(dp3750
g62
(dp3751
sg71
g3745
sg64
(lp3752
g57
(g78
g59
NtRp3753
(dp3754
g62
(dp3755
sg71
g3749
sg64
(lp3756
g57
(g58
g59
NtRp3757
(dp3758
g62
(dp3759
g70
I1
ssg71
g3753
sg64
(lp3760
g3561
(S's\x08\x00\x00\x00This App'
tRp3761
asbasbasbag57
(g73
g59
NtRp3762
(dp3763
g62
(dp3764
sg71
g3745
sg64
(lp3765
g57
(g78
g59
NtRp3766
(dp3767
g62
(dp3768
sg71
g3762
sg64
(lp3769
g57
(g58
g59
NtRp3770
(dp3771
g62
(dp3772
g70
I1
ssg71
g3766
sg64
(lp3773
I00
asbasbasbag57
(g73
g59
NtRp3774
(dp3775
g62
(dp3776
sg71
g3745
sg64
(lp3777
g57
(g78
g59
NtRp3778
(dp3779
g62
(dp3780
sg71
g3774
sg64
(lp3781
g57
(g58
g59
NtRp3782
(dp3783
g62
(dp3784
g70
I1
ssg71
g3778
sg64
(lp3785
S'/admin/default/design/Hadoop'
p3786
asbasbasbag57
(g73
g59
NtRp3787
(dp3788
g62
(dp3789
sg71
g3745
sg64
(lp3790
g57
(g78
g59
NtRp3791
(dp3792
g62
(dp3793
sg71
g3787
sg64
(lp3794
g57
(g58
g59
NtRp3795
(dp3796
g62
(dp3797
g70
I1
ssg71
g3791
sg64
(lp3798
(lp3799
(g3561
(S't\n\x00\x00\x00Controller'
tRp3800
I00
S'/admin/default/edit/Hadoop/controllers/default.py'
tp3801
a(g3561
(S't\x04\x00\x00\x00View'
tRp3802
I00
S'/admin/default/edit/Hadoop/views/default/action.html'
tp3803
a(g3561
(S't\x06\x00\x00\x00Layout'
tRp3804
I00
S'/admin/default/edit/Hadoop/views/layout.html'
tp3805
a(g3561
(S't\n\x00\x00\x00Stylesheet'
tRp3806
I00
S'/admin/default/edit/Hadoop/static/css/web2py.css'
tp3807
a(g3561
(S's\x08\x00\x00\x00DB Model'
tRp3808
I00
S'/admin/default/edit/Hadoop/models/db.py'
tp3809
a(g3561
(S's\n\x00\x00\x00Menu Model'
tRp3810
I00
S'/admin/default/edit/Hadoop/models/menu.py'
tp3811
a(g3561
(S't\x08\x00\x00\x00Database'
tRp3812
I00
S'/Hadoop/appadmin/index'
tp3813
a(g3561
(S't\x06\x00\x00\x00Errors'
tRp3814
I00
S'/admin/default/errors/Hadoop'
tp3815
a(g3561
(S't\x05\x00\x00\x00About'
tRp3816
I00
S'/admin/default/about/Hadoop'
tp3817
aasbasbasbasbasbasbasbag57
(g73
g59
NtRp3818
(dp3819
g62
(dp3820
sg71
g3675
sg64
(lp3821
g57
(g78
g59
NtRp3822
(dp3823
g62
(dp3824
sg71
g3818
sg64
(lp3825
g57
(g58
g59
NtRp3826
(dp3827
g62
(dp3828
g70
I2
ssg71
g3822
sg64
(lp3829
g57
(g66
g59
NtRp3830
(dp3831
g62
(dp3832
g70
I1
ssg71
Nsg64
(lp3833
g57
(g73
g59
NtRp3834
(dp3835
g62
(dp3836
sg71
g3830
sg64
(lp3837
g57
(g78
g59
NtRp3838
(dp3839
g62
(dp3840
sg71
g3834
sg64
(lp3841
g57
(g58
g59
NtRp3842
(dp3843
g62
(dp3844
g70
I1
ssg71
g3838
sg64
(lp3845
S'web2py.com'
p3846
asbasbasbag57
(g73
g59
NtRp3847
(dp3848
g62
(dp3849
sg71
g3830
sg64
(lp3850
g57
(g78
g59
NtRp3851
(dp3852
g62
(dp3853
sg71
g3847
sg64
(lp3854
g57
(g58
g59
NtRp3855
(dp3856
g62
(dp3857
g70
I1
ssg71
g3851
sg64
(lp3858
I00
asbasbasbag57
(g73
g59
NtRp3859
(dp3860
g62
(dp3861
sg71
g3830
sg64
(lp3862
g57
(g78
g59
NtRp3863
(dp3864
g62
(dp3865
sg71
g3859
sg64
(lp3866
g57
(g58
g59
NtRp3867
(dp3868
g62
(dp3869
g70
I1
ssg71
g3863
sg64
(lp3870
S'http://www.web2py.com'
p3871
asbasbasbag57
(g73
g59
NtRp3872
(dp3873
g62
(dp3874
sg71
g3830
sg64
(lp3875
g57
(g78
g59
NtRp3876
(dp3877
g62
(dp3878
sg71
g3872
sg64
(lp3879
g57
(g58
g59
NtRp3880
(dp3881
g62
(dp3882
g70
I1
ssg71
g3876
sg64
(lp3883
(lp3884
(g3561
(S't\x08\x00\x00\x00Download'
tRp3885
I00
S'http://www.web2py.com/examples/default/download'
p3886
tp3887
a(g3561
(S't\x07\x00\x00\x00Support'
tRp3888
I00
S'http://www.web2py.com/examples/default/support'
p3889
tp3890
a(g3561
(S't\x04\x00\x00\x00Demo'
tRp3891
I00
S'http://web2py.com/demo_admin'
p3892
tp3893
a(g3561
(S's\x0e\x00\x00\x00Quick Examples'
tRp3894
I00
S'http://web2py.com/examples/default/examples'
p3895
tp3896
a(g3561
(S't\x03\x00\x00\x00FAQ'
tRp3897
I00
S'http://web2py.com/AlterEgo'
p3898
tp3899
a(g3561
(S't\x06\x00\x00\x00Videos'
tRp3900
I00
S'http://www.web2py.com/examples/default/videos/'
p3901
tp3902
a(g3561
(S's\x11\x00\x00\x00Free Applications'
tRp3903
I00
S'http://web2py.com/appliances'
p3904
tp3905
a(g3561
(S't\x07\x00\x00\x00Plugins'
tRp3906
I00
S'http://web2py.com/plugins'
p3907
tp3908
a(g3561
(S't\x07\x00\x00\x00Layouts'
tRp3909
I00
S'http://web2py.com/layouts'
p3910
tp3911
a(g3561
(S't\x07\x00\x00\x00Recipes'
tRp3912
I00
S'http://web2pyslices.com/'
p3913
tp3914
a(g3561
(S't\x08\x00\x00\x00Semantic'
tRp3915
I00
S'http://web2py.com/semantic'
p3916
tp3917
aasbasbasbasbasbasbasbag57
(g73
g59
NtRp3918
(dp3919
g62
(dp3920
sg71
g3675
sg64
(lp3921
g57
(g78
g59
NtRp3922
(dp3923
g62
(dp3924
sg71
g3918
sg64
(lp3925
g57
(g58
g59
NtRp3926
(dp3927
g62
(dp3928
g70
I2
ssg71
g3922
sg64
(lp3929
g57
(g66
g59
NtRp3930
(dp3931
g62
(dp3932
g70
I1
ssg71
Nsg64
(lp3933
g57
(g73
g59
NtRp3934
(dp3935
g62
(dp3936
sg71
g3930
sg64
(lp3937
g57
(g78
g59
NtRp3938
(dp3939
g62
(dp3940
sg71
g3934
sg64
(lp3941
g57
(g58
g59
NtRp3942
(dp3943
g62
(dp3944
g70
I1
ssg71
g3938
sg64
(lp3945
g3561
(S't\r\x00\x00\x00Documentation'
tRp3946
asbasbasbag57
(g73
g59
NtRp3947
(dp3948
g62
(dp3949
sg71
g3930
sg64
(lp3950
g57
(g78
g59
NtRp3951
(dp3952
g62
(dp3953
sg71
g3947
sg64
(lp3954
g57
(g58
g59
NtRp3955
(dp3956
g62
(dp3957
g70
I1
ssg71
g3951
sg64
(lp3958
I00
asbasbasbag57
(g73
g59
NtRp3959
(dp3960
g62
(dp3961
sg71
g3930
sg64
(lp3962
g57
(g78
g59
NtRp3963
(dp3964
g62
(dp3965
sg71
g3959
sg64
(lp3966
g57
(g58
g59
NtRp3967
(dp3968
g62
(dp3969
g70
I1
ssg71
g3963
sg64
(lp3970
S'http://www.web2py.com/book'
p3971
asbasbasbag57
(g73
g59
NtRp3972
(dp3973
g62
(dp3974
sg71
g3930
sg64
(lp3975
g57
(g78
g59
NtRp3976
(dp3977
g62
(dp3978
sg71
g3972
sg64
(lp3979
g57
(g58
g59
NtRp3980
(dp3981
g62
(dp3982
g70
I1
ssg71
g3976
sg64
(lp3983
(lp3984
(g3561
(S't\x07\x00\x00\x00Preface'
tRp3985
I00
S'http://www.web2py.com/book/default/chapter/00'
p3986
tp3987
a(g3561
(S't\x0c\x00\x00\x00Introduction'
tRp3988
I00
S'http://www.web2py.com/book/default/chapter/01'
p3989
tp3990
a(g3561
(S't\x06\x00\x00\x00Python'
tRp3991
I00
S'http://www.web2py.com/book/default/chapter/02'
p3992
tp3993
a(g3561
(S't\x08\x00\x00\x00Overview'
tRp3994
I00
S'http://www.web2py.com/book/default/chapter/03'
p3995
tp3996
a(g3561
(S's\x08\x00\x00\x00The Core'
tRp3997
I00
S'http://www.web2py.com/book/default/chapter/04'
p3998
tp3999
a(g3561
(S's\t\x00\x00\x00The Views'
tRp4000
I00
S'http://www.web2py.com/book/default/chapter/05'
p4001
tp4002
a(g3561
(S't\x08\x00\x00\x00Database'
tRp4003
I00
S'http://www.web2py.com/book/default/chapter/06'
p4004
tp4005
a(g3561
(S's\x14\x00\x00\x00Forms and Validators'
tRp4006
I00
S'http://www.web2py.com/book/default/chapter/07'
p4007
tp4008
a(g3561
(S's\r\x00\x00\x00Email and SMS'
tRp4009
I00
S'http://www.web2py.com/book/default/chapter/08'
p4010
tp4011
a(g3561
(S's\x0e\x00\x00\x00Access Control'
tRp4012
I00
S'http://www.web2py.com/book/default/chapter/09'
p4013
tp4014
a(g3561
(S't\x08\x00\x00\x00Services'
tRp4015
I00
S'http://www.web2py.com/book/default/chapter/10'
p4016
tp4017
a(g3561
(S's\x0c\x00\x00\x00Ajax Recipes'
tRp4018
I00
S'http://www.web2py.com/book/default/chapter/11'
p4019
tp4020
a(g3561
(S's\x16\x00\x00\x00Components and Plugins'
tRp4021
I00
S'http://www.web2py.com/book/default/chapter/12'
p4022
tp4023
a(g3561
(S's\x12\x00\x00\x00Deployment Recipes'
tRp4024
I00
S'http://www.web2py.com/book/default/chapter/13'
p4025
tp4026
a(g3561
(S's\r\x00\x00\x00Other Recipes'
tRp4027
I00
S'http://www.web2py.com/book/default/chapter/14'
p4028
tp4029
a(g3561
(S's\r\x00\x00\x00Buy this book'
tRp4030
I00
S'http://stores.lulu.com/web2py'
p4031
tp4032
aasbasbasbasbasbasbasbag57
(g73
g59
NtRp4033
(dp4034
g62
(dp4035
sg71
g3675
sg64
(lp4036
g57
(g78
g59
NtRp4037
(dp4038
g62
(dp4039
sg71
g4033
sg64
(lp4040
g57
(g58
g59
NtRp4041
(dp4042
g62
(dp4043
g70
I2
ssg71
g4037
sg64
(lp4044
g57
(g66
g59
NtRp4045
(dp4046
g62
(dp4047
g70
I1
ssg71
Nsg64
(lp4048
g57
(g73
g59
NtRp4049
(dp4050
g62
(dp4051
sg71
g4045
sg64
(lp4052
g57
(g78
g59
NtRp4053
(dp4054
g62
(dp4055
sg71
g4049
sg64
(lp4056
g57
(g58
g59
NtRp4057
(dp4058
g62
(dp4059
g70
I1
ssg71
g4053
sg64
(lp4060
g3561
(S't\t\x00\x00\x00Community'
tRp4061
asbasbasbag57
(g73
g59
NtRp4062
(dp4063
g62
(dp4064
sg71
g4045
sg64
(lp4065
g57
(g78
g59
NtRp4066
(dp4067
g62
(dp4068
sg71
g4062
sg64
(lp4069
g57
(g58
g59
NtRp4070
(dp4071
g62
(dp4072
g70
I1
ssg71
g4066
sg64
(lp4073
I00
asbasbasbag57
(g73
g59
NtRp4074
(dp4075
g62
(dp4076
sg71
g4045
sg64
(lp4077
g57
(g78
g59
NtRp4078
(dp4079
g62
(dp4080
sg71
g4074
sg64
(lp4081
g57
(g58
g59
NtRp4082
(dp4083
g62
(dp4084
g70
I1
ssg71
g4078
sg64
(lp4085
Nasbasbasbag57
(g73
g59
NtRp4086
(dp4087
g62
(dp4088
sg71
g4045
sg64
(lp4089
g57
(g78
g59
NtRp4090
(dp4091
g62
(dp4092
sg71
g4086
sg64
(lp4093
g57
(g58
g59
NtRp4094
(dp4095
g62
(dp4096
g70
I1
ssg71
g4090
sg64
(lp4097
(lp4098
(g3561
(S't\x06\x00\x00\x00Groups'
tRp4099
I00
S'http://www.web2py.com/examples/default/usergroups'
p4100
tp4101
a(g3561
(S't\x07\x00\x00\x00Twitter'
tRp4102
I00
S'http://twitter.com/web2py'
p4103
tp4104
a(g3561
(S's\t\x00\x00\x00Live Chat'
tRp4105
I00
S'http://webchat.freenode.net/?channels=web2py'
p4106
tp4107
aasbasbasbasbasbasbasbag57
(g73
g59
NtRp4108
(dp4109
g62
(dp4110
sg71
g3675
sg64
(lp4111
g57
(g78
g59
NtRp4112
(dp4113
g62
(dp4114
sg71
g4108
sg64
(lp4115
g57
(g58
g59
NtRp4116
(dp4117
g62
(dp4118
g70
I2
ssg71
g4112
sg64
(lp4119
g57
(g66
g59
NtRp4120
(dp4121
g62
(dp4122
g70
I1
ssg71
Nsg64
(lp4123
g57
(g73
g59
NtRp4124
(dp4125
g62
(dp4126
sg71
g4120
sg64
(lp4127
g57
(g78
g59
NtRp4128
(dp4129
g62
(dp4130
sg71
g4124
sg64
(lp4131
g57
(g58
g59
NtRp4132
(dp4133
g62
(dp4134
g70
I1
ssg71
g4128
sg64
(lp4135
g3561
(S't\x07\x00\x00\x00Plugins'
tRp4136
asbasbasbag57
(g73
g59
NtRp4137
(dp4138
g62
(dp4139
sg71
g4120
sg64
(lp4140
g57
(g78
g59
NtRp4141
(dp4142
g62
(dp4143
sg71
g4137
sg64
(lp4144
g57
(g58
g59
NtRp4145
(dp4146
g62
(dp4147
g70
I1
ssg71
g4141
sg64
(lp4148
I00
asbasbasbag57
(g73
g59
NtRp4149
(dp4150
g62
(dp4151
sg71
g4120
sg64
(lp4152
g57
(g78
g59
NtRp4153
(dp4154
g62
(dp4155
sg71
g4149
sg64
(lp4156
g57
(g58
g59
NtRp4157
(dp4158
g62
(dp4159
g70
I1
ssg71
g4153
sg64
(lp4160
Nasbasbasbag57
(g73
g59
NtRp4161
(dp4162
g62
(dp4163
sg71
g4120
sg64
(lp4164
g57
(g78
g59
NtRp4165
(dp4166
g62
(dp4167
sg71
g4161
sg64
(lp4168
g57
(g58
g59
NtRp4169
(dp4170
g62
(dp4171
g70
I1
ssg71
g4165
sg64
(lp4172
(lp4173
(S'plugin_wiki'
p4174
I00
S'http://web2py.com/examples/default/download'
p4175
tp4176
a(g3561
(S's\r\x00\x00\x00Other Plugins'
tRp4177
I00
g3907
tp4178
a(g3561
(S's\x0e\x00\x00\x00Layout Plugins'
tRp4179
I00
g3910
tp4180
aasbasbasbasbasbasbasbasbasbasbasbasbasbasbasbasbasbasbasbag57
(g73
g59
NtRp4181
(dp4182
g62
(dp4183
sg71
g3056
sg64
(lp4184
g57
(g78
g59
NtRp4185
(dp4186
g62
(dp4187
g82
g83
ssg71
g4181
sg64
(lp4188
S'meta'
p4189
asbag57
(g78
g59
NtRp4190
(dp4191
g62
(dp4192
g89
g90
ssg71
g4181
sg64
(lp4193
S':'
asbag57
(g78
g59
NtRp4194
(dp4195
g62
(dp4196
sg71
g4181
sg64
(lp4197
g57
(g58
g59
NtRp4198
(dp4199
g62
(dp4200
g70
I5
ssg71
g4194
sg64
(lp4201
g57
(g66
g59
NtRp4202
(dp4203
g62
(dp4204
g70
I4
ssg71
Nsg64
(lp4205
g57
(g73
g59
NtRp4206
(dp4207
g62
(dp4208
sg71
g4202
sg64
(lp4209
g57
(g78
g59
NtRp4210
(dp4211
g62
(dp4212
g82
g83
ssg71
g4206
sg64
(lp4213
S'author'
p4214
asbag57
(g78
g59
NtRp4215
(dp4216
g62
(dp4217
g89
g90
ssg71
g4206
sg64
(lp4218
S':'
asbag57
(g78
g59
NtRp4219
(dp4220
g62
(dp4221
sg71
g4206
sg64
(lp4222
g57
(g58
g59
NtRp4223
(dp4224
g62
(dp4225
g70
I4
ssg71
g4219
sg64
(lp4226
S'Your Name <you@example.com>'
p4227
asbasbasbag57
(g73
g59
NtRp4228
(dp4229
g62
(dp4230
sg71
g4202
sg64
(lp4231
g57
(g78
g59
NtRp4232
(dp4233
g62
(dp4234
g82
g83
ssg71
g4228
sg64
(lp4235
S'copyright'
p4236
asbag57
(g78
g59
NtRp4237
(dp4238
g62
(dp4239
g89
g90
ssg71
g4228
sg64
(lp4240
S':'
asbag57
(g78
g59
NtRp4241
(dp4242
g62
(dp4243
sg71
g4228
sg64
(lp4244
g57
(g58
g59
NtRp4245
(dp4246
g62
(dp4247
g70
I4
ssg71
g4241
sg64
(lp4248
S'Copyright 2011'
p4249
asbasbasbag57
(g73
g59
NtRp4250
(dp4251
g62
(dp4252
sg71
g4202
sg64
(lp4253
g57
(g78
g59
NtRp4254
(dp4255
g62
(dp4256
g82
g83
ssg71
g4250
sg64
(lp4257
S'description'
p4258
asbag57
(g78
g59
NtRp4259
(dp4260
g62
(dp4261
g89
g90
ssg71
g4250
sg64
(lp4262
S':'
asbag57
(g78
g59
NtRp4263
(dp4264
g62
(dp4265
sg71
g4250
sg64
(lp4266
g57
(g58
g59
NtRp4267
(dp4268
g62
(dp4269
g70
I4
ssg71
g4263
sg64
(lp4270
S'a cool new app'
p4271
asbasbasbag57
(g73
g59
NtRp4272
(dp4273
g62
(dp4274
sg71
g4202
sg64
(lp4275
g57
(g78
g59
NtRp4276
(dp4277
g62
(dp4278
g82
g83
ssg71
g4272
sg64
(lp4279
S'generator'
p4280
asbag57
(g78
g59
NtRp4281
(dp4282
g62
(dp4283
g89
g90
ssg71
g4272
sg64
(lp4284
S':'
asbag57
(g78
g59
NtRp4285
(dp4286
g62
(dp4287
sg71
g4272
sg64
(lp4288
g57
(g58
g59
NtRp4289
(dp4290
g62
(dp4291
g70
I4
ssg71
g4285
sg64
(lp4292
S'Web2py Web Framework'
p4293
asbasbasbag57
(g73
g59
NtRp4294
(dp4295
g62
(dp4296
sg71
g4202
sg64
(lp4297
g57
(g78
g59
NtRp4298
(dp4299
g62
(dp4300
g82
g83
ssg71
g4294
sg64
(lp4301
S'keywords'
p4302
asbag57
(g78
g59
NtRp4303
(dp4304
g62
(dp4305
g89
g90
ssg71
g4294
sg64
(lp4306
S':'
asbag57
(g78
g59
NtRp4307
(dp4308
g62
(dp4309
sg71
g4294
sg64
(lp4310
g57
(g58
g59
NtRp4311
(dp4312
g62
(dp4313
g70
I4
ssg71
g4307
sg64
(lp4314
S'web2py, python, framework'
p4315
asbasbasbasbasbasbasbag57
(g73
g59
NtRp4316
(dp4317
g62
(dp4318
sg71
g3056
sg64
(lp4319
g57
(g78
g59
NtRp4320
(dp4321
g62
(dp4322
g82
g83
ssg71
g4316
sg64
(lp4323
S'postprocessing'
p4324
asbag57
(g78
g59
NtRp4325
(dp4326
g62
(dp4327
g89
g90
ssg71
g4316
sg64
(lp4328
S':'
asbag57
(g78
g59
NtRp4329
(dp4330
g62
(dp4331
sg71
g4316
sg64
(lp4332
g57
(g58
g59
NtRp4333
(dp4334
g62
(dp4335
g70
I5
ssg71
g4329
sg64
(lp4336
g57
(g66
g59
NtRp4337
(dp4338
g62
(dp4339
g70
I4
ssg71
Nsg64
(lp4340
sbasbasbasbag57
(g73
g59
NtRp4341
(dp4342
g62
(dp4343
sg71
g3056
sg64
(lp4344
g57
(g78
g59
NtRp4345
(dp4346
g62
(dp4347
g82
g83
ssg71
g4341
sg64
(lp4348
S'session_filename'
p4349
asbag57
(g78
g59
NtRp4350
(dp4351
g62
(dp4352
g89
g90
ssg71
g4341
sg64
(lp4353
S':'
asbag57
(g78
g59
NtRp4354
(dp4355
g62
(dp4356
sg71
g4341
sg64
(lp4357
g57
(g58
g59
NtRp4358
(dp4359
g62
(dp4360
g70
I5
ssg71
g4354
sg64
(lp4361
S'/home/hduser/web2py/applications/Hadoop/sessions/127.0.0.1-4dc6489d-75f4-4b32-a7d4-10af823ffaa7'
p4362
asbasbasbag57
(g73
g59
NtRp4363
(dp4364
g62
(dp4365
sg71
g3056
sg64
(lp4366
g57
(g78
g59
NtRp4367
(dp4368
g62
(dp4369
g82
g83
ssg71
g4363
sg64
(lp4370
S'session_id'
p4371
asbag57
(g78
g59
NtRp4372
(dp4373
g62
(dp4374
g89
g90
ssg71
g4363
sg64
(lp4375
S':'
asbag57
(g78
g59
NtRp4376
(dp4377
g62
(dp4378
sg71
g4363
sg64
(lp4379
g57
(g58
g59
NtRp4380
(dp4381
g62
(dp4382
g70
I5
ssg71
g4376
sg64
(lp4383
S'127.0.0.1-4dc6489d-75f4-4b32-a7d4-10af823ffaa7'
p4384
asbasbasbag57
(g73
g59
NtRp4385
(dp4386
g62
(dp4387
sg71
g3056
sg64
(lp4388
g57
(g78
g59
NtRp4389
(dp4390
g62
(dp4391
g82
g83
ssg71
g4385
sg64
(lp4392
S'session_id_name'
p4393
asbag57
(g78
g59
NtRp4394
(dp4395
g62
(dp4396
g89
g90
ssg71
g4385
sg64
(lp4397
S':'
asbag57
(g78
g59
NtRp4398
(dp4399
g62
(dp4400
sg71
g4385
sg64
(lp4401
g57
(g58
g59
NtRp4402
(dp4403
g62
(dp4404
g70
I5
ssg71
g4398
sg64
(lp4405
g3113
asbasbasbag57
(g73
g59
NtRp4406
(dp4407
g62
(dp4408
sg71
g3056
sg64
(lp4409
g57
(g78
g59
NtRp4410
(dp4411
g62
(dp4412
g82
g83
ssg71
g4406
sg64
(lp4413
S'session_new'
p4414
asbag57
(g78
g59
NtRp4415
(dp4416
g62
(dp4417
g89
g90
ssg71
g4406
sg64
(lp4418
S':'
asbag57
(g78
g59
NtRp4419
(dp4420
g62
(dp4421
sg71
g4406
sg64
(lp4422
g57
(g58
g59
NtRp4423
(dp4424
g62
(dp4425
g70
I5
ssg71
g4419
sg64
(lp4426
g1656
asbasbasbag57
(g73
g59
NtRp4427
(dp4428
g62
(dp4429
sg71
g3056
sg64
(lp4430
g57
(g78
g59
NtRp4431
(dp4432
g62
(dp4433
g82
g83
ssg71
g4427
sg64
(lp4434
S'status'
p4435
asbag57
(g78
g59
NtRp4436
(dp4437
g62
(dp4438
g89
g90
ssg71
g4427
sg64
(lp4439
S':'
asbag57
(g78
g59
NtRp4440
(dp4441
g62
(dp4442
sg71
g4427
sg64
(lp4443
g57
(g58
g59
NtRp4444
(dp4445
g62
(dp4446
g70
I5
ssg71
g4440
sg64
(lp4447
S'200'
p4448
asbasbasbag57
(g73
g59
NtRp4449
(dp4450
g62
(dp4451
sg71
g3056
sg64
(lp4452
g57
(g78
g59
NtRp4453
(dp4454
g62
(dp4455
g82
g83
ssg71
g4449
sg64
(lp4456
S'subtitle'
p4457
asbag57
(g78
g59
NtRp4458
(dp4459
g62
(dp4460
g89
g90
ssg71
g4449
sg64
(lp4461
S':'
asbag57
(g78
g59
NtRp4462
(dp4463
g62
(dp4464
sg71
g4449
sg64
(lp4465
g57
(g58
g59
NtRp4466
(dp4467
g62
(dp4468
g70
I5
ssg71
g4462
sg64
(lp4469
g3561
(S's\r\x00\x00\x00customize me!'
tRp4470
asbasbasbag57
(g73
g59
NtRp4471
(dp4472
g62
(dp4473
sg71
g3056
sg64
(lp4474
g57
(g78
g59
NtRp4475
(dp4476
g62
(dp4477
g82
g83
ssg71
g4471
sg64
(lp4478
S'title'
p4479
asbag57
(g78
g59
NtRp4480
(dp4481
g62
(dp4482
g89
g90
ssg71
g4471
sg64
(lp4483
S':'
asbag57
(g78
g59
NtRp4484
(dp4485
g62
(dp4486
sg71
g4471
sg64
(lp4487
g57
(g58
g59
NtRp4488
(dp4489
g62
(dp4490
g70
I5
ssg71
g4484
sg64
(lp4491
S'Hadoop'
p4492
asbasbasbag57
(g73
g59
NtRp4493
(dp4494
g62
(dp4495
sg71
g3056
sg64
(lp4496
g57
(g78
g59
NtRp4497
(dp4498
g62
(dp4499
g82
g83
ssg71
g4493
sg64
(lp4500
g2320
asbag57
(g78
g59
NtRp4501
(dp4502
g62
(dp4503
g89
g90
ssg71
g4493
sg64
(lp4504
S':'
asbag57
(g78
g59
NtRp4505
(dp4506
g62
(dp4507
sg71
g4493
sg64
(lp4508
g57
(g58
g59
NtRp4509
(dp4510
g62
(dp4511
g70
I5
ssg71
g4505
sg64
(lp4512
g2333
asbasbasbag57
(g73
g59
NtRp4513
(dp4514
g62
(dp4515
sg71
g3056
sg64
(lp4516
g57
(g78
g59
NtRp4517
(dp4518
g62
(dp4519
g82
g83
ssg71
g4513
sg64
(lp4520
S'view'
p4521
asbag57
(g78
g59
NtRp4522
(dp4523
g62
(dp4524
g89
g90
ssg71
g4513
sg64
(lp4525
S':'
asbag57
(g78
g59
NtRp4526
(dp4527
g62
(dp4528
sg71
g4513
sg64
(lp4529
g57
(g58
g59
NtRp4530
(dp4531
g62
(dp4532
g70
I5
ssg71
g4526
sg64
(lp4533
S'default/action.html'
p4534
asbasbasbasbasbsS'locals'
p4535
(dp4536
S'a'
S'"/home/hduser/sqoop/bin/sqoop import --connect jd...e root --password \'hadoop\' --table login; echo $?"'
p4537
sS'posvars'
p4538
S'<Storage {}>'
p4539
sssS'traceback'
p4540
S'Traceback (most recent call last):\n  File "/usr/lib/pymodules/python2.7/gluon/restricted.py", line 204, in restricted\n    exec ccode in environment\n  File "/home/hduser/web2py/applications/Hadoop/controllers/default.py", line 213, in <module>\n  File "/usr/lib/pymodules/python2.7/gluon/globals.py", line 172, in <lambda>\n    self._caller = lambda f: f()\n  File "/home/hduser/web2py/applications/Hadoop/controllers/default.py", line 101, in action\n    comm = "/home/hduser/sqoop/bin/sqoop "+posvars[\'op\'];\nTypeError: cannot concatenate \'str\' and \'NoneType\' objects\n'
p4541
s.