(dp1
S'output'
p2
S"<type 'exceptions.NameError'> name 'git' is not defined"
p3
sS'layer'
p4
S'/home/hduser/web2py/applications/Hadoop/controllers/default.py'
p5
sS'code'
p6
S'# coding: utf8\n# try something like poooooooooooda\nimport os\nimport subprocess\nimport MySQLdb\nimport json\nimport urllib2\nTable = "workflow";\nmachine="localhost";\ndatabase_name="hadoop";\ndb_username="root";\npassword="hadoop";git\npolicy_name = "anuraag1"\n@auth.requires_login()\ndef index():\n#    return dict(a=1);\n    redirect(URL(\'db_combination\'));\n#    redirect(URL(\'all_jobs\'));\n\n    return dict(message="hello from default.py")\ndef compile1():\n    return dict(hello="hello");\ntkns=[]\ncodegen1="";\ndef codegen():\n    print "the tables is"\n    print Table;\n    posvars=request.post_vars;\n#    //codegen:          generate import-export code without performing actual import/export, modify the gnerated java file, compile it to jar, give it to sqoop.\n#    global $TABLE,$machine,$password,$db_username,$database_name;\n    global codegen1;\n    try:\n    \tos.remove(Table+".java");\n    except:\n    \tprint ""\n    try:\n    \tos.remove(Table+".jar");\n    except:\n    \tprint ""\n    try:\n    \tos.remove(Table+".class")\n    except:\n    \tprint ""\n    codegen1= "sqoop codegen --connect jdbc:mysql://"+machine+"/"+database_name+" --username "+db_username+" --password \'"+password+"\' --table "+Table ;\n    """\n        if posvars[\'op\']=="import":\n            if posvars[\'field_delim\']!="":\n                codegen1=codegen1+" --fields-terminated-by "+"\'" +posvars[\'field_delim\']+"\'";\n            if posvars[\'line_delim\']!="":\n                codegen1=codegen1+" --lines-terminated-by "+"\'" +posvars[\'line_delim\']+"\'";\n            if \'enclosed\' in posvars:\n                if posvars[\'enclosingchar\']==\'"\':\n                    posvars[\'enclosingchar\']=\'\\"\';\n                    codegen1=codegen1+" "+posvars[\'enclosed\']+" \'"+posvars[\'enclosingchar\']+ "\'";\n    """\n    codegen1 = codegen1+"  2> err ; echo $?";\n\n    output = os.popen(codegen1).read()\n\n\ndef codechange(table,list_encrypt,list_mask,jsonobj):\n\tprint jsonobj;\n\tf = open(table+\'.java\');\n\tlines = f.readlines();\n\tf.close();\n\n\tf = open(\'encrypt_decrypt_functions.txt\');\n\tlines1 = f.readlines();\n\tf.close();\n\n\tf = open(\'mask.txt\');\n\tlines2 = f.readlines();\n\tf.close();\n\n\tf = open(\'unmask.txt\');\n\tlines3 = f.readlines();\n\tf.close();\n\n\tlines_mask = [];\n\tlines_mask1 = [];\n\n\n\n\tfor i in list_mask:\n\t\tlist_maps = jsonobj[\'hadoop\'][table][i][\'mask\'].split(\',\');\n\t\ttemp11 = "";\n\t\ttemp22 = "";\n\t\tfor j in list_maps:\n\t\t\ttemp11 = temp11 + \'mask_strings.put("\' + j.split(\':\')[0] + \'", "\' + j.split(\':\')[1] + \'");\'\n\t\t\ttemp22 = temp22 + \'mask_strings.put("\' + j.split(\':\')[1] + \'", "\' + j.split(\':\')[0] + \'");\'\n\t\tprint temp11\n\t\tprint temp22\n\t\t\t\n\t\ttemp_list = [\'public String mask_\'+i+\'(final String text){\\n\'] + [lines2[0]] + [temp11] +lines2[1:];\n\t\ttemp_list1 = [\'public String unmask_\'+i+\'(final String text){\\n\'] + [lines3[0]] + [temp22] +lines3[1:];\n\t\tlines_mask = lines_mask+temp_list;\n\t\tlines_mask1 = lines_mask1+temp_list1;\n\n\tconnection = MySQLdb.connect(host=\'localhost\',user=\'root\', passwd=\'hadoop\', db=database_name)\n\tcur=connection.cursor()\n\tquery = "desc "+table;\n\tcur.execute(query)\n\ttables = cur.fetchall()\n\ta = [];\n\tfor i in tables:\n\t\ta.append(i[0]);\n\n\tlist_str=[];\n\tlist_int=[];\n\n\twrite_file=""\n\tflag1 = 1;\n\tstr1 = "";\n\tstr2 = \'\'.join(lines_mask) + \'\'.join(lines_mask1) + \'\'.join(lines1);\n\tfor l in lines:\n\t\tstr1 = l;\n\t\tflag = 0;\n\t\tif "SqoopRecord  implements DBWritable, Writable" in l:\n\t\t\tstr1="import java.util.HashMap; \\n"+str1+str2;\n\n\t\tif "get_" in l:\n\t\t\tif "String" in l:\n\t\t\t\tind1 = l.index("get_");\n\t\t\t\tind2 = l[ind1+4:].index("(");\n\t\t\t\tlist_str.append(l[ind1+4:ind1+4+ind2]);\n\t\t\t\n\t\t\tif "Integer" in l:\n\t\t\t\tind1 = l.index("get_");\n\t\t\t\tind2 = l[ind1+4:].index("(");\n\t\t\t\tlist_int.append(l[ind1+4:ind1+4+ind2]);\n\n\t\tif flag1 == 1:\n\t\t\tfor i in list_str:\n\t\t\t\tif "this."+i in l and i in list_encrypt:\n\t\t\t\t\tind1 = l.index("JdbcWritableBridge");\n\t\t\t\t\tind2 = l.index(";");\n\t\t\t\t\tstr1 = l[:ind1]+"encrypt1("+l[ind1:ind2]+");";\t#encrypt1 is for string\n\t\t\t\t\tflag = 1;\n\t\t\t\t\tbreak;\n\n\t\t\t\tif "this."+i in l and i in list_mask:\n\t\t\t\t\tind1 = l.index("JdbcWritableBridge");\n\t\t\t\t\tind2 = l.index(";");\n\t\t\t\t\tstr1 = l[:ind1]+"mask_"+i+"("+l[ind1:ind2]+");";\t#encrypt1 is for string\n\t\t\t\t\tflag = 1;\n\t\t\t\t\tbreak;\n\t\t\t\tif flag == 1:\n\t\t\t\t\tbreak;\n\t\t\tfor i in list_int:\n\t\t\t\tif "this."+i in l and i in list_encrypt:\n\t\t\t\t\tind1 = l.index("JdbcWritableBridge");\n\t\t\t\t\tind2 = l.index(";");\n\t\t\t\t\tstr1 = l[:ind1]+"encrypt2("+l[ind1:ind2]+");";\t#encrypt1 is for string\n\t\t\t\t\tflag = 1;\n\t\t\t\t\tbreak;\n\n\t\t\t\tif flag == 1:\n\t\t\t\t\tbreak;\n\n\t\tif flag1 == 1 and "}" in l:\n\t\t\tflag1 = 0;\n\n\t\tif "cur_result_set = __dbResults;" in l:\n\t\t\tflag1 = 1;\n\n\n\t\tif "JdbcWritableBridge.writeInteger" in l:\n\t\t\tind1 = l.index("JdbcWritableBridge.writeInteger");\n\t\t\ta = l[ind1:];\n\t\t\td = a.split(\',\');\n\t\t\tif d[0][32:] in list_encrypt:\n\t\t\t\tstr1 = a[:32]+\'decrypt2(\'+d[0][32:]+\')\'+a[len(d[0]):];\n\t\t\telse:\n\t\t\t\tstr1 = l;\n\n\t\tif "JdbcWritableBridge.writeString" in l:\n\t\t\tind1 = l.index("JdbcWritableBridge.writeString");\n\t\t\ta = l[ind1:];\n\t\t\td = a.split(\',\');\n\t\t\tif d[0][31:] in list_encrypt:\n\t\t\t\tstr1 = a[:31]+\'decrypt1(\'+d[0][31:]+\')\'+a[len(d[0]):];\n\t\t\telif d[0][31:] in list_mask:\n\t\t\t\tstr1 = a[:31]+\'unmask_\'+d[0][31:]+\'(\'+d[0][31:]+\')\'+a[len(d[0]):];\n\t\t\telse:\n\t\t\t\tstr1 = l;\n\n\t\twrite_file=write_file+str1;\n\t\tf = open(table+\'.java\',"w");\n\t\tf.write(write_file);\n\t\tf.close();\n\n\n@auth.requires_login()\ndef db_combination():\n\treturn dict(a=1);\n\t\n\n\n@auth.requires_login()\ndef all_jobs1():\n\tos.popen(\'python ~/web2py/ex.py\');\n\treturn dict(a=1);\n\n@auth.requires_login()\ndef all_jobs():\n    jobs=[];\n    output = os.popen(""" jps | grep Jps | awk \'{print $1;}\' """).read()\n    output = output.split(\'\\n\')[:-1];\n    try :\n        connection = MySQLdb.connect(host=\'localhost\',user=\'root\', passwd=\'hadoop\', db=\'jobs\')\n        cur=connection.cursor();\n        query = "select * from db where result = 0 AND job_status = 1";\n        cur.execute(query)\n        tables = cur.fetchall()\n        cur1 = connection.cursor();\n        query = "select * from db where job_status = 0";\n        cur1.execute(query)\n        tables2 = cur1.fetchall()\n        cur2 = connection.cursor();\n        query = "select * from db where result != 0";\n        cur2.execute(query)\n        tables3 = cur2.fetchall()\n#        max_id = tables[0][0];\n    except:\n        print "weee2"\n    return dict(L = tables,running = tables2,failed=tables3,db_type="sql");\n@auth.requires_login()\ndef sql1():\n    tables = [];\n    path = \'/\'\n    if \'path\' in request.get_vars:\n        path = request.get_vars[\'path\'];\n    a = "hadoop fs -ls "+path+" | tr -s \' \' | cut -d \' \' -f8"\n    output = os.popen(a).read()\n    tokens = output.split(\'\\n\')\n    error = ""\n    try :\n        connection = MySQLdb.connect(host=\'localhost\',user=\'root\', passwd=\'hadoop\', db=database_name)\n        cur=connection.cursor()\n        query = "show tables"\n        cur.execute(query)\n        tables = cur.fetchall()\n        dic ={}\n        for (t,) in tables:\n                    \n                    cur = connection.cursor()\n                    \n                    query = "desc "+t +";";\n                    cur.execute(query);\n                    \n                    columns = cur.fetchall()\n                    dic[t] = []\n                    for i in columns:\n                            dic[t].append(i[0])\n#                    print dic[t]\n        return dict(tokens=tokens,error=error,tables=tables,test = request.get_vars,dic=dic)\n    except:\n        print "weee"\n        error = "failed to connect to MySQL: "\n        return dict(tokens=tokens,error=error,tables=tables,dic=dic)\n@auth.requires_login()\ndef hdfs1():\n    tables = [];\n    path = \'/\'\n    if \'path\' in request.get_vars:\n        path = request.get_vars[\'path\'];\n    a = "hadoop fs -ls "+path+" | tr -s \' \' | cut -d \' \' -f8"\n    output = os.popen(a).read()\n    tokens = output.split(\'\\n\')\n    error = ""\n    try :\n        connection = MySQLdb.connect(host=\'localhost\',user=\'root\', passwd=\'hadoop\', db=database_name)\n        cur=connection.cursor()\n        query = "show tables"\n        cur.execute(query)\n        tables = cur.fetchall()\n        return dict(tokens=tokens,error=error,tables=tables,test = request.get_vars)\n    except:\n        print "weee"\n        error = "failed to connect to MySQL: "\n        return dict(tokens=tokens,error=error,tables=tables)\n@auth.requires_login()\ndef main():\n    if request.get_vars[\'dbtype\'] == "sql":\n        redirect(URL(\'sql1\'));\n    elif request.get_vars[\'dbtype\'] == "hdfs":\n        redirect(URL(\'hdfs1\'));\n\n@auth.requires_login()\ndef main1():\n    if request.get_vars[\'dbtype\'] == "sql":\n        redirect(URL(\'sql2\'));\n    elif request.get_vars[\'dbtype\'] == "cassandra":\n        redirect(URL(\'cassandra2\'));\n\n\ndef sql2():\n\treturn dict(a=100);\n\n\n@auth.requires_login()\ndef hdfs():\n    posvars = request.post_vars;\n    json_data=open(\'/home/hduser/web2py/applications/Policy_server/json_files/\'+posvars[\'policy_name\']+\'.json\',\'r\')\n    data = json.load(json_data)\n    print data[\'hadoop\']\n    json_data.close()\n    #this is export\n    present_pid = os.getpid();\n    global codegen1;\n    posvars[\'op\'] = "export";\n    comm = "sqoop "+posvars[\'op\'];\n    print posvars[\'updateid\'];\n\n    max_id = 0;\n    try :\n        connection = MySQLdb.connect(host=\'localhost\',user=\'root\', passwd=\'hadoop\', db=\'jobs\')\n        cur=connection.cursor();\n        query = "insert into db(operation,table_transfered,start_time,job_status) values (\'" + posvars[\'op\'] + "\'," + "\'" + posvars[\'table\'] +"\'," + "NOW(),0);";\n        print query;\n        cur.execute(query)\n        connection.commit();\n        cur1=connection.cursor();\n        query = """ select max(id) from db;  """;\n        cur1.execute(query)\n        tables = cur1.fetchall()\n        max_id = tables[0][0];\n    except:\n        print "weee2"\n        \n    imp = "";\n\n\n\n\n    if posvars[\'op\'] == "export":\n#        comm=comm + " --connect jdbc:mysql://"+machine+"/"+database_name+" --username "+db_username+" --password \'"+password+"\' --table "+posvars[\'table\']+" "\n    \ttables_encrypt = [];\n    \ttables_mask = [];\n\tif posvars[\'directory\'][1:] not in data[\'hadoop\']:\n\t\tdata[\'hadoop\'][posvars[\'directory\'][1:]] = {};\n\tprint posvars[\'directory\'][1:]\n\tprint "asdfasdfdkjasfhkasdhflkjadhfslkjhasdflkjdhasfklh"\n\tprint data\n\n    \tfor i in data[\'hadoop\'][posvars[\'directory\'][1:]]:\n\t\tprint i\n\t\tif data[\'hadoop\'][posvars[\'directory\'][1:]][i] == "encrypt":\n\t\t\ttables_encrypt.append(i);\n\t\t\tposvars[\'decrypt\'] = 1;\n\n\t\tif "mask" in data[\'hadoop\'][posvars[\'directory\'][1:]][i]:\n\t\t\ttables_mask.append(i);\n\t\t\tposvars[\'mask\'] = 1;\n\t\t\t\n        if \'decrypt\' in posvars or \'mask\' in posvars:\n\t        global Table;\n\t    \tTable = posvars[\'directory\'][1:];\n                codegen();\n\t\tcodechange(Table,tables_encrypt,tables_mask,data);\n\t\tcompile_code = """ /usr/lib/jvm/java-7-oracle/bin/javac -classpath /home/hduser/sqoop/sqoop-1.4.4.jar:/home/hduser/hadoop/hadoop-core-1.2.1.jar: """ + Table+".java; /usr/lib/jvm/java-7-oracle/bin/jar -cf "+Table+".jar "+Table+".class ";\n\t\toutput = os.popen(compile_code).read();\n                imp="  --jar-file "+Table+".jar --class-name "+Table;\n         \n\tcomm=comm + " --connect jdbc:mysql://"+machine+"/"+database_name+" --username "+db_username+" --password \'"+password+"\' --table "+posvars[\'table\']+" "+imp;\n\n\n        if \'directory\' in posvars:\n            comm=comm+" --export-dir "+posvars[\'directory\'];\n\n        if posvars[\'updateid\']!="" and posvars[\'updateid\']!="Enter reference column to update the table":\n            comm=comm+" --update-key "+posvars[\'updateid\'] + " --update-mode allowinsert";\n\n        print "Export command="+comm+" <br>";\n\n        comm = comm+ """ ;mysql --user=root --password=hadoop -e "use jobs;update db set result=$?,job_status=1  where id= """+ str(max_id) +""" AND job_status=0 "; exit 1 """;\n        file1 = open(str(present_pid),\'w\');\n        print comm;\n        file1.write(comm);\n        file1.close();\n        pid = os.fork();\n        if pid != 0:\n                try :\n                        connection = MySQLdb.connect(host=\'localhost\',user=\'root\', passwd=\'hadoop\', db=\'jobs\')\n                        cur=connection.cursor();\n                        query = "update db set pid="+ str(pid+1) + " where id="+str(max_id)+";";\n                        cur.execute(query)\n                        connection.commit();\n                        tables = cur.fetchall()\n                except:\n                        print "weee1"\n\n        else:\n                os.execlp(\'bash\',\'bash\',str(present_pid));\n\n    val=\'0\';#output[output.__len__()-2];\n    redirect(URL(\'all_jobs\'))\n\n\n@auth.requires_login()\ndef sql():\n    posvars = request.post_vars;\n    print "came to sql"+posvars\n    json_data=open(\'/home/hduser/web2py/applications/Policy_server/json_files/\'+posvars[\'policy_name\']+\'.json\',\'r\')\n    data = json.load(json_data)\n    print data[\'hadoop\']\n    json_data.close()\n    #this is import\n    present_pid = os.getpid();\n    global codegen1;\n    posvars[\'op\'] = "import";\n    all_tables = posvars[\'table\'];\n    print posvars;\n    print type(all_tables);\n    if type(all_tables)==type("str"):\n        all_tables=[all_tables];\n    first_flag = 0;\n    for tab in all_tables:\n        comm = "sleep "+ str(first_flag) +" ;sqoop "+posvars[\'op\']+" ";\n        first_flag = first_flag+2;\n        posvars[\'table\'] = tab;\n        max_id = 0;\n        print "before"\n        print posvars[\'table\'];\n        try :\n            print "try came"\n            print posvars[\'table\'];\n            connection = MySQLdb.connect(host=\'localhost\',user=\'root\', passwd=\'hadoop\', db=\'jobs\')\n            cur=connection.cursor();\n            query = "insert into db(operation,table_transfered,start_time,job_status) values (\'" + posvars[\'op\'] + "\'," + "\'" + posvars[\'table\'] +"\'," + "NOW(),0);";\n            cur.execute(query)\n            connection.commit();\n            cur1=connection.cursor();\n            query = """ select max(id) from db;  """;\n            cur1.execute(query)\n            tables = cur1.fetchall()\n            max_id = tables[0][0];\n        except:\n            print "weee2"\n\n        if posvars[\'op\'] == "import":\n            imp="";\n    \t    tables_encrypt = [];\n\t    tables_mask = [];\n\t    if posvars[\'table\'] not in data[\'hadoop\']:\n\t\t    data[\'hadoop\'][posvars[\'table\']] = {};\n       \t    for i in data[\'hadoop\'][posvars[\'table\']]:\n\t\tif data[\'hadoop\'][posvars[\'table\']][i] == "encrypt":\n\t\t\ttables_encrypt.append(i);\n\t\t\tposvars[\'encrypt\'] = 1;\t\n\t\tif "mask" in data[\'hadoop\'][posvars[\'table\']][i]:\n\t\t\ttables_mask.append(i);\n\t\t\tposvars[\'mask\'] = 1;\n\t\n\n\t    print tables_encrypt;\n\n    \t    if \'encrypt\' in posvars or \'mask\' in posvars:\n\t        global Table;\n\t    \tTable = posvars[\'table\'];\n                codegen();\n#                array=posvars[\'encrypt_columns\'].split(\',\');#explode(",",$_POST[\'encrypt_columns\']);\n                #print_r($array);\n                #change_import($TABLE.".java",$array,$_POST[\'enckey\']);\n#                compile1();\n\t\tcodechange(Table,tables_encrypt,tables_mask,data);\n\t\tcompile_code = """ /usr/lib/jvm/java-7-oracle/bin/javac -classpath /home/hduser/sqoop/sqoop-1.4.4.jar:/home/hduser/hadoop/hadoop-core-1.2.1.jar: """ + Table+".java; /usr/lib/jvm/java-7-oracle/bin/jar -cf "+Table+".jar "+Table+".class ";\n\t\toutput = os.popen(compile_code).read();\n\n                imp="  --jar-file "+Table+".jar --class-name "+Table;\n\n            comm=comm + " --connect jdbc:mysql://"+machine+"/"+database_name+" --username "+db_username+" --password \'"+password+"\' --append --table "+posvars[\'table\']+" "+imp;\n            if posvars[\'targetdir1\'] != "":\n                comm=comm+" --target-dir /"+posvars[\'targetdir1\'];\n            elif \'targetdir\' in posvars:\n                if posvars[\'targetdir\']==\'default\':\n                    comm=comm+" --target-dir /"+posvars[\'table\'];\n                elif posvars[\'targetdir\']!="":\n                    comm=comm+" --target-dir "+posvars[\'targetdir\'];\n            print query;\n            print "anath"\n#            print posvars[\'tab_columns\'];\n            if type(posvars[\'tab_columns\']) == type("apple"):\n                posvars[\'tab_columns\'] = [posvars[\'tab_columns\']];\n            columns = [];\n            yes = 0;\n            if \'tab_columns\' in posvars:\n                for i in posvars[\'tab_columns\']:\n                    a = i.split(\'$\');\n                    if a[0] == posvars[\'table\']:\n                        yes = 1;\n                        columns.append(a[1]);\n                if yes == 1:\n                    comm=comm+""" --columns " """ + columns[0];\n                for i in range(1,len(columns)):\n                    comm=comm+" ,"+columns[i];\n                comm=comm+""" " """;\n\n            if \'filetype\' in posvars:\n                comm=comm+ " "+posvars[\'filetype\'];\n\n            comm = comm+ """ ; mysql --user=root --password=hadoop -e "use jobs;update db set result=$?,job_status=1  where id= """+ str(max_id) +""" AND job_status=0 "; exit 1 """;\n            file1 = open(str(present_pid),\'w\');\n            file1.write(comm);\n            file1.close();\n            print comm;\n            print present_pid;\n            pid = os.fork();\n            if pid != 0:\n                    print pid;\n                    try :\n                            connection = MySQLdb.connect(host=\'localhost\',user=\'root\', passwd=\'hadoop\', db=\'jobs\')\n                            cur=connection.cursor();\n                            query = "update db set pid="+ str(pid+1) + " where id="+str(max_id)+";";\n                            cur.execute(query)\n                            connection.commit();\n                            tables = cur.fetchall()\n                    except:\n                            print "weee1"\n    \n            else:\n                    os.execlp(\'bash\',\'bash\',str(present_pid));\n\n    val=\'0\';#output[output.__len__()-2];\n    redirect(URL(\'all_jobs\'))\n#    return dict(posvars = request.post_vars);\ndef user():\n    return dict(form=auth())\n\nresponse._vars=response._caller(index)\n'
p7
sS'snapshot'
p8
(dp9
S'exception'
p10
(dp11
S'__hash__'
p12
S"<method-wrapper '__hash__' of exceptions.NameError object>"
p13
sS'__setattr__'
p14
S"<method-wrapper '__setattr__' of exceptions.NameError object>"
p15
sS'__reduce_ex__'
p16
S'<built-in method __reduce_ex__ of exceptions.NameError object>'
p17
sS'__getslice__'
p18
S"<method-wrapper '__getslice__' of exceptions.NameError object>"
p19
sS'__getitem__'
p20
S"<method-wrapper '__getitem__' of exceptions.NameError object>"
p21
sS'__setstate__'
p22
S'<built-in method __setstate__ of exceptions.NameError object>'
p23
sS'args'
p24
S'("name \'git\' is not defined",)'
p25
sS'__reduce__'
p26
S'<built-in method __reduce__ of exceptions.NameError object>'
p27
sS'__str__'
p28
S"<method-wrapper '__str__' of exceptions.NameError object>"
p29
sS'__format__'
p30
S'<built-in method __format__ of exceptions.NameError object>'
p31
sS'__getattribute__'
p32
S"<method-wrapper '__getattribute__' of exceptions.NameError object>"
p33
sS'__class__'
p34
S"<type 'exceptions.NameError'>"
p35
sS'__unicode__'
p36
S'<built-in method __unicode__ of exceptions.NameError object>'
p37
sS'__delattr__'
p38
S"<method-wrapper '__delattr__' of exceptions.NameError object>"
p39
sS'__subclasshook__'
p40
S'<built-in method __subclasshook__ of type object>'
p41
sS'__repr__'
p42
S"<method-wrapper '__repr__' of exceptions.NameError object>"
p43
sS'__dict__'
p44
S'{}'
p45
sS'__sizeof__'
p46
S'<built-in method __sizeof__ of exceptions.NameError object>'
p47
sS'__doc__'
p48
S"'Name not found globally.'"
p49
sS'__init__'
p50
S"<method-wrapper '__init__' of exceptions.NameError object>"
p51
sS'__new__'
p52
S'<built-in method __new__ of type object>'
p53
ssS'evalue'
p54
S"name 'git' is not defined"
p55
sS'request'
p56
cgluon.html
XML_unpickle
p57
(S'seX\x00\x00<div><table><tr><td style="font-weight:bold;vertical-align:top;">ajax</td><td style="vertical-align:top;">:</td><td><div>False</div></td></tr><tr><td style="font-weight:bold;vertical-align:top;">application</td><td style="vertical-align:top;">:</td><td><div>Hadoop</div></td></tr><tr><td style="font-weight:bold;vertical-align:top;">args</td><td style="vertical-align:top;">:</td><td><div><table></table></div></td></tr><tr><td style="font-weight:bold;vertical-align:top;">cid</td><td style="vertical-align:top;">:</td><td><div>None</div></td></tr><tr><td style="font-weight:bold;vertical-align:top;">client</td><td style="vertical-align:top;">:</td><td><div>127.0.0.1</div></td></tr><tr><td style="font-weight:bold;vertical-align:top;">controller</td><td style="vertical-align:top;">:</td><td><div>default</div></td></tr><tr><td style="font-weight:bold;vertical-align:top;">cookies</td><td style="vertical-align:top;">:</td><td><div><table><tr><td style="font-weight:bold;vertical-align:top;">session_id_admin</td><td style="vertical-align:top;">:</td><td><div>127.0.0.1-748d2dff-aa4a-48f3-9328-4be9eb0d87ec<table><tr><td style="font-weight:bold;vertical-align:top;">comment</td><td style="vertical-align:top;">:</td><td><div></div></td></tr><tr><td style="font-weight:bold;vertical-align:top;">domain</td><td style="vertical-align:top;">:</td><td><div></div></td></tr><tr><td style="font-weight:bold;vertical-align:top;">expires</td><td style="vertical-align:top;">:</td><td><div></div></td></tr><tr><td style="font-weight:bold;vertical-align:top;">httponly</td><td style="vertical-align:top;">:</td><td><div></div></td></tr><tr><td style="font-weight:bold;vertical-align:top;">max-age</td><td style="vertical-align:top;">:</td><td><div></div></td></tr><tr><td style="font-weight:bold;vertical-align:top;">path</td><td style="vertical-align:top;">:</td><td><div></div></td></tr><tr><td style="font-weight:bold;vertical-align:top;">secure</td><td style="vertical-align:top;">:</td><td><div></div></td></tr><tr><td style="font-weight:bold;vertical-align:top;">version</td><td style="vertical-align:top;">:</td><td><div></div></td></tr></table></div></td></tr><tr><td style="font-weight:bold;vertical-align:top;">session_id_datamovement</td><td style="vertical-align:top;">:</td><td><div>127.0.0.1-a26b06e2-b2db-4cea-9923-1bb965e4b125<table><tr><td style="font-weight:bold;vertical-align:top;">comment</td><td style="vertical-align:top;">:</td><td><div></div></td></tr><tr><td style="font-weight:bold;vertical-align:top;">domain</td><td style="vertical-align:top;">:</td><td><div></div></td></tr><tr><td style="font-weight:bold;vertical-align:top;">expires</td><td style="vertical-align:top;">:</td><td><div></div></td></tr><tr><td style="font-weight:bold;vertical-align:top;">httponly</td><td style="vertical-align:top;">:</td><td><div></div></td></tr><tr><td style="font-weight:bold;vertical-align:top;">max-age</td><td style="vertical-align:top;">:</td><td><div></div></td></tr><tr><td style="font-weight:bold;vertical-align:top;">path</td><td style="vertical-align:top;">:</td><td><div></div></td></tr><tr><td style="font-weight:bold;vertical-align:top;">secure</td><td style="vertical-align:top;">:</td><td><div></div></td></tr><tr><td style="font-weight:bold;vertical-align:top;">version</td><td style="vertical-align:top;">:</td><td><div></div></td></tr></table></div></td></tr><tr><td style="font-weight:bold;vertical-align:top;">session_id_welcome</td><td style="vertical-align:top;">:</td><td><div>127.0.0.1-9ced5d44-e4ad-47f2-8fb2-ed26da45fd6e<table><tr><td style="font-weight:bold;vertical-align:top;">comment</td><td style="vertical-align:top;">:</td><td><div></div></td></tr><tr><td style="font-weight:bold;vertical-align:top;">domain</td><td style="vertical-align:top;">:</td><td><div></div></td></tr><tr><td style="font-weight:bold;vertical-align:top;">expires</td><td style="vertical-align:top;">:</td><td><div></div></td></tr><tr><td style="font-weight:bold;vertical-align:top;">httponly</td><td style="vertical-align:top;">:</td><td><div></div></td></tr><tr><td style="font-weight:bold;vertical-align:top;">max-age</td><td style="vertical-align:top;">:</td><td><div></div></td></tr><tr><td style="font-weight:bold;vertical-align:top;">path</td><td style="vertical-align:top;">:</td><td><div></div></td></tr><tr><td style="font-weight:bold;vertical-align:top;">secure</td><td style="vertical-align:top;">:</td><td><div></div></td></tr><tr><td style="font-weight:bold;vertical-align:top;">version</td><td style="vertical-align:top;">:</td><td><div></div></td></tr></table></div></td></tr></table></div></td></tr><tr><td style="font-weight:bold;vertical-align:top;">env</td><td style="vertical-align:top;">:</td><td><div><table><tr><td style="font-weight:bold;vertical-align:top;">HTTP_ACCEPT</td><td style="vertical-align:top;">:</td><td><div>text/html,application/xhtml+xml,application/xml;q=0.9,*/*;q=0.8</div></td></tr><tr><td style="font-weight:bold;vertical-align:top;">HTTP_ACCEPT_ENCODING</td><td style="vertical-align:top;">:</td><td><div>gzip, deflate</div></td></tr><tr><td style="font-weight:bold;vertical-align:top;">HTTP_ACCEPT_LANGUAGE</td><td style="vertical-align:top;">:</td><td><div>en-US,en;q=0.5</div></td></tr><tr><td style="font-weight:bold;vertical-align:top;">HTTP_CONNECTION</td><td style="vertical-align:top;">:</td><td><div>keep-alive</div></td></tr><tr><td style="font-weight:bold;vertical-align:top;">HTTP_COOKIE</td><td style="vertical-align:top;">:</td><td><div>session_id_welcome=127.0.0.1-9ced5d44-e4ad-47f2-8fb2-ed26da45fd6e; session_id_admin=127.0.0.1-748d2dff-aa4a-48f3-9328-4be9eb0d87ec; session_id_datamovement=127.0.0.1-a26b06e2-b2db-4cea-9923-1bb965e4b125</div></td></tr><tr><td style="font-weight:bold;vertical-align:top;">HTTP_HOST</td><td style="vertical-align:top;">:</td><td><div>127.0.0.1:8000</div></td></tr><tr><td style="font-weight:bold;vertical-align:top;">HTTP_USER_AGENT</td><td style="vertical-align:top;">:</td><td><div>Mozilla/5.0 (X11; Ubuntu; Linux x86_64; rv:29.0) Gecko/20100101 Firefox/29.0</div></td></tr><tr><td style="font-weight:bold;vertical-align:top;">PATH_INFO</td><td style="vertical-align:top;">:</td><td><div>/Hadoop/</div></td></tr><tr><td style="font-weight:bold;vertical-align:top;">QUERY_STRING</td><td style="vertical-align:top;">:</td><td><div></div></td></tr><tr><td style="font-weight:bold;vertical-align:top;">REMOTE_ADDR</td><td style="vertical-align:top;">:</td><td><div>127.0.0.1</div></td></tr><tr><td style="font-weight:bold;vertical-align:top;">REMOTE_PORT</td><td style="vertical-align:top;">:</td><td><div>60860</div></td></tr><tr><td style="font-weight:bold;vertical-align:top;">REQUEST_METHOD</td><td style="vertical-align:top;">:</td><td><div>GET</div></td></tr><tr><td style="font-weight:bold;vertical-align:top;">SCRIPT_NAME</td><td style="vertical-align:top;">:</td><td><div></div></td></tr><tr><td style="font-weight:bold;vertical-align:top;">SERVER_NAME</td><td style="vertical-align:top;">:</td><td><div>anuraag-Inspiron-N5110</div></td></tr><tr><td style="font-weight:bold;vertical-align:top;">SERVER_PORT</td><td style="vertical-align:top;">:</td><td><div>8000</div></td></tr><tr><td style="font-weight:bold;vertical-align:top;">SERVER_PROTOCOL</td><td style="vertical-align:top;">:</td><td><div>HTTP/1.1</div></td></tr><tr><td style="font-weight:bold;vertical-align:top;">SERVER_SOFTWARE</td><td style="vertical-align:top;">:</td><td><div>Rocket 1.2.6</div></td></tr><tr><td style="font-weight:bold;vertical-align:top;">app_folders</td><td style="vertical-align:top;">:</td><td><div>set([&#x27;/home/hduser/web2py/applications/admin/&#x27;, &#x27;/home/hduser/web2py/applications/welcome/&#x27;, &#x27;/home/hduser/web2py/applications/Hadoop/&#x27;, &#x27;/home/hduser/web2py/applications/datamovement/&#x27;])</div></td></tr><tr><td style="font-weight:bold;vertical-align:top;">applications_parent</td><td style="vertical-align:top;">:</td><td><div>/home/hduser/web2py</div></td></tr><tr><td style="font-weight:bold;vertical-align:top;">cmd_args</td><td style="vertical-align:top;">:</td><td><div><table></table></div></td></tr><tr><td style="font-weight:bold;vertical-align:top;">cmd_options</td><td style="vertical-align:top;">:</td><td><div>&lt;Values at 0x1cd9a28: {&#x27;verbose&#x27;: False, &#x27;ip&#x27;: &#x27;127.0.0.1&#x27;, &#x27;debuglevel&#x27;: 30, &#x27;with_scheduler&#x27;: False, &#x27;ips&#x27;: [&#x27;127.0.1.1&#x27;], &#x27;shutdown_timeout&#x27;: 5, &#x27;taskbar&#x27;: False, &#x27;with_coverage&#x27;: False, &#x27;port&#x27;: 8000, &#x27;maxthreads&#x27;: None, &#x27;softcron&#x27;: False, &#x27;server_name&#x27;: &#x27;anuraag-Inspiron-N5110&#x27;, &#x27;bpython&#x27;: False, &#x27;nogui&#x27;: True, &#x27;pid_filename&#x27;: &#x27;httpserver.pid&#x27;, &#x27;extcron&#x27;: False, &#x27;runcron&#x27;: False, &#x27;run_system_tests&#x27;: False, &#x27;test&#x27;: None, &#x27;folder&#x27;: &#x27;/home/hduser/web2py&#x27;, &#x27;config&#x27;: &#x27;&#x27;, &#x27;minthreads&#x27;: None, &#x27;shell&#x27;: None, &#x27;run&#x27;: &#x27;&#x27;, &#x27;log_filename&#x27;: &#x27;httpserver.log&#x27;, &#x27;profiler_dir&#x27;: None, &#x27;args&#x27;: [&#x27;&#x27;], &#x27;socket_timeout&#x27;: 5, &#x27;ssl_ca_certificate&#x27;: None, &#x27;scheduler&#x27;: None, &#x27;interfaces&#x27;: None, &#x27;ssl_private_key&#x27;: &#x27;&#x27;, &#x27;scheduler_groups&#x27;: None, &#x27;password&#x27;: &#x27;1&#x27;, &#x27;request_queue_size&#x27;: 5, &#x27;ssl_certificate&#x27;: &#x27;&#x27;, &#x27;cronjob&#x27;: False, &#x27;numthreads&#x27;: None, &#x27;quiet&#x27;: False, &#x27;import_models&#x27;: False, &#x27;timeout&#x27;: 10, &#x27;plain&#x27;: False, &#x27;nobanner&#x27;: False}&gt;</div></td></tr><tr><td style="font-weight:bold;vertical-align:top;">db_sessions</td><td style="vertical-align:top;">:</td><td><div>set([])</div></td></tr><tr><td style="font-weight:bold;vertical-align:top;">debugging</td><td style="vertical-align:top;">:</td><td><div>True</div></td></tr><tr><td style="font-weight:bold;vertical-align:top;">gluon_parent</td><td style="vertical-align:top;">:</td><td><div>/home/hduser/web2py</div></td></tr><tr><td style="font-weight:bold;vertical-align:top;">http_accept</td><td style="vertical-align:top;">:</td><td><div>text/html,application/xhtml+xml,application/xml;q=0.9,*/*;q=0.8</div></td></tr><tr><td style="font-weight:bold;vertical-align:top;">http_accept_encoding</td><td style="vertical-align:top;">:</td><td><div>gzip, deflate</div></td></tr><tr><td style="font-weight:bold;vertical-align:top;">http_accept_language</td><td style="vertical-align:top;">:</td><td><div>en-US,en;q=0.5</div></td></tr><tr><td style="font-weight:bold;vertical-align:top;">http_connection</td><td style="vertical-align:top;">:</td><td><div>keep-alive</div></td></tr><tr><td style="font-weight:bold;vertical-align:top;">http_cookie</td><td style="vertical-align:top;">:</td><td><div>session_id_welcome=127.0.0.1-9ced5d44-e4ad-47f2-8fb2-ed26da45fd6e; session_id_admin=127.0.0.1-748d2dff-aa4a-48f3-9328-4be9eb0d87ec; session_id_datamovement=127.0.0.1-a26b06e2-b2db-4cea-9923-1bb965e4b125</div></td></tr><tr><td style="font-weight:bold;vertical-align:top;">http_host</td><td style="vertical-align:top;">:</td><td><div>127.0.0.1:8000</div></td></tr><tr><td style="font-weight:bold;vertical-align:top;">http_user_agent</td><td style="vertical-align:top;">:</td><td><div>Mozilla/5.0 (X11; Ubuntu; Linux x86_64; rv:29.0) Gecko/20100101 Firefox/29.0</div></td></tr><tr><td style="font-weight:bold;vertical-align:top;">is_jython</td><td style="vertical-align:top;">:</td><td><div>False</div></td></tr><tr><td style="font-weight:bold;vertical-align:top;">is_pypy</td><td style="vertical-align:top;">:</td><td><div>False</div></td></tr><tr><td style="font-weight:bold;vertical-align:top;">is_source</td><td style="vertical-align:top;">:</td><td><div>True</div></td></tr><tr><td style="font-weight:bold;vertical-align:top;">local_hosts</td><td style="vertical-align:top;">:</td><td><div><table><tr><td><div>anuraag-Inspiron-N5110</div></td></tr><tr><td><div>::1</div></td></tr><tr><td><div>127.0.1.1</div></td></tr><tr><td><div>::ffff:127.0.0.1</div></td></tr><tr><td><div>127.0.0.1</div></td></tr></table></div></td></tr><tr><td style="font-weight:bold;vertical-align:top;">path_info</td><td style="vertical-align:top;">:</td><td><div>/Hadoop/</div></td></tr><tr><td style="font-weight:bold;vertical-align:top;">query_string</td><td style="vertical-align:top;">:</td><td><div></div></td></tr><tr><td style="font-weight:bold;vertical-align:top;">remote_addr</td><td style="vertical-align:top;">:</td><td><div>127.0.0.1</div></td></tr><tr><td style="font-weight:bold;vertical-align:top;">remote_port</td><td style="vertical-align:top;">:</td><td><div>60860</div></td></tr><tr><td style="font-weight:bold;vertical-align:top;">request_method</td><td style="vertical-align:top;">:</td><td><div>GET</div></td></tr><tr><td style="font-weight:bold;vertical-align:top;">request_uri</td><td style="vertical-align:top;">:</td><td><div>/Hadoop/</div></td></tr><tr><td style="font-weight:bold;vertical-align:top;">script_name</td><td style="vertical-align:top;">:</td><td><div></div></td></tr><tr><td style="font-weight:bold;vertical-align:top;">server_name</td><td style="vertical-align:top;">:</td><td><div>anuraag-Inspiron-N5110</div></td></tr><tr><td style="font-weight:bold;vertical-align:top;">server_port</td><td style="vertical-align:top;">:</td><td><div>8000</div></td></tr><tr><td style="font-weight:bold;vertical-align:top;">server_protocol</td><td style="vertical-align:top;">:</td><td><div>HTTP/1.1</div></td></tr><tr><td style="font-weight:bold;vertical-align:top;">server_software</td><td style="vertical-align:top;">:</td><td><div>Rocket 1.2.6</div></td></tr><tr><td style="font-weight:bold;vertical-align:top;">web2py_path</td><td style="vertical-align:top;">:</td><td><div>/home/hduser/web2py</div></td></tr><tr><td style="font-weight:bold;vertical-align:top;">web2py_version</td><td style="vertical-align:top;">:</td><td><div>2.9.5-stable+timestamp.2014.03.16.02.35.39</div></td></tr><tr><td style="font-weight:bold;vertical-align:top;">wsgi.errors</td><td style="vertical-align:top;">:</td><td><div>&lt;open file &#x27;&lt;stderr&gt;&#x27;, mode &#x27;w&#x27; at 0x7f68bab37270&gt;</div></td></tr><tr><td style="font-weight:bold;vertical-align:top;">wsgi.file_wrapper</td><td style="vertical-align:top;">:</td><td><div>&lt;class wsgiref.util.FileWrapper at 0x1c45738&gt;</div></td></tr><tr><td style="font-weight:bold;vertical-align:top;">wsgi.input</td><td style="vertical-align:top;">:</td><td><div>&lt;socket._fileobject object at 0x7f68ac13f6d0&gt;</div></td></tr><tr><td style="font-weight:bold;vertical-align:top;">wsgi.multiprocess</td><td style="vertical-align:top;">:</td><td><div>False</div></td></tr><tr><td style="font-weight:bold;vertical-align:top;">wsgi.multithread</td><td style="vertical-align:top;">:</td><td><div>True</div></td></tr><tr><td style="font-weight:bold;vertical-align:top;">wsgi.run_once</td><td style="vertical-align:top;">:</td><td><div>False</div></td></tr><tr><td style="font-weight:bold;vertical-align:top;">wsgi.url_scheme</td><td style="vertical-align:top;">:</td><td><div>http</div></td></tr><tr><td style="font-weight:bold;vertical-align:top;">wsgi.version</td><td style="vertical-align:top;">:</td><td><div><table><tr><td><div>1</div></td></tr><tr><td><div>0</div></td></tr></table></div></td></tr><tr><td style="font-weight:bold;vertical-align:top;">wsgi_errors</td><td style="vertical-align:top;">:</td><td><div>&lt;open file &#x27;&lt;stderr&gt;&#x27;, mode &#x27;w&#x27; at 0x7f68bab37270&gt;</div></td></tr><tr><td style="font-weight:bold;vertical-align:top;">wsgi_file_wrapper</td><td style="vertical-align:top;">:</td><td><div>&lt;class wsgiref.util.FileWrapper at 0x1c45738&gt;</div></td></tr><tr><td style="font-weight:bold;vertical-align:top;">wsgi_input</td><td style="vertical-align:top;">:</td><td><div>&lt;socket._fileobject object at 0x7f68ac13f6d0&gt;</div></td></tr><tr><td style="font-weight:bold;vertical-align:top;">wsgi_multiprocess</td><td style="vertical-align:top;">:</td><td><div>False</div></td></tr><tr><td style="font-weight:bold;vertical-align:top;">wsgi_multithread</td><td style="vertical-align:top;">:</td><td><div>True</div></td></tr><tr><td style="font-weight:bold;vertical-align:top;">wsgi_run_once</td><td style="vertical-align:top;">:</td><td><div>False</div></td></tr><tr><td style="font-weight:bold;vertical-align:top;">wsgi_url_scheme</td><td style="vertical-align:top;">:</td><td><div>http</div></td></tr><tr><td style="font-weight:bold;vertical-align:top;">wsgi_version</td><td style="vertical-align:top;">:</td><td><div><table><tr><td><div>1</div></td></tr><tr><td><div>0</div></td></tr></table></div></td></tr></table></div></td></tr><tr><td style="font-weight:bold;vertical-align:top;">extension</td><td style="vertical-align:top;">:</td><td><div>html</div></td></tr><tr><td style="font-weight:bold;vertical-align:top;">folder</td><td style="vertical-align:top;">:</td><td><div>/home/hduser/web2py/applications/Hadoop/</div></td></tr><tr><td style="font-weight:bold;vertical-align:top;">function</td><td style="vertical-align:top;">:</td><td><div>index</div></td></tr><tr><td style="font-weight:bold;vertical-align:top;">global_settings</td><td style="vertical-align:top;">:</td><td><div><table><tr><td style="font-weight:bold;vertical-align:top;">app_folders</td><td style="vertical-align:top;">:</td><td><div>set([&#x27;/home/hduser/web2py/applications/admin/&#x27;, &#x27;/home/hduser/web2py/applications/welcome/&#x27;, &#x27;/home/hduser/web2py/applications/Hadoop/&#x27;, &#x27;/home/hduser/web2py/applications/datamovement/&#x27;])</div></td></tr><tr><td style="font-weight:bold;vertical-align:top;">applications_parent</td><td style="vertical-align:top;">:</td><td><div>/home/hduser/web2py</div></td></tr><tr><td style="font-weight:bold;vertical-align:top;">cmd_args</td><td style="vertical-align:top;">:</td><td><div><table></table></div></td></tr><tr><td style="font-weight:bold;vertical-align:top;">cmd_options</td><td style="vertical-align:top;">:</td><td><div>&lt;Values at 0x1cd9a28: {&#x27;verbose&#x27;: False, &#x27;ip&#x27;: &#x27;127.0.0.1&#x27;, &#x27;debuglevel&#x27;: 30, &#x27;with_scheduler&#x27;: False, &#x27;ips&#x27;: [&#x27;127.0.1.1&#x27;], &#x27;shutdown_timeout&#x27;: 5, &#x27;taskbar&#x27;: False, &#x27;with_coverage&#x27;: False, &#x27;port&#x27;: 8000, &#x27;maxthreads&#x27;: None, &#x27;softcron&#x27;: False, &#x27;server_name&#x27;: &#x27;anuraag-Inspiron-N5110&#x27;, &#x27;bpython&#x27;: False, &#x27;nogui&#x27;: True, &#x27;pid_filename&#x27;: &#x27;httpserver.pid&#x27;, &#x27;extcron&#x27;: False, &#x27;runcron&#x27;: False, &#x27;run_system_tests&#x27;: False, &#x27;test&#x27;: None, &#x27;folder&#x27;: &#x27;/home/hduser/web2py&#x27;, &#x27;config&#x27;: &#x27;&#x27;, &#x27;minthreads&#x27;: None, &#x27;shell&#x27;: None, &#x27;run&#x27;: &#x27;&#x27;, &#x27;log_filename&#x27;: &#x27;httpserver.log&#x27;, &#x27;profiler_dir&#x27;: None, &#x27;args&#x27;: [&#x27;&#x27;], &#x27;socket_timeout&#x27;: 5, &#x27;ssl_ca_certificate&#x27;: None, &#x27;scheduler&#x27;: None, &#x27;interfaces&#x27;: None, &#x27;ssl_private_key&#x27;: &#x27;&#x27;, &#x27;scheduler_groups&#x27;: None, &#x27;password&#x27;: &#x27;1&#x27;, &#x27;request_queue_size&#x27;: 5, &#x27;ssl_certificate&#x27;: &#x27;&#x27;, &#x27;cronjob&#x27;: False, &#x27;numthreads&#x27;: None, &#x27;quiet&#x27;: False, &#x27;import_models&#x27;: False, &#x27;timeout&#x27;: 10, &#x27;plain&#x27;: False, &#x27;nobanner&#x27;: False}&gt;</div></td></tr><tr><td style="font-weight:bold;vertical-align:top;">db_sessions</td><td style="vertical-align:top;">:</td><td><div>set([])</div></td></tr><tr><td style="font-weight:bold;vertical-align:top;">debugging</td><td style="vertical-align:top;">:</td><td><div>True</div></td></tr><tr><td style="font-weight:bold;vertical-align:top;">gluon_parent</td><td style="vertical-align:top;">:</td><td><div>/home/hduser/web2py</div></td></tr><tr><td style="font-weight:bold;vertical-align:top;">is_jython</td><td style="vertical-align:top;">:</td><td><div>False</div></td></tr><tr><td style="font-weight:bold;vertical-align:top;">is_pypy</td><td style="vertical-align:top;">:</td><td><div>False</div></td></tr><tr><td style="font-weight:bold;vertical-align:top;">is_source</td><td style="vertical-align:top;">:</td><td><div>True</div></td></tr><tr><td style="font-weight:bold;vertical-align:top;">local_hosts</td><td style="vertical-align:top;">:</td><td><div><table><tr><td><div>anuraag-Inspiron-N5110</div></td></tr><tr><td><div>::1</div></td></tr><tr><td><div>127.0.1.1</div></td></tr><tr><td><div>::ffff:127.0.0.1</div></td></tr><tr><td><div>127.0.0.1</div></td></tr></table></div></td></tr><tr><td style="font-weight:bold;vertical-align:top;">web2py_version</td><td style="vertical-align:top;">:</td><td><div>2.9.5-stable+timestamp.2014.03.16.02.35.39</div></td></tr></table></div></td></tr><tr><td style="font-weight:bold;vertical-align:top;">is_https</td><td style="vertical-align:top;">:</td><td><div>False</div></td></tr><tr><td style="font-weight:bold;vertical-align:top;">is_local</td><td style="vertical-align:top;">:</td><td><div>True</div></td></tr><tr><td style="font-weight:bold;vertical-align:top;">is_restful</td><td style="vertical-align:top;">:</td><td><div>False</div></td></tr><tr><td style="font-weight:bold;vertical-align:top;">now</td><td style="vertical-align:top;">:</td><td><div>datetime.datetime(2014, 8, 28, 10, 58, 0, 856197)</div></td></tr><tr><td style="font-weight:bold;vertical-align:top;">raw_args</td><td style="vertical-align:top;">:</td><td><div></div></td></tr><tr><td style="font-weight:bold;vertical-align:top;">raw_extension</td><td style="vertical-align:top;">:</td><td><div>None</div></td></tr><tr><td style="font-weight:bold;vertical-align:top;">url</td><td style="vertical-align:top;">:</td><td><div>/Hadoop/</div></td></tr><tr><td style="font-weight:bold;vertical-align:top;">utcnow</td><td style="vertical-align:top;">:</td><td><div>datetime.datetime(2014, 8, 28, 5, 13, 0, 856223)</div></td></tr><tr><td style="font-weight:bold;vertical-align:top;">uuid</td><td style="vertical-align:top;">:</td><td><div>Hadoop/127.0.0.1.2014-08-28.10-58-00.c5a8ce7b-b2da-4cfb-84ca-6853ebcb9be9</div></td></tr><tr><td style="font-weight:bold;vertical-align:top;">wsgi</td><td style="vertical-align:top;">:</td><td><div>&lt;gluon.main.LazyWSGI object at 0x7f689836b210&gt;</div></td></tr></table></div>'
tRp58
sS'frames'
p59
(lp60
(dp61
S'file'
p62
S'/home/hduser/web2py/gluon/restricted.py'
p63
sS'dump'
p64
(dp65
S'environment'
p66
S"{'A': <class 'gluon.html.A'>, 'ANY_OF': <class 'gluon.validators.ANY_OF'>, 'Auth': <class 'gluon.tools.Auth'>, 'B': <class 'gluon.html.B'>, 'BEAUTIFY': <class 'gluon.html.BEAUTIFY'>, 'BODY': <class 'gluon.html.BODY'>, 'BR': <class 'gluon.html.BR'>, 'BUTTON': <class 'gluon.html.BUTTON'>, 'CAT': <class 'gluon.html.CAT'>, 'CENTER': <class 'gluon.html.CENTER'>, ...}"
p67
sS'ccode'
p68
S'<code object <module> at 0x7f689837a030, file "/...lications/Hadoop/controllers/default.py", line 3>'
p69
ssS'lnum'
p70
I220
sS'lines'
p71
(dp72
I224
S'        # do not encapsulate (obfuscate) the original RestrictedError'
p73
sI215
S'    try:'
p74
sI216
S'        if isinstance(code, types.CodeType):'
p75
sI217
S'            ccode = code'
p76
sI218
S'        else:'
p77
sI219
S'            ccode = compile2(code, layer)'
p78
sI220
S'        exec ccode in environment'
p79
sI221
S'    except HTTP:'
p80
sI222
S'        raise'
p81
sI223
S'    except RestrictedError:'
p82
ssS'call'
p83
S"(code='# coding: utf8\\n# try something like pooooooooooo...=auth())\\n\\nresponse._vars=response._caller(index)\\n', environment={'A': <class 'gluon.html.A'>, 'ANY_OF': <class 'gluon.validators.ANY_OF'>, 'Auth': <class 'gluon.tools.Auth'>, 'B': <class 'gluon.html.B'>, 'BEAUTIFY': <class 'gluon.html.BEAUTIFY'>, 'BODY': <class 'gluon.html.BODY'>, 'BR': <class 'gluon.html.BR'>, 'BUTTON': <class 'gluon.html.BUTTON'>, 'CAT': <class 'gluon.html.CAT'>, 'CENTER': <class 'gluon.html.CENTER'>, ...}, layer='/home/hduser/web2py/applications/Hadoop/controllers/default.py')"
p84
sS'func'
p85
S'restricted'
p86
sa(dp87
g62
S'/home/hduser/web2py/applications/Hadoop/controllers/default.py'
p88
sg64
(dp89
S'git'
p90
S'undefined'
p91
sS'password'
p92
S"'hadoop'"
p93
ssg70
I12
sg71
(dp94
I7
S'import urllib2'
p95
sI8
S'Table = "workflow";'
p96
sI9
S'machine="localhost";'
p97
sI10
S'database_name="hadoop";'
p98
sI11
S'db_username="root";'
p99
sI12
S'password="hadoop";git'
p100
sI13
S'policy_name = "anuraag1"'
p101
sI14
S'@auth.requires_login()'
p102
sI15
S'def index():'
p103
sI16
S'#    return dict(a=1);'
p104
ssg83
S'()'
p105
sg85
S'<module>'
p106
sasS'pyver'
p107
S'Python 2.7.3: /usr/bin/python (prefix: /usr)'
p108
sS'session'
p109
g57
(S's\x1a\x00\x00\x00<div><table></table></div>'
tRp110
sS'etype'
p111
S"<type 'exceptions.NameError'>"
p112
sS'date'
p113
S'Thu Aug 28 10:58:00 2014'
p114
sS'response'
p115
g57
(S's\xf9\x1a\x00\x00<div><table><tr><td style="font-weight:bold;vertical-align:top;">body</td><td style="vertical-align:top;">:</td><td><div>&lt;cStringIO.StringO object at 0x7f68ac145ed8&gt;</div></td></tr><tr><td style="font-weight:bold;vertical-align:top;">cookies</td><td style="vertical-align:top;">:</td><td><div><table><tr><td style="font-weight:bold;vertical-align:top;">session_id_hadoop</td><td style="vertical-align:top;">:</td><td><div>127.0.0.1-5e599d15-1c96-4f5a-8bcf-43e17112b340<table><tr><td style="font-weight:bold;vertical-align:top;">comment</td><td style="vertical-align:top;">:</td><td><div></div></td></tr><tr><td style="font-weight:bold;vertical-align:top;">domain</td><td style="vertical-align:top;">:</td><td><div></div></td></tr><tr><td style="font-weight:bold;vertical-align:top;">expires</td><td style="vertical-align:top;">:</td><td><div></div></td></tr><tr><td style="font-weight:bold;vertical-align:top;">httponly</td><td style="vertical-align:top;">:</td><td><div></div></td></tr><tr><td style="font-weight:bold;vertical-align:top;">max-age</td><td style="vertical-align:top;">:</td><td><div></div></td></tr><tr><td style="font-weight:bold;vertical-align:top;">path</td><td style="vertical-align:top;">:</td><td><div>/</div></td></tr><tr><td style="font-weight:bold;vertical-align:top;">secure</td><td style="vertical-align:top;">:</td><td><div></div></td></tr><tr><td style="font-weight:bold;vertical-align:top;">version</td><td style="vertical-align:top;">:</td><td><div></div></td></tr></table></div></td></tr></table></div></td></tr><tr><td style="font-weight:bold;vertical-align:top;">delimiters</td><td style="vertical-align:top;">:</td><td><div><table><tr><td><div>{{</div></td></tr><tr><td><div>}}</div></td></tr></table></div></td></tr><tr><td style="font-weight:bold;vertical-align:top;">files</td><td style="vertical-align:top;">:</td><td><div><table></table></div></td></tr><tr><td style="font-weight:bold;vertical-align:top;">flash</td><td style="vertical-align:top;">:</td><td><div></div></td></tr><tr><td style="font-weight:bold;vertical-align:top;">generic_patterns</td><td style="vertical-align:top;">:</td><td><div><table><tr><td><div>*</div></td></tr></table></div></td></tr><tr><td style="font-weight:bold;vertical-align:top;">google_analytics_id</td><td style="vertical-align:top;">:</td><td><div>None</div></td></tr><tr><td style="font-weight:bold;vertical-align:top;">headers</td><td style="vertical-align:top;">:</td><td><div><table><tr><td style="font-weight:bold;vertical-align:top;">X-Powered-By</td><td style="vertical-align:top;">:</td><td><div>web2py</div></td></tr></table></div></td></tr><tr><td style="font-weight:bold;vertical-align:top;">menu</td><td style="vertical-align:top;">:</td><td><div><table><tr><td><div><table><tr><td><div>Home</div></td></tr><tr><td><div>False</div></td></tr><tr><td><div>/Hadoop/default/index</div></td></tr><tr><td><div><table></table></div></td></tr></table></div></td></tr></table></div></td></tr><tr><td style="font-weight:bold;vertical-align:top;">meta</td><td style="vertical-align:top;">:</td><td><div><table><tr><td style="font-weight:bold;vertical-align:top;">author</td><td style="vertical-align:top;">:</td><td><div>Your Name &lt;you@example.com&gt;</div></td></tr><tr><td style="font-weight:bold;vertical-align:top;">copyright</td><td style="vertical-align:top;">:</td><td><div>Copyright 2011</div></td></tr><tr><td style="font-weight:bold;vertical-align:top;">description</td><td style="vertical-align:top;">:</td><td><div>a cool new app</div></td></tr><tr><td style="font-weight:bold;vertical-align:top;">generator</td><td style="vertical-align:top;">:</td><td><div>Web2py Web Framework</div></td></tr><tr><td style="font-weight:bold;vertical-align:top;">keywords</td><td style="vertical-align:top;">:</td><td><div>web2py, python, framework</div></td></tr></table></div></td></tr><tr><td style="font-weight:bold;vertical-align:top;">models_to_run</td><td style="vertical-align:top;">:</td><td><div><table><tr><td><div>^\\w+\\.py$</div></td></tr><tr><td><div>^default/\\w+\\.py$</div></td></tr><tr><td><div>^default/index/\\w+\\.py$</div></td></tr></table></div></td></tr><tr><td style="font-weight:bold;vertical-align:top;">postprocessing</td><td style="vertical-align:top;">:</td><td><div><table></table></div></td></tr><tr><td style="font-weight:bold;vertical-align:top;">session_client</td><td style="vertical-align:top;">:</td><td><div>127.0.0.1</div></td></tr><tr><td style="font-weight:bold;vertical-align:top;">session_cookie_compression_level</td><td style="vertical-align:top;">:</td><td><div>None</div></td></tr><tr><td style="font-weight:bold;vertical-align:top;">session_cookie_expires</td><td style="vertical-align:top;">:</td><td><div>None</div></td></tr><tr><td style="font-weight:bold;vertical-align:top;">session_cookie_key</td><td style="vertical-align:top;">:</td><td><div>None</div></td></tr><tr><td style="font-weight:bold;vertical-align:top;">session_data_name</td><td style="vertical-align:top;">:</td><td><div>session_data_hadoop</div></td></tr><tr><td style="font-weight:bold;vertical-align:top;">session_file</td><td style="vertical-align:top;">:</td><td><div>None</div></td></tr><tr><td style="font-weight:bold;vertical-align:top;">session_filename</td><td style="vertical-align:top;">:</td><td><div>/home/hduser/web2py/applications/Hadoop/sessions/127.0.0.1-5e599d15-1c96-4f5a-8bcf-43e17112b340</div></td></tr><tr><td style="font-weight:bold;vertical-align:top;">session_hash</td><td style="vertical-align:top;">:</td><td><div>106f4c22ca06cc343e42b73a0d8492f6</div></td></tr><tr><td style="font-weight:bold;vertical-align:top;">session_id</td><td style="vertical-align:top;">:</td><td><div>127.0.0.1-5e599d15-1c96-4f5a-8bcf-43e17112b340</div></td></tr><tr><td style="font-weight:bold;vertical-align:top;">session_id_name</td><td style="vertical-align:top;">:</td><td><div>session_id_hadoop</div></td></tr><tr><td style="font-weight:bold;vertical-align:top;">session_masterapp</td><td style="vertical-align:top;">:</td><td><div>Hadoop</div></td></tr><tr><td style="font-weight:bold;vertical-align:top;">session_new</td><td style="vertical-align:top;">:</td><td><div>True</div></td></tr><tr><td style="font-weight:bold;vertical-align:top;">session_storage_type</td><td style="vertical-align:top;">:</td><td><div>file</div></td></tr><tr><td style="font-weight:bold;vertical-align:top;">status</td><td style="vertical-align:top;">:</td><td><div>200</div></td></tr><tr><td style="font-weight:bold;vertical-align:top;">subtitle</td><td style="vertical-align:top;">:</td><td><div>customize me!</div></td></tr><tr><td style="font-weight:bold;vertical-align:top;">title</td><td style="vertical-align:top;">:</td><td><div>Hadoop</div></td></tr><tr><td style="font-weight:bold;vertical-align:top;">view</td><td style="vertical-align:top;">:</td><td><div>default/index.html</div></td></tr></table></div>'
tRp116
sS'locals'
p117
(dp118
S'Service'
p119
S"<class 'gluon.tools.Service'>"
p120
sS'OBJECT'
p121
S"<class 'gluon.html.OBJECT'>"
p122
sS'SQLDB'
p123
S"<class 'gluon.dal.DAL'>"
p124
sg109
S'<Storage {}>'
p125
sS'LINK'
p126
S"<class 'gluon.html.LINK'>"
p127
sS'BR'
p128
S"<class 'gluon.html.BR'>"
p129
sS'local_import'
p130
S'<function <lambda>>'
p131
sS'OPTGROUP'
p132
S"<class 'gluon.html.OPTGROUP'>"
p133
sS'LI'
p134
S"<class 'gluon.html.LI'>"
p135
sS'PRE'
p136
S"<class 'gluon.html.PRE'>"
p137
sS'IS_INT_IN_RANGE'
p138
S"<class 'gluon.validators.IS_INT_IN_RANGE'>"
p139
sS'password'
p140
S"'hadoop'"
p141
sS'IS_LOWER'
p142
S"<class 'gluon.validators.IS_LOWER'>"
p143
sS'IS_STRONG'
p144
S"<class 'gluon.validators.IS_STRONG'>"
p145
sS'cache'
p146
S'<gluon.cache.Cache object>'
p147
sS'IS_IN_DB'
p148
S"<class 'gluon.validators.IS_IN_DB'>"
p149
sS'TAG'
p150
S'<gluon.html.__TAG__ object>'
p151
sS'SQLField'
p152
S"<class 'gluon.dal.Field'>"
p153
sS'mail'
p154
S'<gluon.tools.Mail object>'
p155
sS'BODY'
p156
S"<class 'gluon.html.BODY'>"
p157
sS'IS_DATE_IN_RANGE'
p158
S"<class 'gluon.validators.IS_DATE_IN_RANGE'>"
p159
sS'TH'
p160
S"<class 'gluon.html.TH'>"
p161
sS'URL'
p162
S'<function URL>'
p163
sS'__file__'
p164
S"'/home/hduser/web2py/applications/Hadoop/controllers/default.py'"
p165
sS'db'
p166
S'<DAL uri="sqlite://storage.sqlite">'
p167
sS'auth'
p168
S'<gluon.tools.Auth object>'
p169
sS'P'
S"<class 'gluon.html.P'>"
p170
sS'TFOOT'
p171
S"<class 'gluon.html.TFOOT'>"
p172
sS'XHTML'
p173
S"<class 'gluon.html.XHTML'>"
p174
sS'subprocess'
p175
S"<module 'subprocess' from '/usr/lib/python2.7/subprocess.pyc'>"
p176
sS'ON'
p177
S'True'
p178
sS'OL'
p179
S"<class 'gluon.html.OL'>"
p180
sS'TEXTAREA'
p181
S"<class 'gluon.html.TEXTAREA'>"
p182
sS'MENU'
p183
S"<class 'gluon.html.MENU'>"
p184
sS'LOAD'
p185
S'<function LOAD>'
p186
sS'CODE'
p187
S"<class 'gluon.html.CODE'>"
p188
sS'HTTP'
p189
S"<class 'gluon.http.HTTP'>"
p190
sS'HR'
p191
S"<class 'gluon.html.HR'>"
p192
sS'IS_DATETIME'
p193
S"<class 'gluon.validators.IS_DATETIME'>"
p194
sS'HEAD'
p195
S"<class 'gluon.html.HEAD'>"
p196
sS'LABEL'
p197
S"<class 'gluon.html.LABEL'>"
p198
sS'META'
p199
S"<class 'gluon.html.META'>"
p200
sS'plugins'
p201
S'<gluon.tools.PluginManager object>'
p202
sS'SELECT'
p203
S"<class 'gluon.html.SELECT'>"
p204
sS'use_janrain'
p205
S'<function use_janrain>'
p206
sS'CENTER'
p207
S"<class 'gluon.html.CENTER'>"
p208
sS'prettydate'
p209
S'<function prettydate>'
p210
sS'Crud'
p211
S"<class 'gluon.tools.Crud'>"
p212
sS'Auth'
p213
S"<class 'gluon.tools.Auth'>"
p214
sS'__builtins__'
p215
S"{'ArithmeticError': <type 'exceptions.ArithmeticError'>, 'AssertionError': <type 'exceptions.AssertionError'>, 'AttributeError': <type 'exceptions.AttributeError'>, 'BaseException': <type 'exceptions.BaseException'>, 'BufferError': <type 'exceptions.BufferError'>, 'BytesWarning': <type 'exceptions.BytesWarning'>, 'DeprecationWarning': <type 'exceptions.DeprecationWarning'>, 'EOFError': <type 'exceptions.EOFError'>, 'Ellipsis': Ellipsis, 'EnvironmentError': <type 'exceptions.EnvironmentError'>, ...}"
p216
sS'BEAUTIFY'
p217
S"<class 'gluon.html.BEAUTIFY'>"
p218
sS'SQLFORM'
p219
S"<class 'gluon.sqlhtml.SQLFORM'>"
p220
sS'EM'
p221
S"<class 'gluon.html.EM'>"
p222
sS'redirect'
p223
S'<function redirect>'
p224
sS'FIELDSET'
p225
S"<class 'gluon.html.FIELDSET'>"
p226
sS'IS_EQUAL_TO'
p227
S"<class 'gluon.validators.IS_EQUAL_TO'>"
p228
sS'embed64'
p229
S'<function embed64>'
p230
sS'IS_LIST_OF'
p231
S"<class 'gluon.validators.IS_LIST_OF'>"
p232
sS'__name__'
p233
S"'__restricted__'"
p234
sS'EMBED'
p235
S"<class 'gluon.html.EMBED'>"
p236
sS'_'
S'<function _>'
p237
sS'FORM'
p238
S"<class 'gluon.html.FORM'>"
p239
sS'H2'
p240
S"<class 'gluon.html.H2'>"
p241
sS'H3'
p242
S"<class 'gluon.html.H3'>"
p243
sS'database_name'
p244
S"'hadoop'"
p245
sS'H1'
p246
S"<class 'gluon.html.H1'>"
p247
sS'H6'
p248
S"<class 'gluon.html.H6'>"
p249
sS'H4'
p250
S"<class 'gluon.html.H4'>"
p251
sS'H5'
p252
S"<class 'gluon.html.H5'>"
p253
sS'UL'
p254
S"<class 'gluon.html.UL'>"
p255
sS'IS_UPPER'
p256
S"<class 'gluon.validators.IS_UPPER'>"
p257
sS'xmlescape'
p258
S'<function xmlescape>'
p259
sS'IS_TIME'
p260
S"<class 'gluon.validators.IS_TIME'>"
p261
sS'os'
p262
S"<module 'os' from '/usr/lib/python2.7/os.pyc'>"
p263
sS'OPTION'
p264
S"<class 'gluon.html.OPTION'>"
p265
sS'TITLE'
p266
S"<class 'gluon.html.TITLE'>"
p267
sS'CRYPT'
p268
S"<class 'gluon.validators.CRYPT'>"
p269
sS'IS_EMPTY_OR'
p270
S"<class 'gluon.validators.IS_EMPTY_OR'>"
p271
sS'MARKMIN'
p272
S"<class 'gluon.html.MARKMIN'>"
p273
sS'INPUT'
p274
S"<class 'gluon.html.INPUT'>"
p275
sS'STRONG'
p276
S"<class 'gluon.html.STRONG'>"
p277
sS'COL'
p278
S"<class 'gluon.html.COL'>"
p279
sS'service'
p280
S'<gluon.tools.Service object>'
p281
sS'SCRIPT'
p282
S"<class 'gluon.html.SCRIPT'>"
p283
sS'json'
p284
S"<module 'json' from '/usr/lib/python2.7/json/__init__.pyc'>"
p285
sS'db_username'
p286
S"'root'"
p287
sS'TABLE'
p288
S"<class 'gluon.html.TABLE'>"
p289
sS'IS_IPV4'
p290
S"<class 'gluon.validators.IS_IPV4'>"
p291
sS'IS_LENGTH'
p292
S"<class 'gluon.validators.IS_LENGTH'>"
p293
sS'IS_IPV6'
p294
S"<class 'gluon.validators.IS_IPV6'>"
p295
sS'XML'
p296
S"<class 'gluon.html.XML'>"
p297
sS'B'
S"<class 'gluon.html.B'>"
p298
sS'IMG'
p299
S"<class 'gluon.html.IMG'>"
p300
sS'SQLTABLE'
p301
S"<class 'gluon.sqlhtml.SQLTABLE'>"
p302
sS'IS_MATCH'
p303
S"<class 'gluon.validators.IS_MATCH'>"
p304
sS'IS_ALPHANUMERIC'
p305
S"<class 'gluon.validators.IS_ALPHANUMERIC'>"
p306
sS'SPAN'
p307
S"<class 'gluon.html.SPAN'>"
p308
sS'IS_JSON'
p309
S"<class 'gluon.validators.IS_JSON'>"
p310
sS'IS_IPADDRESS'
p311
S"<class 'gluon.validators.IS_IPADDRESS'>"
p312
sS'IS_SLUG'
p313
S"<class 'gluon.validators.IS_SLUG'>"
p314
sS'CLEANUP'
p315
S"<class 'gluon.validators.CLEANUP'>"
p316
sS'MySQLdb'
p317
S"<module 'MySQLdb' from '/usr/lib/python2.7/dist-packages/MySQLdb/__init__.pyc'>"
p318
sS'BUTTON'
p319
S"<class 'gluon.html.BUTTON'>"
p320
sS'IS_DATE'
p321
S"<class 'gluon.validators.IS_DATE'>"
p322
sS'IS_EMAIL'
p323
S"<class 'gluon.validators.IS_EMAIL'>"
p324
sS'IS_NOT_EMPTY'
p325
S"<class 'gluon.validators.IS_NOT_EMPTY'>"
p326
sS'IS_FLOAT_IN_RANGE'
p327
S"<class 'gluon.validators.IS_FLOAT_IN_RANGE'>"
p328
sS'TBODY'
p329
S"<class 'gluon.html.TBODY'>"
p330
sS'CAT'
p331
S"<class 'gluon.html.CAT'>"
p332
sS'Field'
p333
S"<class 'gluon.dal.Field'>"
p334
sS'IS_LIST_OF_EMAILS'
p335
S"<class 'gluon.validators.IS_LIST_OF_EMAILS'>"
p336
sS'DIV'
p337
S"<class 'gluon.html.DIV'>"
p338
sS'LEGEND'
p339
S"<class 'gluon.html.LEGEND'>"
p340
sS'COLGROUP'
p341
S"<class 'gluon.html.COLGROUP'>"
p342
sS'DAL'
p343
S"<class 'gluon.dal.DAL'>"
p344
sS'TT'
p345
S"<class 'gluon.html.TT'>"
p346
sS'TR'
p347
S"<class 'gluon.html.TR'>"
p348
sS'__package__'
p349
S'None'
p350
sS'machine'
p351
S"'localhost'"
p352
sS'IFRAME'
p353
S"<class 'gluon.html.IFRAME'>"
p354
sS'TD'
p355
S"<class 'gluon.html.TD'>"
p356
sS'PluginManager'
p357
S"<class 'gluon.tools.PluginManager'>"
p358
sS'IS_URL'
p359
S"<class 'gluon.validators.IS_URL'>"
p360
sS'A'
S"<class 'gluon.html.A'>"
p361
sS'STYLE'
p362
S"<class 'gluon.html.STYLE'>"
p363
sS'IS_DATETIME_IN_RANGE'
p364
S"<class 'gluon.validators.IS_DATETIME_IN_RANGE'>"
p365
sS'HTML'
p366
S"<class 'gluon.html.HTML'>"
p367
sS'IS_IMAGE'
p368
S"<class 'gluon.validators.IS_IMAGE'>"
p369
sS'I'
S"<class 'gluon.html.I'>"
p370
sS'crud'
p371
S'<gluon.tools.Crud object>'
p372
sS'urllib2'
p373
S"<module 'urllib2' from '/usr/lib/python2.7/urllib2.pyc'>"
p374
sS'IS_NOT_IN_DB'
p375
S"<class 'gluon.validators.IS_NOT_IN_DB'>"
p376
sg115
S"<Storage {'body': <cStringIO.StringO object at 0...t 0x7f68ac150230>, 'view': 'default/index.html'}>"
p377
sS'THEAD'
p378
S"<class 'gluon.html.THEAD'>"
p379
sS'ANY_OF'
p380
S"<class 'gluon.validators.ANY_OF'>"
p381
sS'IS_NULL_OR'
p382
S"<class 'gluon.validators.IS_EMPTY_OR'>"
p383
sg56
S"<Storage {'_vars': None, 'function': 'index', 'c...er': '/home/hduser/web2py/applications/Hadoop/'}>"
p384
sS'IS_EXPR'
p385
S"<class 'gluon.validators.IS_EXPR'>"
p386
sS'IS_IN_SET'
p387
S"<class 'gluon.validators.IS_IN_SET'>"
p388
sS'IS_UPLOAD_FILENAME'
p389
S"<class 'gluon.validators.IS_UPLOAD_FILENAME'>"
p390
sS'Table'
p391
S"'workflow'"
p392
sS'IS_DECIMAL_IN_RANGE'
p393
S"<class 'gluon.validators.IS_DECIMAL_IN_RANGE'>"
p394
sS'T'
S'<gluon.languages.translator object>'
p395
sssS'traceback'
p396
S'Traceback (most recent call last):\n  File "/home/hduser/web2py/gluon/restricted.py", line 220, in restricted\n    exec ccode in environment\n  File "/home/hduser/web2py/applications/Hadoop/controllers/default.py", line 12, in <module>\n    password="hadoop";git\nNameError: name \'git\' is not defined\n'
p397
s.